ARM GAS  C:\Users\220036~1\AppData\Local\Temp\cccwt0mM.s 			page 1


   1              		.syntax unified
   2              		.cpu cortex-m0plus
   3              		.fpu softvfp
   4              		.eabi_attribute 20, 1
   5              		.eabi_attribute 21, 1
   6              		.eabi_attribute 23, 3
   7              		.eabi_attribute 24, 1
   8              		.eabi_attribute 25, 1
   9              		.eabi_attribute 26, 1
  10              		.eabi_attribute 30, 1
  11              		.eabi_attribute 34, 0
  12              		.eabi_attribute 18, 4
  13              		.thumb
  14              		.syntax unified
  15              		.file	"CapSense_SensingCSD_LL.c"
  16              		.text
  17              	.Ltext0:
  18              		.cfi_sections	.debug_frame
  19              		.section	.text.CapSense_SsSetShieldDelay,"ax",%progbits
  20              		.align	2
  21              		.code	16
  22              		.thumb_func
  23              		.type	CapSense_SsSetShieldDelay, %function
  24              	CapSense_SsSetShieldDelay:
  25              	.LFB1:
  26              		.file 1 "Generated_Source\\PSoC4\\CapSense_SensingCSD_LL.c"
   1:Generated_Source\PSoC4/CapSense_SensingCSD_LL.c **** /***************************************************************************//**
   2:Generated_Source\PSoC4/CapSense_SensingCSD_LL.c **** * \file CapSense_SensingCSD_LL.c
   3:Generated_Source\PSoC4/CapSense_SensingCSD_LL.c **** * \version 6.0
   4:Generated_Source\PSoC4/CapSense_SensingCSD_LL.c **** *
   5:Generated_Source\PSoC4/CapSense_SensingCSD_LL.c **** * \brief
   6:Generated_Source\PSoC4/CapSense_SensingCSD_LL.c **** *   This file defines the data structure global variables and provides
   7:Generated_Source\PSoC4/CapSense_SensingCSD_LL.c **** *   implementation for the low-level APIs of the CSD part of
   8:Generated_Source\PSoC4/CapSense_SensingCSD_LL.c **** *   the Sensing module. The file contains the APIs used for the CSD block
   9:Generated_Source\PSoC4/CapSense_SensingCSD_LL.c **** *   initialization, calibration, and scanning.
  10:Generated_Source\PSoC4/CapSense_SensingCSD_LL.c **** *
  11:Generated_Source\PSoC4/CapSense_SensingCSD_LL.c **** * \see CapSense v6.0 Datasheet
  12:Generated_Source\PSoC4/CapSense_SensingCSD_LL.c **** *
  13:Generated_Source\PSoC4/CapSense_SensingCSD_LL.c **** *//*****************************************************************************
  14:Generated_Source\PSoC4/CapSense_SensingCSD_LL.c **** * Copyright (2016-2018), Cypress Semiconductor Corporation.
  15:Generated_Source\PSoC4/CapSense_SensingCSD_LL.c **** ********************************************************************************
  16:Generated_Source\PSoC4/CapSense_SensingCSD_LL.c **** * This software is owned by Cypress Semiconductor Corporation (Cypress) and is
  17:Generated_Source\PSoC4/CapSense_SensingCSD_LL.c **** * protected by and subject to worldwide patent protection (United States and
  18:Generated_Source\PSoC4/CapSense_SensingCSD_LL.c **** * foreign), United States copyright laws and international treaty provisions.
  19:Generated_Source\PSoC4/CapSense_SensingCSD_LL.c **** * Cypress hereby grants to licensee a personal, non-exclusive, non-transferable
  20:Generated_Source\PSoC4/CapSense_SensingCSD_LL.c **** * license to copy, use, modify, create derivative works of, and compile the
  21:Generated_Source\PSoC4/CapSense_SensingCSD_LL.c **** * Cypress Source Code and derivative works for the sole purpose of creating
  22:Generated_Source\PSoC4/CapSense_SensingCSD_LL.c **** * custom software in support of licensee product to be used only in conjunction
  23:Generated_Source\PSoC4/CapSense_SensingCSD_LL.c **** * with a Cypress integrated circuit as specified in the applicable agreement.
  24:Generated_Source\PSoC4/CapSense_SensingCSD_LL.c **** * Any reproduction, modification, translation, compilation, or representation of
  25:Generated_Source\PSoC4/CapSense_SensingCSD_LL.c **** * this software except as specified above is prohibited without the express
  26:Generated_Source\PSoC4/CapSense_SensingCSD_LL.c **** * written permission of Cypress.
  27:Generated_Source\PSoC4/CapSense_SensingCSD_LL.c **** *
  28:Generated_Source\PSoC4/CapSense_SensingCSD_LL.c **** * Disclaimer: CYPRESS MAKES NO WARRANTY OF ANY KIND, EXPRESS OR IMPLIED, WITH
  29:Generated_Source\PSoC4/CapSense_SensingCSD_LL.c **** * REGARD TO THIS MATERIAL, INCLUDING, BUT NOT LIMITED TO, THE IMPLIED
  30:Generated_Source\PSoC4/CapSense_SensingCSD_LL.c **** * WARRANTIES OF MERCHANTABILITY AND FITNESS FOR A PARTICULAR PURPOSE.
  31:Generated_Source\PSoC4/CapSense_SensingCSD_LL.c **** * Cypress reserves the right to make changes without further notice to the
ARM GAS  C:\Users\220036~1\AppData\Local\Temp\cccwt0mM.s 			page 2


  32:Generated_Source\PSoC4/CapSense_SensingCSD_LL.c **** * materials described herein. Cypress does not assume any liability arising out
  33:Generated_Source\PSoC4/CapSense_SensingCSD_LL.c **** * of the application or use of any product or circuit described herein. Cypress
  34:Generated_Source\PSoC4/CapSense_SensingCSD_LL.c **** * does not authorize its products for use as critical components in life-support
  35:Generated_Source\PSoC4/CapSense_SensingCSD_LL.c **** * systems where a malfunction or failure may reasonably be expected to result in
  36:Generated_Source\PSoC4/CapSense_SensingCSD_LL.c **** * significant injury to the user. The inclusion of Cypress' product in a life-
  37:Generated_Source\PSoC4/CapSense_SensingCSD_LL.c **** * support systems application implies that the manufacturer assumes all risk of
  38:Generated_Source\PSoC4/CapSense_SensingCSD_LL.c **** * such use and in doing so indemnifies Cypress against all charges. Use may be
  39:Generated_Source\PSoC4/CapSense_SensingCSD_LL.c **** * limited by and subject to the applicable Cypress software license agreement.
  40:Generated_Source\PSoC4/CapSense_SensingCSD_LL.c **** *******************************************************************************/
  41:Generated_Source\PSoC4/CapSense_SensingCSD_LL.c **** #include "CapSense_Structure.h"
  42:Generated_Source\PSoC4/CapSense_SensingCSD_LL.c **** #include "CapSense_Configuration.h"
  43:Generated_Source\PSoC4/CapSense_SensingCSD_LL.c **** #include "CapSense_SensingCSD_LL.h"
  44:Generated_Source\PSoC4/CapSense_SensingCSD_LL.c **** #include "cyapicallbacks.h"
  45:Generated_Source\PSoC4/CapSense_SensingCSD_LL.c **** 
  46:Generated_Source\PSoC4/CapSense_SensingCSD_LL.c **** #if (CapSense_ENABLE == CapSense_CSD_EN)
  47:Generated_Source\PSoC4/CapSense_SensingCSD_LL.c **** 
  48:Generated_Source\PSoC4/CapSense_SensingCSD_LL.c **** /***************************************
  49:Generated_Source\PSoC4/CapSense_SensingCSD_LL.c **** * API Constants
  50:Generated_Source\PSoC4/CapSense_SensingCSD_LL.c **** ***************************************/
  51:Generated_Source\PSoC4/CapSense_SensingCSD_LL.c **** 
  52:Generated_Source\PSoC4/CapSense_SensingCSD_LL.c **** #if (CapSense_ENABLE == CapSense_CSDV2)
  53:Generated_Source\PSoC4/CapSense_SensingCSD_LL.c **** 
  54:Generated_Source\PSoC4/CapSense_SensingCSD_LL.c **** #if (CapSense_ENABLE == CapSense_CSD_AUTO_ZERO_EN)
  55:Generated_Source\PSoC4/CapSense_SensingCSD_LL.c ****     #define CapSense_CSD_AZ_ENABLE_CFG                  (CapSense_CSD_AZ_EN_MASK)
  56:Generated_Source\PSoC4/CapSense_SensingCSD_LL.c **** #else
  57:Generated_Source\PSoC4/CapSense_SensingCSD_LL.c ****     #define CapSense_CSD_AZ_ENABLE_CFG                  (0uL)
  58:Generated_Source\PSoC4/CapSense_SensingCSD_LL.c **** #endif /* (CapSense_ENABLE == CapSense_CSD_AUTO_ZERO_EN) */
  59:Generated_Source\PSoC4/CapSense_SensingCSD_LL.c **** 
  60:Generated_Source\PSoC4/CapSense_SensingCSD_LL.c **** #if (CapSense_IDAC_SINKING == CapSense_CSD_IDAC_CONFIG)
  61:Generated_Source\PSoC4/CapSense_SensingCSD_LL.c ****     #define CapSense_HSCMP_SCAN_MASK                    (CapSense_HSCMP_EN_MASK | CapSense_CSD_AZ_E
  62:Generated_Source\PSoC4/CapSense_SensingCSD_LL.c ****                                                                  CapSense_HSCMP_INVERT_MASK)
  63:Generated_Source\PSoC4/CapSense_SensingCSD_LL.c **** #else
  64:Generated_Source\PSoC4/CapSense_SensingCSD_LL.c ****     #define CapSense_HSCMP_SCAN_MASK                    (CapSense_HSCMP_EN_MASK | CapSense_CSD_AZ_E
  65:Generated_Source\PSoC4/CapSense_SensingCSD_LL.c **** #endif /* (CapSense_IDAC_SINKING == CapSense_CSD_IDAC_CONFIG) */
  66:Generated_Source\PSoC4/CapSense_SensingCSD_LL.c **** 
  67:Generated_Source\PSoC4/CapSense_SensingCSD_LL.c **** #define CapSense_HSCMP_INIT_MASK                        (CapSense_HSCMP_EN_MASK | CapSense_CSD_AZ_E
  68:Generated_Source\PSoC4/CapSense_SensingCSD_LL.c **** 
  69:Generated_Source\PSoC4/CapSense_SensingCSD_LL.c **** #define CapSense_DEFAULT_SW_SHIELD_SEL                  (0x00000000uL)
  70:Generated_Source\PSoC4/CapSense_SensingCSD_LL.c **** #define CapSense_DEFAULT_CSD_SW_DSI_SEL                 (CapSense_SW_DSI_SEL_CMODPAD | CapSense_SW_
  71:Generated_Source\PSoC4/CapSense_SensingCSD_LL.c **** #define CapSense_DEFAULT_CSD_INTR_SET                   (0x00000000uL)
  72:Generated_Source\PSoC4/CapSense_SensingCSD_LL.c **** #define CapSense_DEFAULT_SW_HS_P_SEL                    (0x00000000uL)
  73:Generated_Source\PSoC4/CapSense_SensingCSD_LL.c **** #define CapSense_DEFAULT_SW_HS_N_SEL                    (0x00000000uL)
  74:Generated_Source\PSoC4/CapSense_SensingCSD_LL.c **** #define CapSense_DEFAULT_CSD_SW_FW_TANK_SEL             (0x00000000uL)
  75:Generated_Source\PSoC4/CapSense_SensingCSD_LL.c **** #define CapSense_DEFAULT_CSD_ADC_CTL                    (0x00000000uL)
  76:Generated_Source\PSoC4/CapSense_SensingCSD_LL.c **** #define CapSense_DEFAULT_HSCMP_CFG                      (0x00000000uL)
  77:Generated_Source\PSoC4/CapSense_SensingCSD_LL.c **** 
  78:Generated_Source\PSoC4/CapSense_SensingCSD_LL.c **** #else
  79:Generated_Source\PSoC4/CapSense_SensingCSD_LL.c **** 
  80:Generated_Source\PSoC4/CapSense_SensingCSD_LL.c ****     /* Set IDAC ranges */
  81:Generated_Source\PSoC4/CapSense_SensingCSD_LL.c ****     #if (CapSense_IDAC_GAIN_8X == CapSense_CSD_IDAC_GAIN)
  82:Generated_Source\PSoC4/CapSense_SensingCSD_LL.c ****         #define CapSense_DEFAULT_IDAC_MOD_RANGE         (CapSense_IDAC_MOD_RANGE_MASK)
  83:Generated_Source\PSoC4/CapSense_SensingCSD_LL.c ****         #define CapSense_DEFAULT_IDAC_COMP_RANGE        (CapSense_IDAC_COMP_RANGE_MASK)
  84:Generated_Source\PSoC4/CapSense_SensingCSD_LL.c ****     #else
  85:Generated_Source\PSoC4/CapSense_SensingCSD_LL.c ****         #define CapSense_DEFAULT_IDAC_MOD_RANGE         (0u)
  86:Generated_Source\PSoC4/CapSense_SensingCSD_LL.c ****         #define CapSense_DEFAULT_IDAC_COMP_RANGE        (0u)
  87:Generated_Source\PSoC4/CapSense_SensingCSD_LL.c ****     #endif /* (CapSense_IDAC_GAIN_8X == CapSense_CSD_IDAC_GAIN) */
  88:Generated_Source\PSoC4/CapSense_SensingCSD_LL.c **** 
ARM GAS  C:\Users\220036~1\AppData\Local\Temp\cccwt0mM.s 			page 3


  89:Generated_Source\PSoC4/CapSense_SensingCSD_LL.c ****     /* Defining default IDACs configuration according to settings in customizer. */
  90:Generated_Source\PSoC4/CapSense_SensingCSD_LL.c ****     #if (CapSense_ENABLE == CapSense_CSD_IDAC_COMP_EN)
  91:Generated_Source\PSoC4/CapSense_SensingCSD_LL.c ****         #define CapSense_DEFAULT_CSD_IDAC_CONFIG        (CapSense_IDAC_MOD_MODE_VARIABLE |\
  92:Generated_Source\PSoC4/CapSense_SensingCSD_LL.c ****                                                                  CapSense_IDAC_COMP_MODE_FIXED |\
  93:Generated_Source\PSoC4/CapSense_SensingCSD_LL.c ****                                                                  CapSense_DEFAULT_IDAC_MOD_RANGE |\
  94:Generated_Source\PSoC4/CapSense_SensingCSD_LL.c ****                                                                  CapSense_DEFAULT_IDAC_COMP_RANGE)
  95:Generated_Source\PSoC4/CapSense_SensingCSD_LL.c ****     #else
  96:Generated_Source\PSoC4/CapSense_SensingCSD_LL.c ****         #define CapSense_DEFAULT_CSD_IDAC_CONFIG        (CapSense_IDAC_MOD_MODE_VARIABLE |\
  97:Generated_Source\PSoC4/CapSense_SensingCSD_LL.c ****                                                                  CapSense_DEFAULT_IDAC_MOD_RANGE)
  98:Generated_Source\PSoC4/CapSense_SensingCSD_LL.c ****     #endif /* (CapSense_ENABLE == CapSense_CSD_IDAC_COMP_EN) */
  99:Generated_Source\PSoC4/CapSense_SensingCSD_LL.c **** 
 100:Generated_Source\PSoC4/CapSense_SensingCSD_LL.c **** #endif /* (CapSense_ENABLE == CapSense_CSDV2) */
 101:Generated_Source\PSoC4/CapSense_SensingCSD_LL.c **** 
 102:Generated_Source\PSoC4/CapSense_SensingCSD_LL.c **** /***************************************
 103:Generated_Source\PSoC4/CapSense_SensingCSD_LL.c **** * Variables
 104:Generated_Source\PSoC4/CapSense_SensingCSD_LL.c **** ***************************************/
 105:Generated_Source\PSoC4/CapSense_SensingCSD_LL.c **** 
 106:Generated_Source\PSoC4/CapSense_SensingCSD_LL.c **** #if (CapSense_ENABLE == CapSense_CSDV2)
 107:Generated_Source\PSoC4/CapSense_SensingCSD_LL.c ****     uint32 CapSense_configCsd = CapSense_DEFAULT_CSD_CONFIG;
 108:Generated_Source\PSoC4/CapSense_SensingCSD_LL.c **** #else
 109:Generated_Source\PSoC4/CapSense_SensingCSD_LL.c ****     uint32 CapSense_configCsd = CapSense_DEFAULT_CSD_CONFIG | CapSense_DEFAULT_MODULATION_MODE;
 110:Generated_Source\PSoC4/CapSense_SensingCSD_LL.c ****     static uint32 CapSense_counterResolution = CapSense_CNT_RESOLUTION_12_BITS;
 111:Generated_Source\PSoC4/CapSense_SensingCSD_LL.c **** #endif /* (CapSense_ENABLE == CapSense_CSDV2) */
 112:Generated_Source\PSoC4/CapSense_SensingCSD_LL.c **** 
 113:Generated_Source\PSoC4/CapSense_SensingCSD_LL.c **** /* Flag to indicate electrodes that were connected previously */
 114:Generated_Source\PSoC4/CapSense_SensingCSD_LL.c **** static uint8 CapSense_eleCsdDisconnectFlag = 0u;
 115:Generated_Source\PSoC4/CapSense_SensingCSD_LL.c **** #if ((CapSense_ENABLE == CapSense_CSDV2) && (CapSense_ENABLE == CapSense_CSD_NOISE_METRIC_EN))
 116:Generated_Source\PSoC4/CapSense_SensingCSD_LL.c ****     /* Number of re-samplings when the bad conversion occurs */
 117:Generated_Source\PSoC4/CapSense_SensingCSD_LL.c ****     uint8 CapSense_badConversionsNum = CapSense_BAD_CONVERSIONS_NUM;
 118:Generated_Source\PSoC4/CapSense_SensingCSD_LL.c **** #endif /* ((CapSense_ENABLE == CapSense_CSDV2) && (CapSense_ENABLE == CapSense_CSD_NOISE_METRIC_EN)
 119:Generated_Source\PSoC4/CapSense_SensingCSD_LL.c **** 
 120:Generated_Source\PSoC4/CapSense_SensingCSD_LL.c **** #if (CapSense_CSD_SS_DIS != CapSense_CSD_AUTOTUNE)
 121:Generated_Source\PSoC4/CapSense_SensingCSD_LL.c ****     /* Stores IDAC and raw count that corresponds to a sensor with maximum Cp within a widget */
 122:Generated_Source\PSoC4/CapSense_SensingCSD_LL.c ****     uint8 CapSense_calibratedIdac = 1u;
 123:Generated_Source\PSoC4/CapSense_SensingCSD_LL.c ****     uint16 CapSense_calibratedRawcount = 1u;
 124:Generated_Source\PSoC4/CapSense_SensingCSD_LL.c ****     #if (CapSense_CSD_MATRIX_WIDGET_EN || CapSense_CSD_TOUCHPAD_WIDGET_EN)
 125:Generated_Source\PSoC4/CapSense_SensingCSD_LL.c ****         uint8 CapSense_calibratedIdacRow = 1u;
 126:Generated_Source\PSoC4/CapSense_SensingCSD_LL.c ****         uint16 CapSense_calibratedRawcountRow = 1u;
 127:Generated_Source\PSoC4/CapSense_SensingCSD_LL.c ****     #endif /*(CapSense_CSD_MATRIX_WIDGET_EN || CapSense_CSD_TOUCHPAD_WIDGET_EN) */
 128:Generated_Source\PSoC4/CapSense_SensingCSD_LL.c **** #endif /* (CapSense_CSD_SS_DIS != CapSense_CSD_AUTOTUNE) */
 129:Generated_Source\PSoC4/CapSense_SensingCSD_LL.c **** 
 130:Generated_Source\PSoC4/CapSense_SensingCSD_LL.c **** 
 131:Generated_Source\PSoC4/CapSense_SensingCSD_LL.c **** /*******************************************************************************
 132:Generated_Source\PSoC4/CapSense_SensingCSD_LL.c **** * Static Function Prototypes
 133:Generated_Source\PSoC4/CapSense_SensingCSD_LL.c **** *******************************************************************************/
 134:Generated_Source\PSoC4/CapSense_SensingCSD_LL.c **** 
 135:Generated_Source\PSoC4/CapSense_SensingCSD_LL.c **** /**
 136:Generated_Source\PSoC4/CapSense_SensingCSD_LL.c **** * \cond SECTION_C_INTERNAL
 137:Generated_Source\PSoC4/CapSense_SensingCSD_LL.c **** * \addtogroup group_c_internal
 138:Generated_Source\PSoC4/CapSense_SensingCSD_LL.c **** * \{
 139:Generated_Source\PSoC4/CapSense_SensingCSD_LL.c **** */
 140:Generated_Source\PSoC4/CapSense_SensingCSD_LL.c **** 
 141:Generated_Source\PSoC4/CapSense_SensingCSD_LL.c **** #if (CapSense_ENABLE == CapSense_CSD_SHIELD_EN)
 142:Generated_Source\PSoC4/CapSense_SensingCSD_LL.c ****     static void CapSense_SsSetShieldDelay(uint32 delay);
 143:Generated_Source\PSoC4/CapSense_SensingCSD_LL.c ****     #if (CapSense_ENABLE == CapSense_CSD_SHIELD_TANK_EN)
 144:Generated_Source\PSoC4/CapSense_SensingCSD_LL.c ****         static void CapSense_SsCSDEnableShieldTank(void);
 145:Generated_Source\PSoC4/CapSense_SensingCSD_LL.c ****     #endif /* (CapSense_ENABLE == CapSense_CSD_SHIELD_TANK_EN) */
ARM GAS  C:\Users\220036~1\AppData\Local\Temp\cccwt0mM.s 			page 4


 146:Generated_Source\PSoC4/CapSense_SensingCSD_LL.c ****     #if (0u != CapSense_CSD_TOTAL_SHIELD_COUNT)
 147:Generated_Source\PSoC4/CapSense_SensingCSD_LL.c ****         static void CapSense_SsCSDEnableShieldElectrodes(void);
 148:Generated_Source\PSoC4/CapSense_SensingCSD_LL.c ****     #endif /* (0u != CapSense_CSD_TOTAL_SHIELD_COUNT) */
 149:Generated_Source\PSoC4/CapSense_SensingCSD_LL.c **** #endif /* (CapSense_ENABLE == CapSense_CSD_SHIELD_EN) */
 150:Generated_Source\PSoC4/CapSense_SensingCSD_LL.c **** 
 151:Generated_Source\PSoC4/CapSense_SensingCSD_LL.c **** #if ((CapSense_CSD_SS_DIS != CapSense_CSD_AUTOTUNE) || \
 152:Generated_Source\PSoC4/CapSense_SensingCSD_LL.c ****      (CapSense_ENABLE == CapSense_CSD_IDAC_AUTOCAL_EN))
 153:Generated_Source\PSoC4/CapSense_SensingCSD_LL.c ****     static cystatus CapSense_SsCSDCalibrateCheck(CapSense_RAM_WD_BASE_STRUCT const *ptrWdgt, uint32
 154:Generated_Source\PSoC4/CapSense_SensingCSD_LL.c ****     #if (CapSense_ENABLE == CapSense_CSD_IDAC_COMP_EN)
 155:Generated_Source\PSoC4/CapSense_SensingCSD_LL.c ****         static void CapSense_SsCSDSetSingleIdacMode(void);
 156:Generated_Source\PSoC4/CapSense_SensingCSD_LL.c ****         static void CapSense_SsCSDRestoreIdacMode(void);
 157:Generated_Source\PSoC4/CapSense_SensingCSD_LL.c ****     #endif /* (CapSense_ENABLE == CapSense_CSD_IDAC_COMP_EN) */
 158:Generated_Source\PSoC4/CapSense_SensingCSD_LL.c ****     static cystatus CapSense_SsCSDCalibrateOneSensor(uint32 rawLevel,
 159:Generated_Source\PSoC4/CapSense_SensingCSD_LL.c ****                                                              uint8 *ptrIdac,
 160:Generated_Source\PSoC4/CapSense_SensingCSD_LL.c ****                                                              uint8 *iDAC8Max);
 161:Generated_Source\PSoC4/CapSense_SensingCSD_LL.c **** #endif /* ((CapSense_CSD_SS_DIS != CapSense_CSD_AUTOTUNE) || \
 162:Generated_Source\PSoC4/CapSense_SensingCSD_LL.c ****            (CapSense_ENABLE == CapSense_CSD_IDAC_AUTOCAL_EN))  */
 163:Generated_Source\PSoC4/CapSense_SensingCSD_LL.c **** #if (CapSense_ENABLE == CapSense_CSDV2)
 164:Generated_Source\PSoC4/CapSense_SensingCSD_LL.c ****     static void CapSense_SsCSDSetFilterDelay(void);
 165:Generated_Source\PSoC4/CapSense_SensingCSD_LL.c **** #else
 166:Generated_Source\PSoC4/CapSense_SensingCSD_LL.c ****     CY_INLINE static void CapSense_SsCSDClockRestart(void);
 167:Generated_Source\PSoC4/CapSense_SensingCSD_LL.c **** #endif /* (CapSense_ENABLE == CapSense_CSDV2) */
 168:Generated_Source\PSoC4/CapSense_SensingCSD_LL.c **** CY_INLINE static void CapSense_SsCSDCmodPrecharge(void);
 169:Generated_Source\PSoC4/CapSense_SensingCSD_LL.c **** CY_INLINE static void CapSense_SsCSDTriggerScan(void);
 170:Generated_Source\PSoC4/CapSense_SensingCSD_LL.c **** static void CapSense_SsCSDConfigIDACs(void);
 171:Generated_Source\PSoC4/CapSense_SensingCSD_LL.c **** static void CapSense_SsCSDSetModeSnsClockDivider(uint32 snsClkSource, uint32 snsClkDivider);
 172:Generated_Source\PSoC4/CapSense_SensingCSD_LL.c **** 
 173:Generated_Source\PSoC4/CapSense_SensingCSD_LL.c **** /** \}
 174:Generated_Source\PSoC4/CapSense_SensingCSD_LL.c **** * \endcond */
 175:Generated_Source\PSoC4/CapSense_SensingCSD_LL.c **** 
 176:Generated_Source\PSoC4/CapSense_SensingCSD_LL.c **** 
 177:Generated_Source\PSoC4/CapSense_SensingCSD_LL.c **** #if (CapSense_ENABLE == CapSense_CSD_SHIELD_EN)
 178:Generated_Source\PSoC4/CapSense_SensingCSD_LL.c ****     /*******************************************************************************
 179:Generated_Source\PSoC4/CapSense_SensingCSD_LL.c ****     * Function Name: CapSense_SsSetShieldDelay
 180:Generated_Source\PSoC4/CapSense_SensingCSD_LL.c ****     ****************************************************************************//**
 181:Generated_Source\PSoC4/CapSense_SensingCSD_LL.c ****     *
 182:Generated_Source\PSoC4/CapSense_SensingCSD_LL.c ****     * \brief
 183:Generated_Source\PSoC4/CapSense_SensingCSD_LL.c ****     *   This is an internal function that sets a shield delay.
 184:Generated_Source\PSoC4/CapSense_SensingCSD_LL.c ****     *
 185:Generated_Source\PSoC4/CapSense_SensingCSD_LL.c ****     * \details
 186:Generated_Source\PSoC4/CapSense_SensingCSD_LL.c ****     *   The function updates the CSD configuration register bits that define the shield
 187:Generated_Source\PSoC4/CapSense_SensingCSD_LL.c ****     *   signal delay relatively to the sense signal.
 188:Generated_Source\PSoC4/CapSense_SensingCSD_LL.c ****     *
 189:Generated_Source\PSoC4/CapSense_SensingCSD_LL.c ****     * \param delay
 190:Generated_Source\PSoC4/CapSense_SensingCSD_LL.c ****     *   Specifies the shield delay value:
 191:Generated_Source\PSoC4/CapSense_SensingCSD_LL.c ****     *    PSoC 4100/4200 value interpretation:
 192:Generated_Source\PSoC4/CapSense_SensingCSD_LL.c ****     *         0 - no delay
 193:Generated_Source\PSoC4/CapSense_SensingCSD_LL.c ****     *         1 - 1 cycle of HFCLK
 194:Generated_Source\PSoC4/CapSense_SensingCSD_LL.c ****     *         2 - 2 cycles of HFCLK
 195:Generated_Source\PSoC4/CapSense_SensingCSD_LL.c ****     *    Third-generation HW block (except 4100/4200 devices):
 196:Generated_Source\PSoC4/CapSense_SensingCSD_LL.c ****     *         0 - no delay
 197:Generated_Source\PSoC4/CapSense_SensingCSD_LL.c ****     *         3 - 10ns delay
 198:Generated_Source\PSoC4/CapSense_SensingCSD_LL.c ****     *         2 - 50ns delay
 199:Generated_Source\PSoC4/CapSense_SensingCSD_LL.c ****     *    Fourth-generation HW block:
 200:Generated_Source\PSoC4/CapSense_SensingCSD_LL.c ****     *         0 - no delay
 201:Generated_Source\PSoC4/CapSense_SensingCSD_LL.c ****     *         1 - 5ns delay
 202:Generated_Source\PSoC4/CapSense_SensingCSD_LL.c ****     *         2 - 10ns delay
ARM GAS  C:\Users\220036~1\AppData\Local\Temp\cccwt0mM.s 			page 5


 203:Generated_Source\PSoC4/CapSense_SensingCSD_LL.c ****     *         3 - 20ns delay
 204:Generated_Source\PSoC4/CapSense_SensingCSD_LL.c ****     *
 205:Generated_Source\PSoC4/CapSense_SensingCSD_LL.c ****     *******************************************************************************/
 206:Generated_Source\PSoC4/CapSense_SensingCSD_LL.c ****     static void CapSense_SsSetShieldDelay(uint32 delay)
 207:Generated_Source\PSoC4/CapSense_SensingCSD_LL.c ****     {
  27              		.loc 1 207 0
  28              		.cfi_startproc
  29              		@ args = 0, pretend = 0, frame = 0
  30              		@ frame_needed = 0, uses_anonymous_args = 0
  31              		@ link register save eliminated.
  32              	.LVL0:
 208:Generated_Source\PSoC4/CapSense_SensingCSD_LL.c ****         /* Update CSD config register shield delay bits with shield delay value */
 209:Generated_Source\PSoC4/CapSense_SensingCSD_LL.c ****         CapSense_configCsd &= (uint32)(~CapSense_CONFIG_SHIELD_DELAY_MASK);
  33              		.loc 1 209 0
  34 0000 034A     		ldr	r2, .L2
  35 0002 044B     		ldr	r3, .L2+4
  36 0004 1168     		ldr	r1, [r2]
  37 0006 0B40     		ands	r3, r1
 210:Generated_Source\PSoC4/CapSense_SensingCSD_LL.c ****         CapSense_configCsd |= (delay << CapSense_SHIELD_DELAY_SHIFT);
  38              		.loc 1 210 0
  39 0008 0002     		lsls	r0, r0, #8
  40              	.LVL1:
  41 000a 1843     		orrs	r0, r3
  42 000c 1060     		str	r0, [r2]
 211:Generated_Source\PSoC4/CapSense_SensingCSD_LL.c ****     }
  43              		.loc 1 211 0
  44              		@ sp needed
  45 000e 7047     		bx	lr
  46              	.L3:
  47              		.align	2
  48              	.L2:
  49 0010 00000000 		.word	.LANCHOR0
  50 0014 FFFCFFFF 		.word	-769
  51              		.cfi_endproc
  52              	.LFE1:
  53              		.size	CapSense_SsSetShieldDelay, .-CapSense_SsSetShieldDelay
  54              		.section	.text.CapSense_SsCSDEnableShieldTank,"ax",%progbits
  55              		.align	2
  56              		.code	16
  57              		.thumb_func
  58              		.type	CapSense_SsCSDEnableShieldTank, %function
  59              	CapSense_SsCSDEnableShieldTank:
  60              	.LFB2:
 212:Generated_Source\PSoC4/CapSense_SensingCSD_LL.c **** 
 213:Generated_Source\PSoC4/CapSense_SensingCSD_LL.c ****     #if (CapSense_ENABLE == CapSense_CSD_SHIELD_TANK_EN)
 214:Generated_Source\PSoC4/CapSense_SensingCSD_LL.c ****         /*******************************************************************************
 215:Generated_Source\PSoC4/CapSense_SensingCSD_LL.c ****         * Function Name: CapSense_SsCSDEnableShieldTank
 216:Generated_Source\PSoC4/CapSense_SensingCSD_LL.c ****         ****************************************************************************//**
 217:Generated_Source\PSoC4/CapSense_SensingCSD_LL.c ****         *
 218:Generated_Source\PSoC4/CapSense_SensingCSD_LL.c ****         * \brief
 219:Generated_Source\PSoC4/CapSense_SensingCSD_LL.c ****         *   This function configures Csh pin
 220:Generated_Source\PSoC4/CapSense_SensingCSD_LL.c ****         *
 221:Generated_Source\PSoC4/CapSense_SensingCSD_LL.c ****         * \details
 222:Generated_Source\PSoC4/CapSense_SensingCSD_LL.c ****         *   The function updates the CSH_HSIOM register to connect Csh to AMUXBUS-B.
 223:Generated_Source\PSoC4/CapSense_SensingCSD_LL.c ****         *   For Third-generation HW block it additionally sets Strong drive mode for Csh
 224:Generated_Source\PSoC4/CapSense_SensingCSD_LL.c ****         *   and applies High level to Csh pin when precharge is set to IO buffer.
 225:Generated_Source\PSoC4/CapSense_SensingCSD_LL.c ****         *
ARM GAS  C:\Users\220036~1\AppData\Local\Temp\cccwt0mM.s 			page 6


 226:Generated_Source\PSoC4/CapSense_SensingCSD_LL.c ****         *******************************************************************************/
 227:Generated_Source\PSoC4/CapSense_SensingCSD_LL.c ****         static void CapSense_SsCSDEnableShieldTank(void)
 228:Generated_Source\PSoC4/CapSense_SensingCSD_LL.c ****         {
  61              		.loc 1 228 0
  62              		.cfi_startproc
  63              		@ args = 0, pretend = 0, frame = 0
  64              		@ frame_needed = 0, uses_anonymous_args = 0
  65              		@ link register save eliminated.
 229:Generated_Source\PSoC4/CapSense_SensingCSD_LL.c ****             uint32 newRegValue;
 230:Generated_Source\PSoC4/CapSense_SensingCSD_LL.c **** 
 231:Generated_Source\PSoC4/CapSense_SensingCSD_LL.c ****             /* Update the CSH_HSIOM register to connect Csh to AMUXBUS-B */
 232:Generated_Source\PSoC4/CapSense_SensingCSD_LL.c ****             newRegValue = CY_GET_REG32(CapSense_CSH_HSIOM_PTR);
  66              		.loc 1 232 0
  67 0000 044A     		ldr	r2, .L5
  68 0002 1168     		ldr	r1, [r2]
  69              	.LVL2:
 233:Generated_Source\PSoC4/CapSense_SensingCSD_LL.c ****             newRegValue &= (uint32)(~(uint32)CapSense_CSH_HSIOM_MASK);
  70              		.loc 1 233 0
  71 0004 044B     		ldr	r3, .L5+4
  72 0006 0B40     		ands	r3, r1
  73              	.LVL3:
 234:Generated_Source\PSoC4/CapSense_SensingCSD_LL.c ****             newRegValue |= (CapSense_CSH_TO_AMUXBUS_B_MASK << CapSense_CSH_HSIOM_SHIFT);
  74              		.loc 1 234 0
  75 0008 E021     		movs	r1, #224
  76 000a C901     		lsls	r1, r1, #7
  77 000c 0B43     		orrs	r3, r1
  78              	.LVL4:
 235:Generated_Source\PSoC4/CapSense_SensingCSD_LL.c ****             CY_SET_REG32(CapSense_CSH_HSIOM_PTR, newRegValue);
  79              		.loc 1 235 0
  80 000e 1360     		str	r3, [r2]
 236:Generated_Source\PSoC4/CapSense_SensingCSD_LL.c **** 
 237:Generated_Source\PSoC4/CapSense_SensingCSD_LL.c ****             #if ((CapSense_CSH_PRECHARGE_IO_BUF == CapSense_CSD_CSH_PRECHARGE_SRC) &&\
 238:Generated_Source\PSoC4/CapSense_SensingCSD_LL.c ****                  (CapSense_DISABLE == CapSense_CSDV2))
 239:Generated_Source\PSoC4/CapSense_SensingCSD_LL.c ****                 /* Set Strong drive mode for Csh */
 240:Generated_Source\PSoC4/CapSense_SensingCSD_LL.c ****                 newRegValue = CY_GET_REG32(CapSense_CSH_PC_PTR);
 241:Generated_Source\PSoC4/CapSense_SensingCSD_LL.c ****                 newRegValue &= (uint32)(~(CapSense_CSH_PC_MASK << CapSense_CSH_PC_SHIFT));
 242:Generated_Source\PSoC4/CapSense_SensingCSD_LL.c ****                 newRegValue |= (CapSense_CSH_PC_STRONG_MODE << CapSense_CSH_PC_SHIFT);
 243:Generated_Source\PSoC4/CapSense_SensingCSD_LL.c ****                 CY_SET_REG32(CapSense_CSH_PC_PTR, newRegValue);
 244:Generated_Source\PSoC4/CapSense_SensingCSD_LL.c **** 
 245:Generated_Source\PSoC4/CapSense_SensingCSD_LL.c ****                 /* Appliy High level to Csh pin for Csh */
 246:Generated_Source\PSoC4/CapSense_SensingCSD_LL.c ****                 newRegValue = CY_GET_REG32(CapSense_CSH_DR_PTR);
 247:Generated_Source\PSoC4/CapSense_SensingCSD_LL.c ****                 newRegValue &= (uint32)(~(CapSense_DR_MASK << CapSense_CSH_SHIFT));
 248:Generated_Source\PSoC4/CapSense_SensingCSD_LL.c ****                 newRegValue |= (uint32)CapSense_CSH_DR_CONFIG;
 249:Generated_Source\PSoC4/CapSense_SensingCSD_LL.c ****                 CY_SET_REG32(CapSense_CSH_DR_PTR, newRegValue);
 250:Generated_Source\PSoC4/CapSense_SensingCSD_LL.c ****             #endif /* ((CapSense_CSH_PRECHARGE_IO_BUF == CapSense_CSD_CSH_PRECHARGE_SRC) &&\
 251:Generated_Source\PSoC4/CapSense_SensingCSD_LL.c ****                        (CapSense_DISABLE == CapSense_CSDV2)) */
 252:Generated_Source\PSoC4/CapSense_SensingCSD_LL.c ****         }
  81              		.loc 1 252 0
  82              		@ sp needed
  83 0010 7047     		bx	lr
  84              	.L6:
  85 0012 C046     		.align	2
  86              	.L5:
  87 0014 00040240 		.word	1073873920
  88 0018 FF0FFFFF 		.word	-61441
  89              		.cfi_endproc
  90              	.LFE2:
ARM GAS  C:\Users\220036~1\AppData\Local\Temp\cccwt0mM.s 			page 7


  91              		.size	CapSense_SsCSDEnableShieldTank, .-CapSense_SsCSDEnableShieldTank
  92              		.section	.text.CapSense_SsCSDEnableShieldElectrodes,"ax",%progbits
  93              		.align	2
  94              		.code	16
  95              		.thumb_func
  96              		.type	CapSense_SsCSDEnableShieldElectrodes, %function
  97              	CapSense_SsCSDEnableShieldElectrodes:
  98              	.LFB3:
 253:Generated_Source\PSoC4/CapSense_SensingCSD_LL.c ****     #endif /* (CapSense_ENABLE == CapSense_CSD_SHIELD_TANK_EN) */
 254:Generated_Source\PSoC4/CapSense_SensingCSD_LL.c **** 
 255:Generated_Source\PSoC4/CapSense_SensingCSD_LL.c ****     #if (0u != CapSense_CSD_TOTAL_SHIELD_COUNT)
 256:Generated_Source\PSoC4/CapSense_SensingCSD_LL.c ****         /*******************************************************************************
 257:Generated_Source\PSoC4/CapSense_SensingCSD_LL.c ****         * Function Name: CapSense_SsCSDEnableShieldElectrodes
 258:Generated_Source\PSoC4/CapSense_SensingCSD_LL.c ****         ****************************************************************************//**
 259:Generated_Source\PSoC4/CapSense_SensingCSD_LL.c ****         *
 260:Generated_Source\PSoC4/CapSense_SensingCSD_LL.c ****         * \brief
 261:Generated_Source\PSoC4/CapSense_SensingCSD_LL.c ****         *   This internal function initializes Shield Electrodes.
 262:Generated_Source\PSoC4/CapSense_SensingCSD_LL.c ****         *
 263:Generated_Source\PSoC4/CapSense_SensingCSD_LL.c ****         * \details
 264:Generated_Source\PSoC4/CapSense_SensingCSD_LL.c ****         *   The function sets the bit in the HSIOM register which enables the shield electrode
 265:Generated_Source\PSoC4/CapSense_SensingCSD_LL.c ****         *   functionality on the pin. The port and pin configurations are stored in
 266:Generated_Source\PSoC4/CapSense_SensingCSD_LL.c ****         *   the CapSense_shieldIoList structure.
 267:Generated_Source\PSoC4/CapSense_SensingCSD_LL.c ****         *
 268:Generated_Source\PSoC4/CapSense_SensingCSD_LL.c ****         *******************************************************************************/
 269:Generated_Source\PSoC4/CapSense_SensingCSD_LL.c ****         static void CapSense_SsCSDEnableShieldElectrodes(void)
 270:Generated_Source\PSoC4/CapSense_SensingCSD_LL.c ****         {
  99              		.loc 1 270 0
 100              		.cfi_startproc
 101              		@ args = 0, pretend = 0, frame = 0
 102              		@ frame_needed = 0, uses_anonymous_args = 0
 103 0000 F0B5     		push	{r4, r5, r6, r7, lr}
 104              		.cfi_def_cfa_offset 20
 105              		.cfi_offset 4, -20
 106              		.cfi_offset 5, -16
 107              		.cfi_offset 6, -12
 108              		.cfi_offset 7, -8
 109              		.cfi_offset 14, -4
 110              	.LVL5:
 271:Generated_Source\PSoC4/CapSense_SensingCSD_LL.c ****             uint32 newRegValue;
 272:Generated_Source\PSoC4/CapSense_SensingCSD_LL.c ****             uint32 shieldIndex;
 273:Generated_Source\PSoC4/CapSense_SensingCSD_LL.c **** 
 274:Generated_Source\PSoC4/CapSense_SensingCSD_LL.c ****             for (shieldIndex = 0u; shieldIndex < CapSense_CSD_TOTAL_SHIELD_COUNT; shieldIndex++)
 111              		.loc 1 274 0
 112 0002 0023     		movs	r3, #0
 113 0004 18E0     		b	.L8
 114              	.LVL6:
 115              	.L9:
 275:Generated_Source\PSoC4/CapSense_SensingCSD_LL.c ****             {
 276:Generated_Source\PSoC4/CapSense_SensingCSD_LL.c ****                 /* Set drive mode to Analog */
 277:Generated_Source\PSoC4/CapSense_SensingCSD_LL.c ****                 CY_SET_REG32(CapSense_shieldIoList[shieldIndex].pcPtr, CY_GET_REG32(CapSense_shield
 116              		.loc 1 277 0 discriminator 3
 117 0006 0E4E     		ldr	r6, .L10
 118 0008 5900     		lsls	r1, r3, #1
 119 000a C818     		adds	r0, r1, r3
 120 000c C200     		lsls	r2, r0, #3
 121 000e B218     		adds	r2, r6, r2
 122 0010 5568     		ldr	r5, [r2, #4]
ARM GAS  C:\Users\220036~1\AppData\Local\Temp\cccwt0mM.s 			page 8


 123 0012 2868     		ldr	r0, [r5]
 124 0014 977D     		ldrb	r7, [r2, #22]
 125 0016 0724     		movs	r4, #7
 126 0018 BC40     		lsls	r4, r4, r7
 127 001a A043     		bics	r0, r4
 128 001c 2860     		str	r0, [r5]
 278:Generated_Source\PSoC4/CapSense_SensingCSD_LL.c ****                            ~(CapSense_GPIO_PC_MASK <<(CapSense_shieldIoList[shieldIndex].shift)));
 279:Generated_Source\PSoC4/CapSense_SensingCSD_LL.c **** 
 280:Generated_Source\PSoC4/CapSense_SensingCSD_LL.c ****                 /* Set HSIOM register mode to CSD_SHIELD or AMUXBUS B connection */
 281:Generated_Source\PSoC4/CapSense_SensingCSD_LL.c ****                 newRegValue = CY_GET_REG32(CapSense_shieldIoList[shieldIndex].hsiomPtr);
 129              		.loc 1 281 0 discriminator 3
 130 001e C918     		adds	r1, r1, r3
 131 0020 C800     		lsls	r0, r1, #3
 132 0022 8059     		ldr	r0, [r0, r6]
 133 0024 0168     		ldr	r1, [r0]
 134              	.LVL7:
 282:Generated_Source\PSoC4/CapSense_SensingCSD_LL.c ****                 newRegValue &= ~(CapSense_HSIOM_SEL_MASK << (CapSense_shieldIoList[shieldIndex].hsi
 135              		.loc 1 282 0 discriminator 3
 136 0026 147D     		ldrb	r4, [r2, #20]
 137 0028 0F22     		movs	r2, #15
 138 002a A240     		lsls	r2, r2, r4
 139 002c 9143     		bics	r1, r2
 140              	.LVL8:
 283:Generated_Source\PSoC4/CapSense_SensingCSD_LL.c **** 
 284:Generated_Source\PSoC4/CapSense_SensingCSD_LL.c ****                 /* Set HSIOM register mode to CSD_SHIELD */
 285:Generated_Source\PSoC4/CapSense_SensingCSD_LL.c ****                 newRegValue |= (CapSense_HSIOM_SEL_CSD_SHIELD << (CapSense_shieldIoList[shieldIndex
 141              		.loc 1 285 0 discriminator 3
 142 002e 0522     		movs	r2, #5
 143 0030 A240     		lsls	r2, r2, r4
 144 0032 0A43     		orrs	r2, r1
 145              	.LVL9:
 286:Generated_Source\PSoC4/CapSense_SensingCSD_LL.c **** 
 287:Generated_Source\PSoC4/CapSense_SensingCSD_LL.c ****                 CY_SET_REG32(CapSense_shieldIoList[shieldIndex].hsiomPtr, newRegValue);
 146              		.loc 1 287 0 discriminator 3
 147 0034 0260     		str	r2, [r0]
 274:Generated_Source\PSoC4/CapSense_SensingCSD_LL.c ****             {
 148              		.loc 1 274 0 discriminator 3
 149 0036 0133     		adds	r3, r3, #1
 150              	.LVL10:
 151              	.L8:
 274:Generated_Source\PSoC4/CapSense_SensingCSD_LL.c ****             {
 152              		.loc 1 274 0 is_stmt 0 discriminator 1
 153 0038 002B     		cmp	r3, #0
 154 003a E4D0     		beq	.L9
 288:Generated_Source\PSoC4/CapSense_SensingCSD_LL.c ****             }
 289:Generated_Source\PSoC4/CapSense_SensingCSD_LL.c ****         }
 155              		.loc 1 289 0 is_stmt 1
 156              		@ sp needed
 157 003c F0BD     		pop	{r4, r5, r6, r7, pc}
 158              	.L11:
 159 003e C046     		.align	2
 160              	.L10:
 161 0040 00000000 		.word	CapSense_shieldIoList
 162              		.cfi_endproc
 163              	.LFE3:
 164              		.size	CapSense_SsCSDEnableShieldElectrodes, .-CapSense_SsCSDEnableShieldElectrodes
 165              		.section	.text.CapSense_SsCSDSetModeSnsClockDivider,"ax",%progbits
ARM GAS  C:\Users\220036~1\AppData\Local\Temp\cccwt0mM.s 			page 9


 166              		.align	2
 167              		.code	16
 168              		.thumb_func
 169              		.type	CapSense_SsCSDSetModeSnsClockDivider, %function
 170              	CapSense_SsCSDSetModeSnsClockDivider:
 171              	.LFB5:
 290:Generated_Source\PSoC4/CapSense_SensingCSD_LL.c **** 
 291:Generated_Source\PSoC4/CapSense_SensingCSD_LL.c **** 
 292:Generated_Source\PSoC4/CapSense_SensingCSD_LL.c ****         /*******************************************************************************
 293:Generated_Source\PSoC4/CapSense_SensingCSD_LL.c ****         * Function Name: CapSense_SsCSDDisableShieldElectrodes
 294:Generated_Source\PSoC4/CapSense_SensingCSD_LL.c ****         ****************************************************************************//**
 295:Generated_Source\PSoC4/CapSense_SensingCSD_LL.c ****         *
 296:Generated_Source\PSoC4/CapSense_SensingCSD_LL.c ****         * \brief
 297:Generated_Source\PSoC4/CapSense_SensingCSD_LL.c ****         *   This internal function disables Shield Electrodes.
 298:Generated_Source\PSoC4/CapSense_SensingCSD_LL.c ****         *
 299:Generated_Source\PSoC4/CapSense_SensingCSD_LL.c ****         * \details
 300:Generated_Source\PSoC4/CapSense_SensingCSD_LL.c ****         *   The function resets the bit in the HSIOM register which disables the shield
 301:Generated_Source\PSoC4/CapSense_SensingCSD_LL.c ****         *   electrode functionality on the pin. The port and pin configurations are
 302:Generated_Source\PSoC4/CapSense_SensingCSD_LL.c ****         *   stored in  the CapSense_shieldIoList structure.
 303:Generated_Source\PSoC4/CapSense_SensingCSD_LL.c ****         *
 304:Generated_Source\PSoC4/CapSense_SensingCSD_LL.c ****         *******************************************************************************/
 305:Generated_Source\PSoC4/CapSense_SensingCSD_LL.c ****         void CapSense_SsCSDDisableShieldElectrodes(void)
 306:Generated_Source\PSoC4/CapSense_SensingCSD_LL.c ****         {
 307:Generated_Source\PSoC4/CapSense_SensingCSD_LL.c ****             uint32 newRegValue;
 308:Generated_Source\PSoC4/CapSense_SensingCSD_LL.c ****             uint32 shieldIndex;
 309:Generated_Source\PSoC4/CapSense_SensingCSD_LL.c **** 
 310:Generated_Source\PSoC4/CapSense_SensingCSD_LL.c ****             for (shieldIndex = 0u; shieldIndex < CapSense_CSD_TOTAL_SHIELD_COUNT; shieldIndex++)
 311:Generated_Source\PSoC4/CapSense_SensingCSD_LL.c ****             {
 312:Generated_Source\PSoC4/CapSense_SensingCSD_LL.c ****                 /* Reset HSIOM register (to GPIO state) */
 313:Generated_Source\PSoC4/CapSense_SensingCSD_LL.c ****                 CY_SET_REG32(CapSense_shieldIoList[shieldIndex].hsiomPtr, CY_GET_REG32(CapSense_shi
 314:Generated_Source\PSoC4/CapSense_SensingCSD_LL.c ****                              (uint32)~(uint32)(CapSense_HSIOM_SEL_MASK << CapSense_shieldIoList[shi
 315:Generated_Source\PSoC4/CapSense_SensingCSD_LL.c **** 
 316:Generated_Source\PSoC4/CapSense_SensingCSD_LL.c ****                 /* Update port configuration register (drive mode to ground)  */
 317:Generated_Source\PSoC4/CapSense_SensingCSD_LL.c ****                 newRegValue = CY_GET_REG32(CapSense_shieldIoList[shieldIndex].pcPtr);
 318:Generated_Source\PSoC4/CapSense_SensingCSD_LL.c ****                 newRegValue &= ~(CapSense_GPIO_PC_MASK << CapSense_shieldIoList[shieldIndex].shift)
 319:Generated_Source\PSoC4/CapSense_SensingCSD_LL.c ****                 newRegValue |= (CapSense_SNS_GROUND_CONNECT << CapSense_shieldIoList[shieldIndex].s
 320:Generated_Source\PSoC4/CapSense_SensingCSD_LL.c ****                 CY_SET_REG32(CapSense_shieldIoList[shieldIndex].pcPtr, newRegValue);
 321:Generated_Source\PSoC4/CapSense_SensingCSD_LL.c **** 
 322:Generated_Source\PSoC4/CapSense_SensingCSD_LL.c ****                 /* Set logic 0 to port data register */
 323:Generated_Source\PSoC4/CapSense_SensingCSD_LL.c ****                 CY_SET_REG32(CapSense_shieldIoList[shieldIndex].drPtr, CY_GET_REG32(CapSense_shield
 324:Generated_Source\PSoC4/CapSense_SensingCSD_LL.c ****                            (uint32)~(uint32)((uint32)1u << CapSense_shieldIoList[shieldIndex].drShi
 325:Generated_Source\PSoC4/CapSense_SensingCSD_LL.c ****             }
 326:Generated_Source\PSoC4/CapSense_SensingCSD_LL.c ****         }
 327:Generated_Source\PSoC4/CapSense_SensingCSD_LL.c ****     #endif /* (0u != CapSense_CSD_TOTAL_SHIELD_COUNT) */
 328:Generated_Source\PSoC4/CapSense_SensingCSD_LL.c **** #endif /* (CapSense_ENABLE == CapSense_CSD_SHIELD_EN) */
 329:Generated_Source\PSoC4/CapSense_SensingCSD_LL.c **** 
 330:Generated_Source\PSoC4/CapSense_SensingCSD_LL.c **** 
 331:Generated_Source\PSoC4/CapSense_SensingCSD_LL.c **** /*******************************************************************************
 332:Generated_Source\PSoC4/CapSense_SensingCSD_LL.c **** * Function Name: CapSense_SsCSDSetModeSnsClockDivider
 333:Generated_Source\PSoC4/CapSense_SensingCSD_LL.c **** ****************************************************************************//**
 334:Generated_Source\PSoC4/CapSense_SensingCSD_LL.c **** *
 335:Generated_Source\PSoC4/CapSense_SensingCSD_LL.c **** * \brief
 336:Generated_Source\PSoC4/CapSense_SensingCSD_LL.c **** *   Sets sense source and Sense Clock Divider
 337:Generated_Source\PSoC4/CapSense_SensingCSD_LL.c **** *
 338:Generated_Source\PSoC4/CapSense_SensingCSD_LL.c **** * \details
 339:Generated_Source\PSoC4/CapSense_SensingCSD_LL.c **** *   For Fourth-generation HW block: Updates CapSense_SENSE_PERIOD register with
 340:Generated_Source\PSoC4/CapSense_SensingCSD_LL.c **** *   sense source and Sense Clock Divider.
ARM GAS  C:\Users\220036~1\AppData\Local\Temp\cccwt0mM.s 			page 10


 341:Generated_Source\PSoC4/CapSense_SensingCSD_LL.c **** *   For Third-generation HW block: Updates CapSense_configCsd variable with
 342:Generated_Source\PSoC4/CapSense_SensingCSD_LL.c **** *   sense source and sets sense clock divider.
 343:Generated_Source\PSoC4/CapSense_SensingCSD_LL.c **** *
 344:Generated_Source\PSoC4/CapSense_SensingCSD_LL.c **** * \param
 345:Generated_Source\PSoC4/CapSense_SensingCSD_LL.c **** *   snsClkSource The sense source for the sense clock.
 346:Generated_Source\PSoC4/CapSense_SensingCSD_LL.c **** * \param
 347:Generated_Source\PSoC4/CapSense_SensingCSD_LL.c **** *   snsClkDivider The divider value for the sense clock.
 348:Generated_Source\PSoC4/CapSense_SensingCSD_LL.c **** *
 349:Generated_Source\PSoC4/CapSense_SensingCSD_LL.c **** *******************************************************************************/
 350:Generated_Source\PSoC4/CapSense_SensingCSD_LL.c **** static void CapSense_SsCSDSetModeSnsClockDivider(uint32 snsClkSource, uint32 snsClkDivider)
 351:Generated_Source\PSoC4/CapSense_SensingCSD_LL.c **** {
 172              		.loc 1 351 0
 173              		.cfi_startproc
 174              		@ args = 0, pretend = 0, frame = 0
 175              		@ frame_needed = 0, uses_anonymous_args = 0
 176              		@ link register save eliminated.
 177              	.LVL11:
 352:Generated_Source\PSoC4/CapSense_SensingCSD_LL.c ****     #if (CapSense_ENABLE == CapSense_CSDV2)
 353:Generated_Source\PSoC4/CapSense_SensingCSD_LL.c ****         /* Update reg value with divider and configuration */
 354:Generated_Source\PSoC4/CapSense_SensingCSD_LL.c ****         CY_SET_REG32(CapSense_SENSE_PERIOD_PTR, snsClkSource | (snsClkDivider - 1u));
 178              		.loc 1 354 0
 179 0000 0139     		subs	r1, r1, #1
 180              	.LVL12:
 181 0002 0843     		orrs	r0, r1
 182              	.LVL13:
 183 0004 014B     		ldr	r3, .L13
 184 0006 1860     		str	r0, [r3]
 355:Generated_Source\PSoC4/CapSense_SensingCSD_LL.c ****     #else
 356:Generated_Source\PSoC4/CapSense_SensingCSD_LL.c ****         /* Set configuration */
 357:Generated_Source\PSoC4/CapSense_SensingCSD_LL.c ****         CapSense_configCsd &= ~(CapSense_CONFIG_PRS_SELECT_MASK | CapSense_CSD_PRS_12_BIT);
 358:Generated_Source\PSoC4/CapSense_SensingCSD_LL.c ****         CapSense_configCsd |= snsClkSource;
 359:Generated_Source\PSoC4/CapSense_SensingCSD_LL.c **** 
 360:Generated_Source\PSoC4/CapSense_SensingCSD_LL.c ****         /* Set sense clock divider */
 361:Generated_Source\PSoC4/CapSense_SensingCSD_LL.c ****         CapSense_SsSetSnsClockDivider(snsClkDivider);
 362:Generated_Source\PSoC4/CapSense_SensingCSD_LL.c ****     #endif /* (CapSense_ENABLE == CapSense_CSDV2) */
 363:Generated_Source\PSoC4/CapSense_SensingCSD_LL.c **** }
 185              		.loc 1 363 0
 186              		@ sp needed
 187 0008 7047     		bx	lr
 188              	.L14:
 189 000a C046     		.align	2
 190              	.L13:
 191 000c 00022940 		.word	1076429312
 192              		.cfi_endproc
 193              	.LFE5:
 194              		.size	CapSense_SsCSDSetModeSnsClockDivider, .-CapSense_SsCSDSetModeSnsClockDivider
 195              		.global	__aeabi_uidiv
 196              		.section	.text.CapSense_SsCSDSetFilterDelay,"ax",%progbits
 197              		.align	2
 198              		.code	16
 199              		.thumb_func
 200              		.type	CapSense_SsCSDSetFilterDelay, %function
 201              	CapSense_SsCSDSetFilterDelay:
 202              	.LFB6:
 364:Generated_Source\PSoC4/CapSense_SensingCSD_LL.c **** 
 365:Generated_Source\PSoC4/CapSense_SensingCSD_LL.c **** 
 366:Generated_Source\PSoC4/CapSense_SensingCSD_LL.c **** #if (CapSense_ENABLE == CapSense_CSDV2)
ARM GAS  C:\Users\220036~1\AppData\Local\Temp\cccwt0mM.s 			page 11


 367:Generated_Source\PSoC4/CapSense_SensingCSD_LL.c ****     /*******************************************************************************
 368:Generated_Source\PSoC4/CapSense_SensingCSD_LL.c ****     * Function Name: CapSense_SsCSDSetFilterDelay
 369:Generated_Source\PSoC4/CapSense_SensingCSD_LL.c ****     ****************************************************************************//**
 370:Generated_Source\PSoC4/CapSense_SensingCSD_LL.c ****     *
 371:Generated_Source\PSoC4/CapSense_SensingCSD_LL.c ****     * \brief
 372:Generated_Source\PSoC4/CapSense_SensingCSD_LL.c ****     *   Sets the filter delay for Fourth-generation HW block.
 373:Generated_Source\PSoC4/CapSense_SensingCSD_LL.c ****     *
 374:Generated_Source\PSoC4/CapSense_SensingCSD_LL.c ****     * \details
 375:Generated_Source\PSoC4/CapSense_SensingCSD_LL.c ****     *   This function updates Fourth-generation HW block configuration
 376:Generated_Source\PSoC4/CapSense_SensingCSD_LL.c ****     *   variable CapSense_configCsd
 377:Generated_Source\PSoC4/CapSense_SensingCSD_LL.c ****     *   with the filter delay which depends on the sample clock frequency.
 378:Generated_Source\PSoC4/CapSense_SensingCSD_LL.c ****     *   This variable is written into register during enabling
 379:Generated_Source\PSoC4/CapSense_SensingCSD_LL.c ****     *   Fourth-generation HW block .
 380:Generated_Source\PSoC4/CapSense_SensingCSD_LL.c ****     *
 381:Generated_Source\PSoC4/CapSense_SensingCSD_LL.c ****     *******************************************************************************/
 382:Generated_Source\PSoC4/CapSense_SensingCSD_LL.c ****     static void CapSense_SsCSDSetFilterDelay(void)
 383:Generated_Source\PSoC4/CapSense_SensingCSD_LL.c ****     {
 203              		.loc 1 383 0
 204              		.cfi_startproc
 205              		@ args = 0, pretend = 0, frame = 0
 206              		@ frame_needed = 0, uses_anonymous_args = 0
 207 0000 10B5     		push	{r4, lr}
 208              		.cfi_def_cfa_offset 8
 209              		.cfi_offset 4, -8
 210              		.cfi_offset 14, -4
 384:Generated_Source\PSoC4/CapSense_SensingCSD_LL.c ****         #if (CapSense_MOD_CSD_CLK_12MHZ < CYDEV_BCLK__HFCLK__HZ)
 385:Generated_Source\PSoC4/CapSense_SensingCSD_LL.c ****             uint32 sampleClkFreqHz;
 386:Generated_Source\PSoC4/CapSense_SensingCSD_LL.c ****         #endif /* (CapSense_MOD_CSD_CLK_12MHZ < CYDEV_BCLK__HFCLK__HZ) */
 387:Generated_Source\PSoC4/CapSense_SensingCSD_LL.c **** 
 388:Generated_Source\PSoC4/CapSense_SensingCSD_LL.c ****         CapSense_configCsd &= ~CapSense_CONFIG_FILTER_DELAY_MASK;
 211              		.loc 1 388 0
 212 0002 104B     		ldr	r3, .L19
 213 0004 1B68     		ldr	r3, [r3]
 214 0006 7022     		movs	r2, #112
 215 0008 9343     		bics	r3, r2
 216 000a 1C00     		movs	r4, r3
 389:Generated_Source\PSoC4/CapSense_SensingCSD_LL.c **** 
 390:Generated_Source\PSoC4/CapSense_SensingCSD_LL.c ****         #if (CapSense_MOD_CSD_CLK_12MHZ < CYDEV_BCLK__HFCLK__HZ)
 391:Generated_Source\PSoC4/CapSense_SensingCSD_LL.c ****             sampleClkFreqHz = CYDEV_BCLK__HFCLK__HZ / (uint32)CapSense_dsRam.modCsdClk;
 217              		.loc 1 391 0
 218 000c 2C23     		movs	r3, #44
 219 000e 0E4A     		ldr	r2, .L19+4
 220 0010 D15C     		ldrb	r1, [r2, r3]
 221 0012 0E48     		ldr	r0, .L19+8
 222 0014 FFF7FEFF 		bl	__aeabi_uidiv
 223              	.LVL14:
 392:Generated_Source\PSoC4/CapSense_SensingCSD_LL.c ****             if(sampleClkFreqHz <= CapSense_MOD_CSD_CLK_12MHZ)
 224              		.loc 1 392 0
 225 0018 0D4B     		ldr	r3, .L19+12
 226 001a 9842     		cmp	r0, r3
 227 001c 04D8     		bhi	.L16
 393:Generated_Source\PSoC4/CapSense_SensingCSD_LL.c ****             {
 394:Generated_Source\PSoC4/CapSense_SensingCSD_LL.c ****                 CapSense_configCsd |= CapSense_CONFIG_FILTER_DELAY_12MHZ;
 228              		.loc 1 394 0
 229 001e 2023     		movs	r3, #32
 230 0020 2343     		orrs	r3, r4
 231 0022 084A     		ldr	r2, .L19
ARM GAS  C:\Users\220036~1\AppData\Local\Temp\cccwt0mM.s 			page 12


 232 0024 1360     		str	r3, [r2]
 233 0026 0BE0     		b	.L15
 234              	.L16:
 395:Generated_Source\PSoC4/CapSense_SensingCSD_LL.c ****             }
 396:Generated_Source\PSoC4/CapSense_SensingCSD_LL.c ****             else if(sampleClkFreqHz <= CapSense_MOD_CSD_CLK_24MHZ)
 235              		.loc 1 396 0
 236 0028 084B     		ldr	r3, .L19+8
 237 002a 9842     		cmp	r0, r3
 238 002c 04D8     		bhi	.L18
 397:Generated_Source\PSoC4/CapSense_SensingCSD_LL.c ****             {
 398:Generated_Source\PSoC4/CapSense_SensingCSD_LL.c ****                 CapSense_configCsd |= CapSense_CONFIG_FILTER_DELAY_24MHZ;
 239              		.loc 1 398 0
 240 002e 3023     		movs	r3, #48
 241 0030 2343     		orrs	r3, r4
 242 0032 044A     		ldr	r2, .L19
 243 0034 1360     		str	r3, [r2]
 244 0036 03E0     		b	.L15
 245              	.L18:
 399:Generated_Source\PSoC4/CapSense_SensingCSD_LL.c ****             }
 400:Generated_Source\PSoC4/CapSense_SensingCSD_LL.c ****             else
 401:Generated_Source\PSoC4/CapSense_SensingCSD_LL.c ****             {
 402:Generated_Source\PSoC4/CapSense_SensingCSD_LL.c ****                 CapSense_configCsd |= CapSense_CONFIG_FILTER_DELAY_48MHZ;
 246              		.loc 1 402 0
 247 0038 4023     		movs	r3, #64
 248 003a 2343     		orrs	r3, r4
 249 003c 014A     		ldr	r2, .L19
 250 003e 1360     		str	r3, [r2]
 251              	.L15:
 403:Generated_Source\PSoC4/CapSense_SensingCSD_LL.c ****             }
 404:Generated_Source\PSoC4/CapSense_SensingCSD_LL.c ****         #else
 405:Generated_Source\PSoC4/CapSense_SensingCSD_LL.c ****             CapSense_configCsd |= CapSense_CONFIG_FILTER_DELAY_12MHZ;
 406:Generated_Source\PSoC4/CapSense_SensingCSD_LL.c ****         #endif /* (CapSense_MOD_CSD_CLK_12MHZ < CYDEV_BCLK__HFCLK__HZ) */
 407:Generated_Source\PSoC4/CapSense_SensingCSD_LL.c ****     }
 252              		.loc 1 407 0
 253              		@ sp needed
 254 0040 10BD     		pop	{r4, pc}
 255              	.L20:
 256 0042 C046     		.align	2
 257              	.L19:
 258 0044 00000000 		.word	.LANCHOR0
 259 0048 00000000 		.word	CapSense_dsRam
 260 004c 00366E01 		.word	24000000
 261 0050 001BB700 		.word	12000000
 262              		.cfi_endproc
 263              	.LFE6:
 264              		.size	CapSense_SsCSDSetFilterDelay, .-CapSense_SsCSDSetFilterDelay
 265              		.section	.text.CapSense_SsCSDConfigIDACs,"ax",%progbits
 266              		.align	2
 267              		.code	16
 268              		.thumb_func
 269              		.type	CapSense_SsCSDConfigIDACs, %function
 270              	CapSense_SsCSDConfigIDACs:
 271              	.LFB7:
 408:Generated_Source\PSoC4/CapSense_SensingCSD_LL.c **** #endif /* (CapSense_ENABLE == CapSense_CSD_GANGED_SNS_EN)  */
 409:Generated_Source\PSoC4/CapSense_SensingCSD_LL.c **** 
 410:Generated_Source\PSoC4/CapSense_SensingCSD_LL.c **** 
 411:Generated_Source\PSoC4/CapSense_SensingCSD_LL.c **** /*******************************************************************************
ARM GAS  C:\Users\220036~1\AppData\Local\Temp\cccwt0mM.s 			page 13


 412:Generated_Source\PSoC4/CapSense_SensingCSD_LL.c **** * Function Name: CapSense_SsCSDConfigIDACs
 413:Generated_Source\PSoC4/CapSense_SensingCSD_LL.c **** ****************************************************************************//**
 414:Generated_Source\PSoC4/CapSense_SensingCSD_LL.c **** *
 415:Generated_Source\PSoC4/CapSense_SensingCSD_LL.c **** * \brief
 416:Generated_Source\PSoC4/CapSense_SensingCSD_LL.c **** *   Configures the mode for IDAC registers
 417:Generated_Source\PSoC4/CapSense_SensingCSD_LL.c **** *
 418:Generated_Source\PSoC4/CapSense_SensingCSD_LL.c **** * \details
 419:Generated_Source\PSoC4/CapSense_SensingCSD_LL.c **** *   This function configures the IDAC modes depend on Compensation IDAC
 420:Generated_Source\PSoC4/CapSense_SensingCSD_LL.c **** *   enabled or disabled.
 421:Generated_Source\PSoC4/CapSense_SensingCSD_LL.c **** *
 422:Generated_Source\PSoC4/CapSense_SensingCSD_LL.c **** *******************************************************************************/
 423:Generated_Source\PSoC4/CapSense_SensingCSD_LL.c **** static void CapSense_SsCSDConfigIDACs(void)
 424:Generated_Source\PSoC4/CapSense_SensingCSD_LL.c **** {
 272              		.loc 1 424 0
 273              		.cfi_startproc
 274              		@ args = 0, pretend = 0, frame = 0
 275              		@ frame_needed = 0, uses_anonymous_args = 0
 276              		@ link register save eliminated.
 425:Generated_Source\PSoC4/CapSense_SensingCSD_LL.c ****     #if (CapSense_ENABLE == CapSense_CSDV2)
 426:Generated_Source\PSoC4/CapSense_SensingCSD_LL.c ****     CY_SET_REG32(CapSense_IDAC_MOD_PTR, CapSense_IDAC_MOD_DEFAULT_CFG);
 277              		.loc 1 426 0
 278 0000 034A     		ldr	r2, .L22
 279 0002 044B     		ldr	r3, .L22+4
 280 0004 1A60     		str	r2, [r3]
 427:Generated_Source\PSoC4/CapSense_SensingCSD_LL.c ****         #if ((CapSense_ENABLE == CapSense_CSD_IDAC_COMP_EN) && \
 428:Generated_Source\PSoC4/CapSense_SensingCSD_LL.c ****              (CapSense_ENABLE == CapSense_CSD_DEDICATED_IDAC_COMP_EN))
 429:Generated_Source\PSoC4/CapSense_SensingCSD_LL.c ****         CY_SET_REG32(CapSense_IDACB_PTR, CapSense_IDAC_COMP_DEFAULT_CFG);
 281              		.loc 1 429 0
 282 0006 C122     		movs	r2, #193
 283 0008 5204     		lsls	r2, r2, #17
 284 000a 034B     		ldr	r3, .L22+8
 285 000c 1A60     		str	r2, [r3]
 430:Generated_Source\PSoC4/CapSense_SensingCSD_LL.c ****         #endif /* ((CapSense_ENABLE == CapSense_CSD_IDAC_COMP_EN) && \
 431:Generated_Source\PSoC4/CapSense_SensingCSD_LL.c ****                    (CapSense_ENABLE == CapSense_CSD_DEDICATED_IDAC_COMP_EN)) */
 432:Generated_Source\PSoC4/CapSense_SensingCSD_LL.c ****     #else
 433:Generated_Source\PSoC4/CapSense_SensingCSD_LL.c ****         #if (CapSense_ENABLE == CapSense_CSD_IDAC_COMP_EN)
 434:Generated_Source\PSoC4/CapSense_SensingCSD_LL.c ****             CY_SET_REG32(CapSense_IDAC_PTR, CapSense_DEFAULT_CSD_IDAC_CONFIG);
 435:Generated_Source\PSoC4/CapSense_SensingCSD_LL.c ****         #else
 436:Generated_Source\PSoC4/CapSense_SensingCSD_LL.c ****             CY_SET_REG32(CapSense_IDAC_PTR, CY_GET_REG32(CapSense_IDAC_PTR) &
 437:Generated_Source\PSoC4/CapSense_SensingCSD_LL.c ****                                                                 ~(CapSense_IDAC_MOD_MODE_MASK |
 438:Generated_Source\PSoC4/CapSense_SensingCSD_LL.c ****                                                                   CapSense_IDAC_MOD_MASK));
 439:Generated_Source\PSoC4/CapSense_SensingCSD_LL.c ****             CY_SET_REG32(CapSense_IDAC_PTR, CY_GET_REG32(CapSense_IDAC_PTR) |
 440:Generated_Source\PSoC4/CapSense_SensingCSD_LL.c ****                                                                  CapSense_DEFAULT_CSD_IDAC_CONFIG);
 441:Generated_Source\PSoC4/CapSense_SensingCSD_LL.c ****         #endif /* (CapSense_ENABLE == CapSense_CSD_IDAC_COMP_EN) */
 442:Generated_Source\PSoC4/CapSense_SensingCSD_LL.c ****     #endif /* (CapSense_ENABLE == CapSense_CSDV2) */
 443:Generated_Source\PSoC4/CapSense_SensingCSD_LL.c **** }
 286              		.loc 1 443 0
 287              		@ sp needed
 288 000e 7047     		bx	lr
 289              	.L23:
 290              		.align	2
 291              	.L22:
 292 0010 00008301 		.word	25362432
 293 0014 C0012940 		.word	1076429248
 294 0018 C4012940 		.word	1076429252
 295              		.cfi_endproc
 296              	.LFE7:
ARM GAS  C:\Users\220036~1\AppData\Local\Temp\cccwt0mM.s 			page 14


 297              		.size	CapSense_SsCSDConfigIDACs, .-CapSense_SsCSDConfigIDACs
 298              		.section	.text.CapSense_SsCSDSetSingleIdacMode,"ax",%progbits
 299              		.align	2
 300              		.code	16
 301              		.thumb_func
 302              		.type	CapSense_SsCSDSetSingleIdacMode, %function
 303              	CapSense_SsCSDSetSingleIdacMode:
 304              	.LFB23:
 444:Generated_Source\PSoC4/CapSense_SensingCSD_LL.c **** 
 445:Generated_Source\PSoC4/CapSense_SensingCSD_LL.c **** 
 446:Generated_Source\PSoC4/CapSense_SensingCSD_LL.c **** /*******************************************************************************
 447:Generated_Source\PSoC4/CapSense_SensingCSD_LL.c **** * Function Name: CapSense_SsCSDInitialize
 448:Generated_Source\PSoC4/CapSense_SensingCSD_LL.c **** ****************************************************************************//**
 449:Generated_Source\PSoC4/CapSense_SensingCSD_LL.c **** *
 450:Generated_Source\PSoC4/CapSense_SensingCSD_LL.c **** * \brief
 451:Generated_Source\PSoC4/CapSense_SensingCSD_LL.c **** *   This API initializes the CSD module.
 452:Generated_Source\PSoC4/CapSense_SensingCSD_LL.c **** *
 453:Generated_Source\PSoC4/CapSense_SensingCSD_LL.c **** * \details
 454:Generated_Source\PSoC4/CapSense_SensingCSD_LL.c **** *   The function performs the following steps for Fourth-generation HW block:
 455:Generated_Source\PSoC4/CapSense_SensingCSD_LL.c **** *   1) Sets GPIO output to "0" for all sensor pins;
 456:Generated_Source\PSoC4/CapSense_SensingCSD_LL.c **** *   2) Connects CMOD to AMUXBUS-A and to CSDBUS-A;
 457:Generated_Source\PSoC4/CapSense_SensingCSD_LL.c **** *   3) Connects CMOD to (sense path) to CSDCOMP;
 458:Generated_Source\PSoC4/CapSense_SensingCSD_LL.c **** *   4) Connects Csh_tank to AMUXBUS-B and to CSDBUS-B;
 459:Generated_Source\PSoC4/CapSense_SensingCSD_LL.c **** *   5) Connects VREF to REFGEN;
 460:Generated_Source\PSoC4/CapSense_SensingCSD_LL.c **** *   6) Configures REFGEN and sets the reference voltage;
 461:Generated_Source\PSoC4/CapSense_SensingCSD_LL.c **** *   7) Connects VREF to CSDCOMP and HSCOMP;
 462:Generated_Source\PSoC4/CapSense_SensingCSD_LL.c **** *   8) Configures IDAC and connect to CSDBUS-A (to drive CMOD);
 463:Generated_Source\PSoC4/CapSense_SensingCSD_LL.c **** *   9) Configures ModClk;
 464:Generated_Source\PSoC4/CapSense_SensingCSD_LL.c **** *   10) Configure SnsClk source;
 465:Generated_Source\PSoC4/CapSense_SensingCSD_LL.c **** *   11) Sets other CSD configurations (Csd Auto Zero time,
 466:Generated_Source\PSoC4/CapSense_SensingCSD_LL.c **** *       Sample Init period, interrupts,
 467:Generated_Source\PSoC4/CapSense_SensingCSD_LL.c **** *       CMOD and Csh_tank/shield initialization switch resistance).
 468:Generated_Source\PSoC4/CapSense_SensingCSD_LL.c **** *
 469:Generated_Source\PSoC4/CapSense_SensingCSD_LL.c **** *   The function performs the following steps for Third-generation HW block:
 470:Generated_Source\PSoC4/CapSense_SensingCSD_LL.c **** *   1) Sets all the sensors to the inactive state;
 471:Generated_Source\PSoC4/CapSense_SensingCSD_LL.c **** *   2) Enables Shield Electrodes;
 472:Generated_Source\PSoC4/CapSense_SensingCSD_LL.c **** *   3) Configures the CSD block and IDACs;
 473:Generated_Source\PSoC4/CapSense_SensingCSD_LL.c **** *   4) Connects Cmod to AMUXBUS-A;
 474:Generated_Source\PSoC4/CapSense_SensingCSD_LL.c **** *   5) Enables the clocks;
 475:Generated_Source\PSoC4/CapSense_SensingCSD_LL.c **** *   6) Sets the shield delay;
 476:Generated_Source\PSoC4/CapSense_SensingCSD_LL.c **** *   7) Enables the CSD block; connects Vref Buffer to the AMUX bus.
 477:Generated_Source\PSoC4/CapSense_SensingCSD_LL.c **** *
 478:Generated_Source\PSoC4/CapSense_SensingCSD_LL.c **** *******************************************************************************/
 479:Generated_Source\PSoC4/CapSense_SensingCSD_LL.c **** void CapSense_SsCSDInitialize(void)
 480:Generated_Source\PSoC4/CapSense_SensingCSD_LL.c **** {
 481:Generated_Source\PSoC4/CapSense_SensingCSD_LL.c ****     uint32 newRegValue;
 482:Generated_Source\PSoC4/CapSense_SensingCSD_LL.c **** 
 483:Generated_Source\PSoC4/CapSense_SensingCSD_LL.c ****     /* Set all the sensors to inactive state */
 484:Generated_Source\PSoC4/CapSense_SensingCSD_LL.c ****     CapSense_SsClearCSDSensors();
 485:Generated_Source\PSoC4/CapSense_SensingCSD_LL.c **** 
 486:Generated_Source\PSoC4/CapSense_SensingCSD_LL.c ****     #if (CapSense_ENABLE == CapSense_CSDV2)
 487:Generated_Source\PSoC4/CapSense_SensingCSD_LL.c ****         CapSense_BistDischargeExtCapacitors();
 488:Generated_Source\PSoC4/CapSense_SensingCSD_LL.c ****     #endif /* (CapSense_ENABLE == CapSense_CSDV2) */
 489:Generated_Source\PSoC4/CapSense_SensingCSD_LL.c ****     
 490:Generated_Source\PSoC4/CapSense_SensingCSD_LL.c ****     #if (CapSense_ENABLE == CapSense_CSD_SHIELD_EN)
 491:Generated_Source\PSoC4/CapSense_SensingCSD_LL.c ****         /* Connect shields to AMUX-B bus (config HSIOM regs) */
 492:Generated_Source\PSoC4/CapSense_SensingCSD_LL.c ****         #if (0u != CapSense_CSD_TOTAL_SHIELD_COUNT)
ARM GAS  C:\Users\220036~1\AppData\Local\Temp\cccwt0mM.s 			page 15


 493:Generated_Source\PSoC4/CapSense_SensingCSD_LL.c ****             CapSense_SsCSDEnableShieldElectrodes();
 494:Generated_Source\PSoC4/CapSense_SensingCSD_LL.c ****         #endif /* (0u != CapSense_CSD_TOTAL_SHIELD_COUNT) */
 495:Generated_Source\PSoC4/CapSense_SensingCSD_LL.c **** 
 496:Generated_Source\PSoC4/CapSense_SensingCSD_LL.c ****         #if (CapSense_ENABLE == CapSense_CSD_SHIELD_TANK_EN)
 497:Generated_Source\PSoC4/CapSense_SensingCSD_LL.c ****             /* Configure Csh */
 498:Generated_Source\PSoC4/CapSense_SensingCSD_LL.c ****             CapSense_SsCSDEnableShieldTank();
 499:Generated_Source\PSoC4/CapSense_SensingCSD_LL.c ****         #endif /* (CapSense_ENABLE == CapSense_CSD_SHIELD_TANK_EN) */
 500:Generated_Source\PSoC4/CapSense_SensingCSD_LL.c ****     #endif /* (CapSense_ENABLE == CapSense_CSD_SHIELD_EN) */
 501:Generated_Source\PSoC4/CapSense_SensingCSD_LL.c **** 
 502:Generated_Source\PSoC4/CapSense_SensingCSD_LL.c ****     #if (CapSense_ENABLE == CapSense_CSDV2)
 503:Generated_Source\PSoC4/CapSense_SensingCSD_LL.c **** 
 504:Generated_Source\PSoC4/CapSense_SensingCSD_LL.c ****         /* Initialize the unused CSD registers to defaut state */
 505:Generated_Source\PSoC4/CapSense_SensingCSD_LL.c ****         CY_SET_REG32(CapSense_SENSE_DUTY_PTR,       CapSense_DEFAULT_SENSE_DUTY_SEL);
 506:Generated_Source\PSoC4/CapSense_SensingCSD_LL.c **** 
 507:Generated_Source\PSoC4/CapSense_SensingCSD_LL.c ****         /* Configure VREF */
 508:Generated_Source\PSoC4/CapSense_SensingCSD_LL.c ****         newRegValue = CY_GET_REG32(CapSense_SW_REFGEN_SEL_PTR);
 509:Generated_Source\PSoC4/CapSense_SensingCSD_LL.c ****         newRegValue |= CapSense_DEFAULT_SW_REFGEN_SEL;
 510:Generated_Source\PSoC4/CapSense_SensingCSD_LL.c **** 
 511:Generated_Source\PSoC4/CapSense_SensingCSD_LL.c ****         CY_SET_REG32(CapSense_SW_REFGEN_SEL_PTR, newRegValue);
 512:Generated_Source\PSoC4/CapSense_SensingCSD_LL.c ****         CY_SET_REG32(CapSense_INTR_SET_PTR,         CapSense_DEFAULT_CSD_INTR_SET);
 513:Generated_Source\PSoC4/CapSense_SensingCSD_LL.c ****         CY_SET_REG32(CapSense_SW_FW_TANK_SEL_PTR,   CapSense_DEFAULT_CSD_SW_FW_TANK_SEL);
 514:Generated_Source\PSoC4/CapSense_SensingCSD_LL.c ****         CY_SET_REG32(CapSense_SW_DSI_SEL_PTR,       CapSense_DEFAULT_CSD_SW_DSI_SEL);
 515:Generated_Source\PSoC4/CapSense_SensingCSD_LL.c ****         CY_SET_REG32(CapSense_ADC_CTL_PTR,          CapSense_DEFAULT_CSD_ADC_CTL);
 516:Generated_Source\PSoC4/CapSense_SensingCSD_LL.c ****         CY_SET_REG32(CapSense_AMBUF_PTR,            CapSense_AMBUF_PWR_MODE_OFF);
 517:Generated_Source\PSoC4/CapSense_SensingCSD_LL.c ****         CY_SET_REG32(CapSense_SW_SHIELD_SEL_PTR,    CapSense_DEFAULT_SW_SHIELD_SEL);
 518:Generated_Source\PSoC4/CapSense_SensingCSD_LL.c ****         CY_SET_REG32(CapSense_SW_HS_P_SEL_PTR,      CapSense_DEFAULT_SW_HS_P_SEL);
 519:Generated_Source\PSoC4/CapSense_SensingCSD_LL.c ****         CY_SET_REG32(CapSense_SW_HS_N_SEL_PTR,      CapSense_DEFAULT_SW_HS_N_SEL);
 520:Generated_Source\PSoC4/CapSense_SensingCSD_LL.c ****         CY_SET_REG32(CapSense_HSCMP_PTR,            CapSense_DEFAULT_HSCMP_CFG);
 521:Generated_Source\PSoC4/CapSense_SensingCSD_LL.c **** 
 522:Generated_Source\PSoC4/CapSense_SensingCSD_LL.c ****         /* Connect CMOD to AMUXBUS-A */
 523:Generated_Source\PSoC4/CapSense_SensingCSD_LL.c ****         newRegValue = CY_GET_REG32(CapSense_CMOD_HSIOM_PTR);
 524:Generated_Source\PSoC4/CapSense_SensingCSD_LL.c ****         newRegValue &= (uint32)(~(uint32)CapSense_CMOD_HSIOM_MASK);
 525:Generated_Source\PSoC4/CapSense_SensingCSD_LL.c ****         newRegValue |= (CapSense_HSIOM_SEL_AMUXA << CapSense_CMOD_HSIOM_SHIFT);
 526:Generated_Source\PSoC4/CapSense_SensingCSD_LL.c ****         CY_SET_REG32(CapSense_CMOD_HSIOM_PTR, newRegValue);
 527:Generated_Source\PSoC4/CapSense_SensingCSD_LL.c **** 
 528:Generated_Source\PSoC4/CapSense_SensingCSD_LL.c ****         /* Connect AMUXBUS-A to CSDBUS-A */
 529:Generated_Source\PSoC4/CapSense_SensingCSD_LL.c ****         newRegValue = CY_GET_REG32(CapSense_SW_BYP_SEL_PTR);
 530:Generated_Source\PSoC4/CapSense_SensingCSD_LL.c ****         newRegValue |= CapSense_SW_BYP_SEL_SW_BYA_MASK;
 531:Generated_Source\PSoC4/CapSense_SensingCSD_LL.c ****         CY_SET_REG32(CapSense_SW_BYP_SEL_PTR, newRegValue);
 532:Generated_Source\PSoC4/CapSense_SensingCSD_LL.c **** 
 533:Generated_Source\PSoC4/CapSense_SensingCSD_LL.c ****         /* Connect CMOD to (sense path) to CSDCOMP */
 534:Generated_Source\PSoC4/CapSense_SensingCSD_LL.c ****         #if (CapSense_CSD__CMOD_PAD == CapSense_CMOD_CONNECTION)
 535:Generated_Source\PSoC4/CapSense_SensingCSD_LL.c ****             CY_SET_REG32(CapSense_SW_CMP_P_SEL_PTR, CapSense_SW_CMP_P_SEL_SW_SFPM_STATIC_CLOSE);
 536:Generated_Source\PSoC4/CapSense_SensingCSD_LL.c ****         #elif (CapSense_CSD__CSHIELD_PAD == CapSense_CMOD_CONNECTION)
 537:Generated_Source\PSoC4/CapSense_SensingCSD_LL.c ****             CY_SET_REG32(CapSense_SW_CMP_P_SEL_PTR, CapSense_SW_CMP_P_SEL_SW_SFPS_STATIC_CLOSE);
 538:Generated_Source\PSoC4/CapSense_SensingCSD_LL.c ****         #else
 539:Generated_Source\PSoC4/CapSense_SensingCSD_LL.c ****             CY_SET_REG32(CapSense_SW_CMP_P_SEL_PTR, CapSense_SW_CMP_P_SEL_SW_SFPT_STATIC_CLOSE);
 540:Generated_Source\PSoC4/CapSense_SensingCSD_LL.c ****         #endif /* (CapSense_CSD__CMOD_PAD == CapSense_CMOD_CONNECTION) */
 541:Generated_Source\PSoC4/CapSense_SensingCSD_LL.c **** 
 542:Generated_Source\PSoC4/CapSense_SensingCSD_LL.c ****         /* Configure shield driving path */
 543:Generated_Source\PSoC4/CapSense_SensingCSD_LL.c ****         #if (CapSense_ENABLE == CapSense_CSD_SHIELD_EN)
 544:Generated_Source\PSoC4/CapSense_SensingCSD_LL.c ****             /* Connect AMUXBUS-B to CSDBUS-B (and AMUXBUS-A to CSDBUS-A ) */
 545:Generated_Source\PSoC4/CapSense_SensingCSD_LL.c ****             CY_SET_REG32(CapSense_SW_BYP_SEL_PTR, CapSense_SW_BYP_SEL_SW_BYA_MASK | CapSense_SW_BYP
 546:Generated_Source\PSoC4/CapSense_SensingCSD_LL.c **** 
 547:Generated_Source\PSoC4/CapSense_SensingCSD_LL.c ****         /* Connect AMUXBUS-B to HSCMP positive input */
 548:Generated_Source\PSoC4/CapSense_SensingCSD_LL.c ****         CY_SET_REG32(CapSense_SW_HS_P_SEL_PTR, 0x00000000uL);
 549:Generated_Source\PSoC4/CapSense_SensingCSD_LL.c ****     #endif /* (CapSense_ENABLE == CapSense_CSD_SHIELD_EN) */
ARM GAS  C:\Users\220036~1\AppData\Local\Temp\cccwt0mM.s 			page 16


 550:Generated_Source\PSoC4/CapSense_SensingCSD_LL.c **** 
 551:Generated_Source\PSoC4/CapSense_SensingCSD_LL.c ****         /* Configure VREF */
 552:Generated_Source\PSoC4/CapSense_SensingCSD_LL.c ****         #if (CapSense_ENABLE == CapSense_CSD_IDAC_COMP_EN) && (CapSense_ENABLE == CapSense_CSD_DEDI
 553:Generated_Source\PSoC4/CapSense_SensingCSD_LL.c ****             /* Connect VREF to REFGEN. Connect IDACB to CSDBUSA */
 554:Generated_Source\PSoC4/CapSense_SensingCSD_LL.c ****             newRegValue = CY_GET_REG32(CapSense_SW_REFGEN_SEL_PTR);
 555:Generated_Source\PSoC4/CapSense_SensingCSD_LL.c ****             newRegValue |= CapSense_SW_REFGEN_SEL_SW_SGR_MASK | CapSense_SW_REFGEN_SEL_SW_IAIB_MASK
 556:Generated_Source\PSoC4/CapSense_SensingCSD_LL.c ****             CY_SET_REG32(CapSense_SW_REFGEN_SEL_PTR, newRegValue);
 557:Generated_Source\PSoC4/CapSense_SensingCSD_LL.c ****         #else
 558:Generated_Source\PSoC4/CapSense_SensingCSD_LL.c ****             /* Connect VREF to REFGEN (IAIB switch is open) */
 559:Generated_Source\PSoC4/CapSense_SensingCSD_LL.c ****             newRegValue = CY_GET_REG32(CapSense_SW_REFGEN_SEL_PTR);
 560:Generated_Source\PSoC4/CapSense_SensingCSD_LL.c ****             newRegValue |= CapSense_SW_REFGEN_SEL_SW_SGR_MASK;
 561:Generated_Source\PSoC4/CapSense_SensingCSD_LL.c ****             CY_SET_REG32(CapSense_SW_REFGEN_SEL_PTR, newRegValue);
 562:Generated_Source\PSoC4/CapSense_SensingCSD_LL.c ****         #endif /* (CapSense_ENABLE == CapSense_CSD_IDAC_COMP_EN) && (CapSense_ENABLE == CapSense_CS
 563:Generated_Source\PSoC4/CapSense_SensingCSD_LL.c **** 
 564:Generated_Source\PSoC4/CapSense_SensingCSD_LL.c ****     #if (CapSense_2000_MV > CapSense_CYDEV_VDDA_MV)
 565:Generated_Source\PSoC4/CapSense_SensingCSD_LL.c **** 
 566:Generated_Source\PSoC4/CapSense_SensingCSD_LL.c ****         /* Connect VREFLOW (from AMBUF and RefGen is in bypass mode) to CSDCOMP when Vdda < 2 V */
 567:Generated_Source\PSoC4/CapSense_SensingCSD_LL.c ****         CY_SET_REG32(CapSense_SW_CMP_N_SEL_PTR, CapSense_SW_CMP_N_SEL_SW_SCRH_STATIC_CLOSE);
 568:Generated_Source\PSoC4/CapSense_SensingCSD_LL.c **** 
 569:Generated_Source\PSoC4/CapSense_SensingCSD_LL.c ****         /* Configure REFGEN. Set reference voltage when Vdda < 2 V */
 570:Generated_Source\PSoC4/CapSense_SensingCSD_LL.c ****         CY_SET_REG32(CapSense_REFGEN_PTR, CapSense_REFGEN_LV);
 571:Generated_Source\PSoC4/CapSense_SensingCSD_LL.c **** 
 572:Generated_Source\PSoC4/CapSense_SensingCSD_LL.c ****         /* Connect Vrefhi to AMUBUF positive input when Vdaa < 2V
 573:Generated_Source\PSoC4/CapSense_SensingCSD_LL.c ****          *  Connect AMUBUF to SCDCMP negative input when Vdaa < 2V
 574:Generated_Source\PSoC4/CapSense_SensingCSD_LL.c ****          */
 575:Generated_Source\PSoC4/CapSense_SensingCSD_LL.c ****         #if (CapSense_ENABLE == CapSense_CSD_SHIELD_EN)
 576:Generated_Source\PSoC4/CapSense_SensingCSD_LL.c ****             #if (CapSense_IDAC_SINKING == CapSense_CSD_IDAC_CONFIG)
 577:Generated_Source\PSoC4/CapSense_SensingCSD_LL.c ****                 CY_SET_REG32(CapSense_SW_AMUXBUF_SEL_PTR, CapSense_SW_AMUXBUF_SEL_SW_IRH_STATIC_CLO
 578:Generated_Source\PSoC4/CapSense_SensingCSD_LL.c ****                                                                       CapSense_SW_AMUXBUF_SEL_SW_IC
 579:Generated_Source\PSoC4/CapSense_SensingCSD_LL.c ****             #else
 580:Generated_Source\PSoC4/CapSense_SensingCSD_LL.c ****                 CY_SET_REG32(CapSense_SW_AMUXBUF_SEL_PTR, CapSense_SW_AMUXBUF_SEL_SW_DEFAULT);
 581:Generated_Source\PSoC4/CapSense_SensingCSD_LL.c ****             #endif /* (CapSense_ENABLE == CapSense_CSD_SHIELD_EN) */
 582:Generated_Source\PSoC4/CapSense_SensingCSD_LL.c ****             CY_SET_REG32(CapSense_AMBUF_PTR, CapSense_AMBUF_PWR_MODE_NORM);
 583:Generated_Source\PSoC4/CapSense_SensingCSD_LL.c ****         #else
 584:Generated_Source\PSoC4/CapSense_SensingCSD_LL.c ****             CY_SET_REG32(CapSense_AMBUF_PTR, CapSense_AMBUF_PWR_MODE_OFF);
 585:Generated_Source\PSoC4/CapSense_SensingCSD_LL.c ****         #endif /* (CapSense_ENABLE == CapSense_CSD_SHIELD_EN) */
 586:Generated_Source\PSoC4/CapSense_SensingCSD_LL.c **** 
 587:Generated_Source\PSoC4/CapSense_SensingCSD_LL.c ****         /* Connect VREFHI to HSCOMP */
 588:Generated_Source\PSoC4/CapSense_SensingCSD_LL.c ****         CY_SET_REG32(CapSense_SW_HS_N_SEL_PTR, CapSense_SW_HS_N_SEL_SW_HCRH_STATIC_CLOSE);
 589:Generated_Source\PSoC4/CapSense_SensingCSD_LL.c ****     #else
 590:Generated_Source\PSoC4/CapSense_SensingCSD_LL.c **** 
 591:Generated_Source\PSoC4/CapSense_SensingCSD_LL.c ****         /* Connect VREFHI (from RefGen) to CSDCOMP when Vdda >= 2 V */
 592:Generated_Source\PSoC4/CapSense_SensingCSD_LL.c ****         CY_SET_REG32(CapSense_SW_CMP_N_SEL_PTR, CapSense_SW_CMP_N_SEL_SW_SCRH_STATIC_CLOSE);
 593:Generated_Source\PSoC4/CapSense_SensingCSD_LL.c **** 
 594:Generated_Source\PSoC4/CapSense_SensingCSD_LL.c ****         /* Configure REFGEN. Set reference voltage when Vdda >= 2 V */
 595:Generated_Source\PSoC4/CapSense_SensingCSD_LL.c ****         CY_SET_REG32(CapSense_REFGEN_PTR, CapSense_REFGEN_HV);
 596:Generated_Source\PSoC4/CapSense_SensingCSD_LL.c **** 
 597:Generated_Source\PSoC4/CapSense_SensingCSD_LL.c ****         #if (CapSense_ENABLE == CapSense_CSD_SHIELD_EN)
 598:Generated_Source\PSoC4/CapSense_SensingCSD_LL.c ****             /* Turn on CSD_AMBUF high power level when Vdaa >= 2V */
 599:Generated_Source\PSoC4/CapSense_SensingCSD_LL.c ****             CY_SET_REG32(CapSense_AMBUF_PTR, CapSense_AMBUF_PWR_MODE_HI);
 600:Generated_Source\PSoC4/CapSense_SensingCSD_LL.c **** 
 601:Generated_Source\PSoC4/CapSense_SensingCSD_LL.c ****             #if (CapSense_IDAC_SINKING != CapSense_CSD_IDAC_CONFIG)
 602:Generated_Source\PSoC4/CapSense_SensingCSD_LL.c ****                 CY_SET_REG32(CapSense_SW_AMUXBUF_SEL_PTR, CapSense_SW_AMUXBUF_SEL_SW_IRH_STATIC_CLO
 603:Generated_Source\PSoC4/CapSense_SensingCSD_LL.c ****                                                                       CapSense_SW_AMUXBUF_SEL_SW_IC
 604:Generated_Source\PSoC4/CapSense_SensingCSD_LL.c ****             #else
 605:Generated_Source\PSoC4/CapSense_SensingCSD_LL.c ****                 CY_SET_REG32(CapSense_SW_AMUXBUF_SEL_PTR, CapSense_SW_AMUXBUF_SEL_SW_DEFAULT);
 606:Generated_Source\PSoC4/CapSense_SensingCSD_LL.c ****             #endif /* (CapSense_IDAC_SINKING == CapSense_CSD_IDAC_CONFIG) */
ARM GAS  C:\Users\220036~1\AppData\Local\Temp\cccwt0mM.s 			page 17


 607:Generated_Source\PSoC4/CapSense_SensingCSD_LL.c ****         #else
 608:Generated_Source\PSoC4/CapSense_SensingCSD_LL.c ****             CY_SET_REG32(CapSense_SW_AMUXBUF_SEL_PTR, CapSense_SW_AMUXBUF_SEL_SW_DEFAULT);
 609:Generated_Source\PSoC4/CapSense_SensingCSD_LL.c ****         #endif /* (CapSense_ENABLE == CapSense_CSD_SHIELD_EN) */
 610:Generated_Source\PSoC4/CapSense_SensingCSD_LL.c **** 
 611:Generated_Source\PSoC4/CapSense_SensingCSD_LL.c ****         /* Connect VREFHI to HSCOMP */
 612:Generated_Source\PSoC4/CapSense_SensingCSD_LL.c ****         CY_SET_REG32(CapSense_SW_HS_N_SEL_PTR, CapSense_SW_HS_N_SEL_SW_HCRH_STATIC_CLOSE);
 613:Generated_Source\PSoC4/CapSense_SensingCSD_LL.c ****     #endif /* (CapSense_2000_MV > CapSense_CYDEV_VDDA_MV) */
 614:Generated_Source\PSoC4/CapSense_SensingCSD_LL.c **** 
 615:Generated_Source\PSoC4/CapSense_SensingCSD_LL.c ****     /* Configure IDACs mode */
 616:Generated_Source\PSoC4/CapSense_SensingCSD_LL.c ****     CapSense_SsCSDConfigIDACs();
 617:Generated_Source\PSoC4/CapSense_SensingCSD_LL.c **** 
 618:Generated_Source\PSoC4/CapSense_SensingCSD_LL.c ****         /* Configure ModClk */
 619:Generated_Source\PSoC4/CapSense_SensingCSD_LL.c ****         CapSense_SsSetModClkClockDivider((uint32)CapSense_dsRam.modCsdClk);
 620:Generated_Source\PSoC4/CapSense_SensingCSD_LL.c **** 
 621:Generated_Source\PSoC4/CapSense_SensingCSD_LL.c ****     /* Set other CSD configurations */
 622:Generated_Source\PSoC4/CapSense_SensingCSD_LL.c ****     #if (CapSense_ENABLE == CapSense_CSD_SHIELD_EN)
 623:Generated_Source\PSoC4/CapSense_SensingCSD_LL.c ****         CapSense_SsSetShieldDelay(CapSense_CSD_SHIELD_DELAY);
 624:Generated_Source\PSoC4/CapSense_SensingCSD_LL.c ****     #endif /* (CapSense_ENABLE == CapSense_CSD_SHIELD_EN) */
 625:Generated_Source\PSoC4/CapSense_SensingCSD_LL.c **** 
 626:Generated_Source\PSoC4/CapSense_SensingCSD_LL.c ****     /* Configure HW block filter delay */
 627:Generated_Source\PSoC4/CapSense_SensingCSD_LL.c ****     CapSense_SsCSDSetFilterDelay();
 628:Generated_Source\PSoC4/CapSense_SensingCSD_LL.c **** 
 629:Generated_Source\PSoC4/CapSense_SensingCSD_LL.c ****     #if (CapSense_DISABLE == CapSense_BLOCK_OFF_AFTER_SCAN_EN)
 630:Generated_Source\PSoC4/CapSense_SensingCSD_LL.c ****         /* Enable power to sub-blocks */
 631:Generated_Source\PSoC4/CapSense_SensingCSD_LL.c ****         CY_SET_REG32(CapSense_CONFIG_PTR, CapSense_configCsd |
 632:Generated_Source\PSoC4/CapSense_SensingCSD_LL.c ****                                                   CapSense_CONFIG_SENSE_EN_MASK |
 633:Generated_Source\PSoC4/CapSense_SensingCSD_LL.c ****                                                   CapSense_CONFIG_ENABLE_MASK);
 634:Generated_Source\PSoC4/CapSense_SensingCSD_LL.c ****     #endif /* (CapSense_ENABLE == CapSense_BLOCK_OFF_AFTER_SCAN_EN) */
 635:Generated_Source\PSoC4/CapSense_SensingCSD_LL.c **** 
 636:Generated_Source\PSoC4/CapSense_SensingCSD_LL.c ****         /* Set Csd Auto Zero time (set AZ_TIME bitmask) */
 637:Generated_Source\PSoC4/CapSense_SensingCSD_LL.c ****         CY_SET_REG32(CapSense_SEQ_TIME_PTR, CapSense_CSD_AUTO_ZERO_TIME);
 638:Generated_Source\PSoC4/CapSense_SensingCSD_LL.c **** 
 639:Generated_Source\PSoC4/CapSense_SensingCSD_LL.c ****         /* Select CMOD and Csh_tank/shield initialization switch resistance */
 640:Generated_Source\PSoC4/CapSense_SensingCSD_LL.c ****         CY_SET_REG32(CapSense_SW_RES_PTR, 0x00000000);
 641:Generated_Source\PSoC4/CapSense_SensingCSD_LL.c **** 
 642:Generated_Source\PSoC4/CapSense_SensingCSD_LL.c ****         /* Set the number of dummy fine initialization cycles */
 643:Generated_Source\PSoC4/CapSense_SensingCSD_LL.c ****         CY_SET_REG32(CapSense_SEQ_INIT_CNT_PTR, CapSense_CSD_FINE_INIT_TIME);
 644:Generated_Source\PSoC4/CapSense_SensingCSD_LL.c ****     #endif /* (CapSense_ENABLE == CapSense_CSDV2) */
 645:Generated_Source\PSoC4/CapSense_SensingCSD_LL.c **** 
 646:Generated_Source\PSoC4/CapSense_SensingCSD_LL.c ****     #if (CapSense_DISABLE == CapSense_CSDV2)
 647:Generated_Source\PSoC4/CapSense_SensingCSD_LL.c **** 
 648:Generated_Source\PSoC4/CapSense_SensingCSD_LL.c ****         /* Configure IDACs mode */
 649:Generated_Source\PSoC4/CapSense_SensingCSD_LL.c ****         CapSense_SsCSDConfigIDACs();
 650:Generated_Source\PSoC4/CapSense_SensingCSD_LL.c **** 
 651:Generated_Source\PSoC4/CapSense_SensingCSD_LL.c ****         /* Connect Cmod to AMUXBUS-A using HSIOM registers */
 652:Generated_Source\PSoC4/CapSense_SensingCSD_LL.c ****         newRegValue = CY_GET_REG32(CapSense_CMOD_HSIOM_PTR);
 653:Generated_Source\PSoC4/CapSense_SensingCSD_LL.c ****         newRegValue &= (uint32)(~(uint32)CapSense_CMOD_HSIOM_MASK);
 654:Generated_Source\PSoC4/CapSense_SensingCSD_LL.c ****         newRegValue |= (CapSense_HSIOM_SEL_AMUXA << CapSense_CMOD_HSIOM_SHIFT);
 655:Generated_Source\PSoC4/CapSense_SensingCSD_LL.c ****         CY_SET_REG32(CapSense_CMOD_HSIOM_PTR, newRegValue);
 656:Generated_Source\PSoC4/CapSense_SensingCSD_LL.c **** 
 657:Generated_Source\PSoC4/CapSense_SensingCSD_LL.c ****         #if (CapSense_ENABLE == CapSense_CSD_SHIELD_EN)
 658:Generated_Source\PSoC4/CapSense_SensingCSD_LL.c ****             CapSense_SsSetShieldDelay(CapSense_CSD_SHIELD_DELAY);
 659:Generated_Source\PSoC4/CapSense_SensingCSD_LL.c ****         #endif /* (CapSense_ENABLE == CapSense_CSD_SHIELD_EN) */
 660:Generated_Source\PSoC4/CapSense_SensingCSD_LL.c **** 
 661:Generated_Source\PSoC4/CapSense_SensingCSD_LL.c ****         /* Enable CSD block. Connect Vref Buffer to AMUX bus to make sure that Cmod is charged befo
 662:Generated_Source\PSoC4/CapSense_SensingCSD_LL.c ****         #if (CapSense_ENABLE == CapSense_BLOCK_OFF_AFTER_SCAN_EN)
 663:Generated_Source\PSoC4/CapSense_SensingCSD_LL.c ****             CY_SET_REG32(CapSense_CONFIG_PTR, CapSense_configCsd);
ARM GAS  C:\Users\220036~1\AppData\Local\Temp\cccwt0mM.s 			page 18


 664:Generated_Source\PSoC4/CapSense_SensingCSD_LL.c ****         #else
 665:Generated_Source\PSoC4/CapSense_SensingCSD_LL.c ****             CY_SET_REG32(CapSense_CONFIG_PTR, CapSense_configCsd | CapSense_CTANK_PRECHARGE_CONFIG_
 666:Generated_Source\PSoC4/CapSense_SensingCSD_LL.c ****         #endif /* (CapSense_ENABLE == CapSense_BLOCK_OFF_AFTER_SCAN_EN) */
 667:Generated_Source\PSoC4/CapSense_SensingCSD_LL.c ****     #endif /* (CapSense_DISABLE == CapSense_CSDV2) */
 668:Generated_Source\PSoC4/CapSense_SensingCSD_LL.c **** 
 669:Generated_Source\PSoC4/CapSense_SensingCSD_LL.c ****     #if ((CapSense_ENABLE == CapSense_CSD_COMMON_SNS_CLK_EN) &&\
 670:Generated_Source\PSoC4/CapSense_SensingCSD_LL.c ****          (CapSense_CLK_SOURCE_DIRECT == CapSense_CSD_SNS_CLK_SOURCE))
 671:Generated_Source\PSoC4/CapSense_SensingCSD_LL.c ****          /* Set clock dividers and clock source mode */
 672:Generated_Source\PSoC4/CapSense_SensingCSD_LL.c ****         CapSense_SsCSDConfigClock();
 673:Generated_Source\PSoC4/CapSense_SensingCSD_LL.c ****     #endif /* ((CapSense_ENABLE == CapSense_CSD_COMMON_SNS_CLK_EN) &&\
 674:Generated_Source\PSoC4/CapSense_SensingCSD_LL.c ****                (CapSense_CLK_SOURCE_DIRECT == CapSense_CSD_SNS_CLK_SOURCE)) */
 675:Generated_Source\PSoC4/CapSense_SensingCSD_LL.c **** }
 676:Generated_Source\PSoC4/CapSense_SensingCSD_LL.c **** 
 677:Generated_Source\PSoC4/CapSense_SensingCSD_LL.c **** 
 678:Generated_Source\PSoC4/CapSense_SensingCSD_LL.c **** /*******************************************************************************
 679:Generated_Source\PSoC4/CapSense_SensingCSD_LL.c **** * Function Name: CapSense_SsCSDElectrodeCheck
 680:Generated_Source\PSoC4/CapSense_SensingCSD_LL.c **** ****************************************************************************//**
 681:Generated_Source\PSoC4/CapSense_SensingCSD_LL.c **** *
 682:Generated_Source\PSoC4/CapSense_SensingCSD_LL.c **** * \brief
 683:Generated_Source\PSoC4/CapSense_SensingCSD_LL.c **** *   Checks if electrodes were previously connected using
 684:Generated_Source\PSoC4/CapSense_SensingCSD_LL.c ****  * CapSense_CSDSetupWidgetExt() API and if yes disconnects them.
 685:Generated_Source\PSoC4/CapSense_SensingCSD_LL.c **** *
 686:Generated_Source\PSoC4/CapSense_SensingCSD_LL.c **** * \details
 687:Generated_Source\PSoC4/CapSense_SensingCSD_LL.c **** *   This function checks if CapSense_eleCsdDisconnectFlag is set.
 688:Generated_Source\PSoC4/CapSense_SensingCSD_LL.c **** *   If it set, the function disconnects the previously connected electrode.
 689:Generated_Source\PSoC4/CapSense_SensingCSD_LL.c **** *   The previous IO is contained in CapSense_curSnsIOPtr and
 690:Generated_Source\PSoC4/CapSense_SensingCSD_LL.c **** *   CapSense_curFlashSnsPtr contains the previous data for Ganged
 691:Generated_Source\PSoC4/CapSense_SensingCSD_LL.c **** *   sensors.
 692:Generated_Source\PSoC4/CapSense_SensingCSD_LL.c **** *
 693:Generated_Source\PSoC4/CapSense_SensingCSD_LL.c **** *******************************************************************************/
 694:Generated_Source\PSoC4/CapSense_SensingCSD_LL.c **** void CapSense_SsCSDElectrodeCheck(void)
 695:Generated_Source\PSoC4/CapSense_SensingCSD_LL.c **** {
 696:Generated_Source\PSoC4/CapSense_SensingCSD_LL.c ****     #if (CapSense_ENABLE == CapSense_CSD_GANGED_SNS_EN)
 697:Generated_Source\PSoC4/CapSense_SensingCSD_LL.c ****         uint32 tempVal;
 698:Generated_Source\PSoC4/CapSense_SensingCSD_LL.c ****     #endif /* (CapSense_ENABLE == CapSense_CSD_GANGED_SNS_EN) */
 699:Generated_Source\PSoC4/CapSense_SensingCSD_LL.c **** 
 700:Generated_Source\PSoC4/CapSense_SensingCSD_LL.c ****     if (CapSense_ENABLE == CapSense_eleCsdDisconnectFlag)
 701:Generated_Source\PSoC4/CapSense_SensingCSD_LL.c ****     {
 702:Generated_Source\PSoC4/CapSense_SensingCSD_LL.c ****         /* Disconnect if electrodes were previous connected by CSDSetupWidgetExt() API */
 703:Generated_Source\PSoC4/CapSense_SensingCSD_LL.c ****         #if (CapSense_ENABLE == CapSense_CSD_GANGED_SNS_EN)
 704:Generated_Source\PSoC4/CapSense_SensingCSD_LL.c ****             /* Check ganged sns flag  */
 705:Generated_Source\PSoC4/CapSense_SensingCSD_LL.c ****             if (CapSense_GANGED_SNS_MASK == (CapSense_curFlashWdgtPtr->staticConfig & CapSense_GANG
 706:Generated_Source\PSoC4/CapSense_SensingCSD_LL.c ****             {
 707:Generated_Source\PSoC4/CapSense_SensingCSD_LL.c ****                 /* Get number of ganged pins */
 708:Generated_Source\PSoC4/CapSense_SensingCSD_LL.c ****                 tempVal = CapSense_curFlashSnsPtr->numPins;
 709:Generated_Source\PSoC4/CapSense_SensingCSD_LL.c **** 
 710:Generated_Source\PSoC4/CapSense_SensingCSD_LL.c ****                 /* Get IO pointer  */
 711:Generated_Source\PSoC4/CapSense_SensingCSD_LL.c ****                 CapSense_curSnsIOPtr = &CapSense_ioList[CapSense_curFlashSnsPtr->firstPinId];
 712:Generated_Source\PSoC4/CapSense_SensingCSD_LL.c **** 
 713:Generated_Source\PSoC4/CapSense_SensingCSD_LL.c ****                 /* Disconnect all ganged sensors */
 714:Generated_Source\PSoC4/CapSense_SensingCSD_LL.c ****                 do
 715:Generated_Source\PSoC4/CapSense_SensingCSD_LL.c ****                 {
 716:Generated_Source\PSoC4/CapSense_SensingCSD_LL.c ****                     CapSense_CSDDisconnectSns(CapSense_curSnsIOPtr);
 717:Generated_Source\PSoC4/CapSense_SensingCSD_LL.c ****                     CapSense_curSnsIOPtr++;
 718:Generated_Source\PSoC4/CapSense_SensingCSD_LL.c ****                     tempVal--;
 719:Generated_Source\PSoC4/CapSense_SensingCSD_LL.c ****                 } while (0u != tempVal);
 720:Generated_Source\PSoC4/CapSense_SensingCSD_LL.c ****             }
ARM GAS  C:\Users\220036~1\AppData\Local\Temp\cccwt0mM.s 			page 19


 721:Generated_Source\PSoC4/CapSense_SensingCSD_LL.c ****             else
 722:Generated_Source\PSoC4/CapSense_SensingCSD_LL.c ****             {
 723:Generated_Source\PSoC4/CapSense_SensingCSD_LL.c ****                 /* Disconnect ganged sensor */
 724:Generated_Source\PSoC4/CapSense_SensingCSD_LL.c ****                 CapSense_CSDDisconnectSns(CapSense_curSnsIOPtr);
 725:Generated_Source\PSoC4/CapSense_SensingCSD_LL.c ****             }
 726:Generated_Source\PSoC4/CapSense_SensingCSD_LL.c ****         #else
 727:Generated_Source\PSoC4/CapSense_SensingCSD_LL.c ****             /* Disable sensor */
 728:Generated_Source\PSoC4/CapSense_SensingCSD_LL.c ****             CapSense_CSDDisconnectSns(CapSense_curSnsIOPtr);
 729:Generated_Source\PSoC4/CapSense_SensingCSD_LL.c ****         #endif /* (CapSense_ENABLE == CapSense_CSD_GANGED_SNS_EN)  */
 730:Generated_Source\PSoC4/CapSense_SensingCSD_LL.c **** 
 731:Generated_Source\PSoC4/CapSense_SensingCSD_LL.c ****         CapSense_eleCsdDisconnectFlag = 0u;
 732:Generated_Source\PSoC4/CapSense_SensingCSD_LL.c ****     }
 733:Generated_Source\PSoC4/CapSense_SensingCSD_LL.c **** }
 734:Generated_Source\PSoC4/CapSense_SensingCSD_LL.c **** 
 735:Generated_Source\PSoC4/CapSense_SensingCSD_LL.c **** 
 736:Generated_Source\PSoC4/CapSense_SensingCSD_LL.c **** /*******************************************************************************
 737:Generated_Source\PSoC4/CapSense_SensingCSD_LL.c **** * Function Name: CapSense_SsCSDSetUpIdacs
 738:Generated_Source\PSoC4/CapSense_SensingCSD_LL.c **** ****************************************************************************//**
 739:Generated_Source\PSoC4/CapSense_SensingCSD_LL.c **** *
 740:Generated_Source\PSoC4/CapSense_SensingCSD_LL.c **** * \brief
 741:Generated_Source\PSoC4/CapSense_SensingCSD_LL.c **** *  This internal function changes the IDACs values.
 742:Generated_Source\PSoC4/CapSense_SensingCSD_LL.c **** *
 743:Generated_Source\PSoC4/CapSense_SensingCSD_LL.c **** * \details
 744:Generated_Source\PSoC4/CapSense_SensingCSD_LL.c **** *  If Compensation IDAC is enabled, it updates two IDACs.
 745:Generated_Source\PSoC4/CapSense_SensingCSD_LL.c **** *  The Modulator IDAC is common for all the sensors of the widget.
 746:Generated_Source\PSoC4/CapSense_SensingCSD_LL.c **** *  The Compensation IDAC is updated for the sensor of the widget which
 747:Generated_Source\PSoC4/CapSense_SensingCSD_LL.c **** *  is available in the RAM_SNS_STRUCT structure.
 748:Generated_Source\PSoC4/CapSense_SensingCSD_LL.c **** *  If the Compensation IDAC is disabled, the function updates the Modulator IDAC
 749:Generated_Source\PSoC4/CapSense_SensingCSD_LL.c **** *  value only in the RAM_WD_BASE_STRUCT structure.
 750:Generated_Source\PSoC4/CapSense_SensingCSD_LL.c **** *
 751:Generated_Source\PSoC4/CapSense_SensingCSD_LL.c **** * \param
 752:Generated_Source\PSoC4/CapSense_SensingCSD_LL.c **** *  ptrWdgt The pointer to the RAM_WD_BASE_STRUCT structure.
 753:Generated_Source\PSoC4/CapSense_SensingCSD_LL.c **** *
 754:Generated_Source\PSoC4/CapSense_SensingCSD_LL.c **** *******************************************************************************/
 755:Generated_Source\PSoC4/CapSense_SensingCSD_LL.c **** void CapSense_SsCSDSetUpIdacs(CapSense_RAM_WD_BASE_STRUCT const *ptrWdgt)
 756:Generated_Source\PSoC4/CapSense_SensingCSD_LL.c **** {
 757:Generated_Source\PSoC4/CapSense_SensingCSD_LL.c **** 
 758:Generated_Source\PSoC4/CapSense_SensingCSD_LL.c ****     uint8 interruptState;
 759:Generated_Source\PSoC4/CapSense_SensingCSD_LL.c **** 
 760:Generated_Source\PSoC4/CapSense_SensingCSD_LL.c **** #if (CapSense_ENABLE == CapSense_CSDV2)
 761:Generated_Source\PSoC4/CapSense_SensingCSD_LL.c ****     uint32 idacARegValue;
 762:Generated_Source\PSoC4/CapSense_SensingCSD_LL.c ****     #if ((CapSense_ENABLE == CapSense_CSD_IDAC_COMP_EN) && \
 763:Generated_Source\PSoC4/CapSense_SensingCSD_LL.c ****          (CapSense_ENABLE == CapSense_CSD_DEDICATED_IDAC_COMP_EN))
 764:Generated_Source\PSoC4/CapSense_SensingCSD_LL.c ****         uint32 idacBRegValue;
 765:Generated_Source\PSoC4/CapSense_SensingCSD_LL.c ****     #endif /* ((CapSense_ENABLE == CapSense_CSD_IDAC_COMP_EN) && \
 766:Generated_Source\PSoC4/CapSense_SensingCSD_LL.c ****                (CapSense_ENABLE == CapSense_CSD_DEDICATED_IDAC_COMP_EN)) */
 767:Generated_Source\PSoC4/CapSense_SensingCSD_LL.c **** 
 768:Generated_Source\PSoC4/CapSense_SensingCSD_LL.c ****     interruptState = CyEnterCriticalSection();
 769:Generated_Source\PSoC4/CapSense_SensingCSD_LL.c **** 
 770:Generated_Source\PSoC4/CapSense_SensingCSD_LL.c ****     /* Get IDACA Value */
 771:Generated_Source\PSoC4/CapSense_SensingCSD_LL.c ****     idacARegValue = CY_GET_REG32(CapSense_IDAC_MOD_PTR);
 772:Generated_Source\PSoC4/CapSense_SensingCSD_LL.c **** 
 773:Generated_Source\PSoC4/CapSense_SensingCSD_LL.c ****     /* Set IDACA Value mask */
 774:Generated_Source\PSoC4/CapSense_SensingCSD_LL.c ****     idacARegValue &= ~(CapSense_IDAC_MOD_VAL_MASK);
 775:Generated_Source\PSoC4/CapSense_SensingCSD_LL.c **** 
 776:Generated_Source\PSoC4/CapSense_SensingCSD_LL.c ****     /* Set IDACA value */
 777:Generated_Source\PSoC4/CapSense_SensingCSD_LL.c ****     #if (CapSense_CSD_MATRIX_WIDGET_EN || CapSense_CSD_TOUCHPAD_WIDGET_EN)
ARM GAS  C:\Users\220036~1\AppData\Local\Temp\cccwt0mM.s 			page 20


 778:Generated_Source\PSoC4/CapSense_SensingCSD_LL.c ****         if (CapSense_dsFlash.wdgtArray[(CapSense_widgetIndex)].numCols <= CapSense_sensorIndex)
 779:Generated_Source\PSoC4/CapSense_SensingCSD_LL.c ****         {
 780:Generated_Source\PSoC4/CapSense_SensingCSD_LL.c ****             idacARegValue |= (uint32)ptrWdgt->rowIdacMod[CapSense_scanFreqIndex];
 781:Generated_Source\PSoC4/CapSense_SensingCSD_LL.c ****         }
 782:Generated_Source\PSoC4/CapSense_SensingCSD_LL.c ****         else
 783:Generated_Source\PSoC4/CapSense_SensingCSD_LL.c ****         {
 784:Generated_Source\PSoC4/CapSense_SensingCSD_LL.c ****             idacARegValue |= (uint32)ptrWdgt->idacMod[CapSense_scanFreqIndex];
 785:Generated_Source\PSoC4/CapSense_SensingCSD_LL.c ****         }
 786:Generated_Source\PSoC4/CapSense_SensingCSD_LL.c ****     #else
 787:Generated_Source\PSoC4/CapSense_SensingCSD_LL.c ****         idacARegValue |= (uint32)ptrWdgt->idacMod[CapSense_scanFreqIndex];
 788:Generated_Source\PSoC4/CapSense_SensingCSD_LL.c ****     #endif /* (CapSense_CSD_MATRIX_WIDGET_EN | CapSense_CSD_TOUCHPAD_WIDGET_EN) */
 789:Generated_Source\PSoC4/CapSense_SensingCSD_LL.c **** 
 790:Generated_Source\PSoC4/CapSense_SensingCSD_LL.c ****     /* Update IDACA register with new value */
 791:Generated_Source\PSoC4/CapSense_SensingCSD_LL.c ****     CY_SET_REG32(CapSense_IDAC_MOD_PTR, idacARegValue);
 792:Generated_Source\PSoC4/CapSense_SensingCSD_LL.c ****     CyExitCriticalSection(interruptState);
 793:Generated_Source\PSoC4/CapSense_SensingCSD_LL.c **** 
 794:Generated_Source\PSoC4/CapSense_SensingCSD_LL.c ****     #if ((CapSense_ENABLE == CapSense_CSD_IDAC_COMP_EN) && \
 795:Generated_Source\PSoC4/CapSense_SensingCSD_LL.c ****          (CapSense_ENABLE == CapSense_CSD_DEDICATED_IDAC_COMP_EN))
 796:Generated_Source\PSoC4/CapSense_SensingCSD_LL.c ****         interruptState = CyEnterCriticalSection();
 797:Generated_Source\PSoC4/CapSense_SensingCSD_LL.c ****         /* Get IDACB Value */
 798:Generated_Source\PSoC4/CapSense_SensingCSD_LL.c ****         idacBRegValue = CY_GET_REG32(CapSense_IDAC_COMP_PTR);
 799:Generated_Source\PSoC4/CapSense_SensingCSD_LL.c **** 
 800:Generated_Source\PSoC4/CapSense_SensingCSD_LL.c ****         /* Set IDACB Value mask */
 801:Generated_Source\PSoC4/CapSense_SensingCSD_LL.c ****         idacBRegValue &= ~(CapSense_IDAC_COMP_VAL_MASK);
 802:Generated_Source\PSoC4/CapSense_SensingCSD_LL.c **** 
 803:Generated_Source\PSoC4/CapSense_SensingCSD_LL.c ****         /* Set IDACB value */
 804:Generated_Source\PSoC4/CapSense_SensingCSD_LL.c ****         idacBRegValue |= (uint32)CapSense_curRamSnsPtr->idacComp[CapSense_scanFreqIndex];
 805:Generated_Source\PSoC4/CapSense_SensingCSD_LL.c **** 
 806:Generated_Source\PSoC4/CapSense_SensingCSD_LL.c ****         /* Update IDACA register with new value */
 807:Generated_Source\PSoC4/CapSense_SensingCSD_LL.c ****         CY_SET_REG32(CapSense_IDAC_COMP_PTR, idacBRegValue);
 808:Generated_Source\PSoC4/CapSense_SensingCSD_LL.c ****         CyExitCriticalSection(interruptState);
 809:Generated_Source\PSoC4/CapSense_SensingCSD_LL.c ****     #endif /* ((CapSense_ENABLE == CapSense_CSD_IDAC_COMP_EN) && \
 810:Generated_Source\PSoC4/CapSense_SensingCSD_LL.c ****                (CapSense_ENABLE == CapSense_CSD_DEDICATED_IDAC_COMP_EN)) */
 811:Generated_Source\PSoC4/CapSense_SensingCSD_LL.c **** 
 812:Generated_Source\PSoC4/CapSense_SensingCSD_LL.c **** #else
 813:Generated_Source\PSoC4/CapSense_SensingCSD_LL.c **** 
 814:Generated_Source\PSoC4/CapSense_SensingCSD_LL.c ****     uint32 newRegValue;
 815:Generated_Source\PSoC4/CapSense_SensingCSD_LL.c ****     uint8 const *ptrIdacMod = ptrWdgt->idacMod;
 816:Generated_Source\PSoC4/CapSense_SensingCSD_LL.c **** 
 817:Generated_Source\PSoC4/CapSense_SensingCSD_LL.c ****     #if (CapSense_CSD_MATRIX_WIDGET_EN  | CapSense_CSD_TOUCHPAD_WIDGET_EN)
 818:Generated_Source\PSoC4/CapSense_SensingCSD_LL.c ****         if (CapSense_dsFlash.wdgtArray[(CapSense_widgetIndex)].numCols <= CapSense_sensorIndex)
 819:Generated_Source\PSoC4/CapSense_SensingCSD_LL.c ****         {
 820:Generated_Source\PSoC4/CapSense_SensingCSD_LL.c ****             ptrIdacMod = &ptrWdgt->rowIdacMod[0u];
 821:Generated_Source\PSoC4/CapSense_SensingCSD_LL.c ****         }
 822:Generated_Source\PSoC4/CapSense_SensingCSD_LL.c ****     #endif /* (CapSense_CSD_MATRIX_WIDGET_EN  | CapSense_CSD_TOUCHPAD_WIDGET_EN) */
 823:Generated_Source\PSoC4/CapSense_SensingCSD_LL.c **** 
 824:Generated_Source\PSoC4/CapSense_SensingCSD_LL.c ****     interruptState = CyEnterCriticalSection();
 825:Generated_Source\PSoC4/CapSense_SensingCSD_LL.c **** 
 826:Generated_Source\PSoC4/CapSense_SensingCSD_LL.c ****     /* Get Idac Value */
 827:Generated_Source\PSoC4/CapSense_SensingCSD_LL.c ****     newRegValue = CY_GET_REG32(CapSense_IDAC_PTR);
 828:Generated_Source\PSoC4/CapSense_SensingCSD_LL.c **** 
 829:Generated_Source\PSoC4/CapSense_SensingCSD_LL.c ****     /* Set Idac Value mask */
 830:Generated_Source\PSoC4/CapSense_SensingCSD_LL.c ****     #if (CapSense_ENABLE == CapSense_CSD_IDAC_COMP_EN)
 831:Generated_Source\PSoC4/CapSense_SensingCSD_LL.c ****         newRegValue &= ~(CapSense_IDAC_MOD_MASK | CapSense_IDAC_COMP_MASK);
 832:Generated_Source\PSoC4/CapSense_SensingCSD_LL.c ****     #else
 833:Generated_Source\PSoC4/CapSense_SensingCSD_LL.c ****         newRegValue &= ~(CapSense_IDAC_MOD_MASK);
 834:Generated_Source\PSoC4/CapSense_SensingCSD_LL.c ****     #endif /* (CapSense_ENABLE == CapSense_CSD_IDAC_COMP_EN) */
ARM GAS  C:\Users\220036~1\AppData\Local\Temp\cccwt0mM.s 			page 21


 835:Generated_Source\PSoC4/CapSense_SensingCSD_LL.c **** 
 836:Generated_Source\PSoC4/CapSense_SensingCSD_LL.c ****     /* Set Idac value */
 837:Generated_Source\PSoC4/CapSense_SensingCSD_LL.c ****     #if (CapSense_ENABLE == CapSense_CSD_IDAC_COMP_EN)
 838:Generated_Source\PSoC4/CapSense_SensingCSD_LL.c ****         newRegValue |= (ptrIdacMod[CapSense_scanFreqIndex] |
 839:Generated_Source\PSoC4/CapSense_SensingCSD_LL.c ****                        (uint32)((uint32)CapSense_curRamSnsPtr->idacComp[CapSense_scanFreqIndex] <<
 840:Generated_Source\PSoC4/CapSense_SensingCSD_LL.c ****                        CapSense_IDAC_COMP_DATA_OFFSET));
 841:Generated_Source\PSoC4/CapSense_SensingCSD_LL.c ****     #else
 842:Generated_Source\PSoC4/CapSense_SensingCSD_LL.c ****         newRegValue |= ptrIdacMod[CapSense_scanFreqIndex];
 843:Generated_Source\PSoC4/CapSense_SensingCSD_LL.c ****     #endif /* (CapSense_ENABLE == CapSense_CSD_IDAC_COMP_EN) */
 844:Generated_Source\PSoC4/CapSense_SensingCSD_LL.c ****     CY_SET_REG32(CapSense_IDAC_PTR, newRegValue);
 845:Generated_Source\PSoC4/CapSense_SensingCSD_LL.c **** 
 846:Generated_Source\PSoC4/CapSense_SensingCSD_LL.c ****     CyExitCriticalSection(interruptState);
 847:Generated_Source\PSoC4/CapSense_SensingCSD_LL.c **** 
 848:Generated_Source\PSoC4/CapSense_SensingCSD_LL.c **** #endif /* (CapSense_ENABLE == CapSense_CSDV2) */
 849:Generated_Source\PSoC4/CapSense_SensingCSD_LL.c **** }
 850:Generated_Source\PSoC4/CapSense_SensingCSD_LL.c **** 
 851:Generated_Source\PSoC4/CapSense_SensingCSD_LL.c **** 
 852:Generated_Source\PSoC4/CapSense_SensingCSD_LL.c **** #if (CapSense_ENABLE == CapSense_CSDV2)
 853:Generated_Source\PSoC4/CapSense_SensingCSD_LL.c ****     /*******************************************************************************
 854:Generated_Source\PSoC4/CapSense_SensingCSD_LL.c ****     * Function Name: CapSense_SsCSDGetNumberOfConversions
 855:Generated_Source\PSoC4/CapSense_SensingCSD_LL.c ****     ****************************************************************************//**
 856:Generated_Source\PSoC4/CapSense_SensingCSD_LL.c ****     *
 857:Generated_Source\PSoC4/CapSense_SensingCSD_LL.c ****     * \brief
 858:Generated_Source\PSoC4/CapSense_SensingCSD_LL.c ****     *  This function gets Number of conversions.
 859:Generated_Source\PSoC4/CapSense_SensingCSD_LL.c ****     *
 860:Generated_Source\PSoC4/CapSense_SensingCSD_LL.c ****     * \details
 861:Generated_Source\PSoC4/CapSense_SensingCSD_LL.c ****     *  This function gets Number of conversions using foll.owing equation:
 862:Generated_Source\PSoC4/CapSense_SensingCSD_LL.c ****     *   conversionsNum = (2^resolution - 1) / snsClkDivider.
 863:Generated_Source\PSoC4/CapSense_SensingCSD_LL.c ****     *
 864:Generated_Source\PSoC4/CapSense_SensingCSD_LL.c ****     * \param
 865:Generated_Source\PSoC4/CapSense_SensingCSD_LL.c ****     *  snsClkDivider The divider value for the sense clock.
 866:Generated_Source\PSoC4/CapSense_SensingCSD_LL.c ****     *  resolution The widget resolution.
 867:Generated_Source\PSoC4/CapSense_SensingCSD_LL.c ****     *  snsClkSrc The current Sense Clock Source.
 868:Generated_Source\PSoC4/CapSense_SensingCSD_LL.c ****     *
 869:Generated_Source\PSoC4/CapSense_SensingCSD_LL.c ****     * \return Returns the Number of conversions.
 870:Generated_Source\PSoC4/CapSense_SensingCSD_LL.c ****     *
 871:Generated_Source\PSoC4/CapSense_SensingCSD_LL.c ****     *******************************************************************************/
 872:Generated_Source\PSoC4/CapSense_SensingCSD_LL.c ****     uint32 CapSense_SsCSDGetNumberOfConversions(uint32 snsClkDivider, uint32 resolution, uint32 sns
 873:Generated_Source\PSoC4/CapSense_SensingCSD_LL.c ****     {
 874:Generated_Source\PSoC4/CapSense_SensingCSD_LL.c ****         uint32 conversionsNum;
 875:Generated_Source\PSoC4/CapSense_SensingCSD_LL.c ****         #if ((CapSense_MOD_CSD_CLK_12MHZ < CYDEV_BCLK__HFCLK__HZ) && (CapSense_ENABLE != CapSense_C
 876:Generated_Source\PSoC4/CapSense_SensingCSD_LL.c ****             uint32 sampleClkFreqHz;
 877:Generated_Source\PSoC4/CapSense_SensingCSD_LL.c ****         #endif /* ((CapSense_MOD_CSD_CLK_12MHZ < CYDEV_BCLK__HFCLK__HZ) && (CapSense_ENABLE != CapS
 878:Generated_Source\PSoC4/CapSense_SensingCSD_LL.c **** 
 879:Generated_Source\PSoC4/CapSense_SensingCSD_LL.c ****         /* Calculate scanning resolution value in register */
 880:Generated_Source\PSoC4/CapSense_SensingCSD_LL.c ****         conversionsNum = (uint32)((1uL << resolution) - 1uL);
 881:Generated_Source\PSoC4/CapSense_SensingCSD_LL.c **** 
 882:Generated_Source\PSoC4/CapSense_SensingCSD_LL.c ****         #if(CapSense_ENABLE != CapSense_CSDV2_REF9P6UA_EN)
 883:Generated_Source\PSoC4/CapSense_SensingCSD_LL.c ****             /* Apply correction to oveflow for 16 bit resolution */
 884:Generated_Source\PSoC4/CapSense_SensingCSD_LL.c ****             if (CapSense_RES16BIT == resolution)
 885:Generated_Source\PSoC4/CapSense_SensingCSD_LL.c ****             {
 886:Generated_Source\PSoC4/CapSense_SensingCSD_LL.c ****                 conversionsNum -= ((snsClkDivider + 1u) >> 1u);
 887:Generated_Source\PSoC4/CapSense_SensingCSD_LL.c **** 
 888:Generated_Source\PSoC4/CapSense_SensingCSD_LL.c ****                 #if (CapSense_MOD_CSD_CLK_12MHZ < CYDEV_BCLK__HFCLK__HZ)
 889:Generated_Source\PSoC4/CapSense_SensingCSD_LL.c ****                     sampleClkFreqHz = CYDEV_BCLK__HFCLK__HZ / (uint32)CapSense_dsRam.modCsdClk;
 890:Generated_Source\PSoC4/CapSense_SensingCSD_LL.c **** 
 891:Generated_Source\PSoC4/CapSense_SensingCSD_LL.c ****                     if (sampleClkFreqHz <= CapSense_MOD_CSD_CLK_12MHZ)
ARM GAS  C:\Users\220036~1\AppData\Local\Temp\cccwt0mM.s 			page 22


 892:Generated_Source\PSoC4/CapSense_SensingCSD_LL.c ****                     {
 893:Generated_Source\PSoC4/CapSense_SensingCSD_LL.c ****                         conversionsNum -= CapSense_CONFIG_FILTER_DELAY_2_CYCLES;
 894:Generated_Source\PSoC4/CapSense_SensingCSD_LL.c ****                     }
 895:Generated_Source\PSoC4/CapSense_SensingCSD_LL.c ****                     else if (sampleClkFreqHz <= CapSense_MOD_CSD_CLK_24MHZ)
 896:Generated_Source\PSoC4/CapSense_SensingCSD_LL.c ****                     {
 897:Generated_Source\PSoC4/CapSense_SensingCSD_LL.c ****                         conversionsNum -= CapSense_CONFIG_FILTER_DELAY_3_CYCLES;
 898:Generated_Source\PSoC4/CapSense_SensingCSD_LL.c ****                     }
 899:Generated_Source\PSoC4/CapSense_SensingCSD_LL.c ****                     else
 900:Generated_Source\PSoC4/CapSense_SensingCSD_LL.c ****                     {
 901:Generated_Source\PSoC4/CapSense_SensingCSD_LL.c ****                         conversionsNum -= CapSense_CONFIG_FILTER_DELAY_4_CYCLES;
 902:Generated_Source\PSoC4/CapSense_SensingCSD_LL.c ****                     }
 903:Generated_Source\PSoC4/CapSense_SensingCSD_LL.c ****                 #else
 904:Generated_Source\PSoC4/CapSense_SensingCSD_LL.c ****                     conversionsNum -= CapSense_CONFIG_FILTER_DELAY_2_CYCLES;
 905:Generated_Source\PSoC4/CapSense_SensingCSD_LL.c ****                 #endif /* (INSTANCE_NAME`_MOD_CSD_CLK_12MHZ < CYDEV_BCLK__HFCLK__HZ) */
 906:Generated_Source\PSoC4/CapSense_SensingCSD_LL.c ****             }
 907:Generated_Source\PSoC4/CapSense_SensingCSD_LL.c ****         #endif /* (CapSense_ENABLE != CapSense_CSDV2_REF9P6UA_EN) */
 908:Generated_Source\PSoC4/CapSense_SensingCSD_LL.c **** 
 909:Generated_Source\PSoC4/CapSense_SensingCSD_LL.c ****         if (0u < snsClkDivider)
 910:Generated_Source\PSoC4/CapSense_SensingCSD_LL.c ****         {
 911:Generated_Source\PSoC4/CapSense_SensingCSD_LL.c ****             conversionsNum /= snsClkDivider;
 912:Generated_Source\PSoC4/CapSense_SensingCSD_LL.c ****         }
 913:Generated_Source\PSoC4/CapSense_SensingCSD_LL.c **** 
 914:Generated_Source\PSoC4/CapSense_SensingCSD_LL.c ****     #if((CapSense_CLK_SOURCE_PRS8  == CapSense_CSD_SNS_CLK_SOURCE) ||\
 915:Generated_Source\PSoC4/CapSense_SensingCSD_LL.c ****         (CapSense_CLK_SOURCE_PRS12 == CapSense_CSD_SNS_CLK_SOURCE) ||\
 916:Generated_Source\PSoC4/CapSense_SensingCSD_LL.c ****         (CapSense_CLK_SOURCE_PRSAUTO == CapSense_CSD_SNS_CLK_SOURCE))
 917:Generated_Source\PSoC4/CapSense_SensingCSD_LL.c ****         switch (snsClkSrc)
 918:Generated_Source\PSoC4/CapSense_SensingCSD_LL.c ****         {
 919:Generated_Source\PSoC4/CapSense_SensingCSD_LL.c ****             case CapSense_CLK_SOURCE_PRS8:
 920:Generated_Source\PSoC4/CapSense_SensingCSD_LL.c ****             case CapSense_CLK_SOURCE_PRS12:
 921:Generated_Source\PSoC4/CapSense_SensingCSD_LL.c ****                 /* Divide by 2 for PRS8/PRS12 mode */
 922:Generated_Source\PSoC4/CapSense_SensingCSD_LL.c ****                 conversionsNum >>= 1u;
 923:Generated_Source\PSoC4/CapSense_SensingCSD_LL.c ****                 break;
 924:Generated_Source\PSoC4/CapSense_SensingCSD_LL.c **** 
 925:Generated_Source\PSoC4/CapSense_SensingCSD_LL.c ****             default:
 926:Generated_Source\PSoC4/CapSense_SensingCSD_LL.c ****                 break;
 927:Generated_Source\PSoC4/CapSense_SensingCSD_LL.c ****         }
 928:Generated_Source\PSoC4/CapSense_SensingCSD_LL.c ****     #endif /* ((CapSense_CLK_SOURCE_PRS8  == CapSense_CSD_SNS_CLK_SOURCE) ||\
 929:Generated_Source\PSoC4/CapSense_SensingCSD_LL.c ****                (CapSense_CLK_SOURCE_PRS12 == CapSense_CSD_SNS_CLK_SOURCE) ||\
 930:Generated_Source\PSoC4/CapSense_SensingCSD_LL.c ****                (CapSense_CLK_SOURCE_PRSAUTO == CapSense_CSD_SNS_CLK_SOURCE)) */
 931:Generated_Source\PSoC4/CapSense_SensingCSD_LL.c **** 
 932:Generated_Source\PSoC4/CapSense_SensingCSD_LL.c ****     return((conversionsNum > 0uL) ? (conversionsNum) : 1uL);
 933:Generated_Source\PSoC4/CapSense_SensingCSD_LL.c ****     }
 934:Generated_Source\PSoC4/CapSense_SensingCSD_LL.c **** #endif /* (CapSense_ENABLE == CapSense_CSDV2) */
 935:Generated_Source\PSoC4/CapSense_SensingCSD_LL.c **** 
 936:Generated_Source\PSoC4/CapSense_SensingCSD_LL.c **** 
 937:Generated_Source\PSoC4/CapSense_SensingCSD_LL.c **** /*******************************************************************************
 938:Generated_Source\PSoC4/CapSense_SensingCSD_LL.c **** * Function Name: CapSense_SsCSDConfigClock
 939:Generated_Source\PSoC4/CapSense_SensingCSD_LL.c **** ****************************************************************************//**
 940:Generated_Source\PSoC4/CapSense_SensingCSD_LL.c **** *
 941:Generated_Source\PSoC4/CapSense_SensingCSD_LL.c **** * \brief
 942:Generated_Source\PSoC4/CapSense_SensingCSD_LL.c **** *  This function configure sense clock for different modes.
 943:Generated_Source\PSoC4/CapSense_SensingCSD_LL.c **** *
 944:Generated_Source\PSoC4/CapSense_SensingCSD_LL.c **** * \details
 945:Generated_Source\PSoC4/CapSense_SensingCSD_LL.c **** *  Function sets the clock divider and configures the mode based on configuration.
 946:Generated_Source\PSoC4/CapSense_SensingCSD_LL.c **** *
 947:Generated_Source\PSoC4/CapSense_SensingCSD_LL.c **** *******************************************************************************/
 948:Generated_Source\PSoC4/CapSense_SensingCSD_LL.c **** void CapSense_SsCSDConfigClock(void)
ARM GAS  C:\Users\220036~1\AppData\Local\Temp\cccwt0mM.s 			page 23


 949:Generated_Source\PSoC4/CapSense_SensingCSD_LL.c **** {
 950:Generated_Source\PSoC4/CapSense_SensingCSD_LL.c ****     uint32 snsClkDivider;
 951:Generated_Source\PSoC4/CapSense_SensingCSD_LL.c ****     uint32 snsClkSrc;
 952:Generated_Source\PSoC4/CapSense_SensingCSD_LL.c ****     uint32 newRegValue;
 953:Generated_Source\PSoC4/CapSense_SensingCSD_LL.c **** 
 954:Generated_Source\PSoC4/CapSense_SensingCSD_LL.c ****     CapSense_RAM_WD_BASE_STRUCT const *ptrWdgt = (CapSense_RAM_WD_BASE_STRUCT *)
 955:Generated_Source\PSoC4/CapSense_SensingCSD_LL.c ****              CapSense_dsFlash.wdgtArray[CapSense_widgetIndex].ptr2WdgtRam;
 956:Generated_Source\PSoC4/CapSense_SensingCSD_LL.c **** 
 957:Generated_Source\PSoC4/CapSense_SensingCSD_LL.c ****     /* Get sense divider based on configuration */
 958:Generated_Source\PSoC4/CapSense_SensingCSD_LL.c ****     #if (CapSense_ENABLE == CapSense_CSD_COMMON_SNS_CLK_EN)
 959:Generated_Source\PSoC4/CapSense_SensingCSD_LL.c ****         snsClkDivider = (uint32)CapSense_dsRam.snsCsdClk;
 960:Generated_Source\PSoC4/CapSense_SensingCSD_LL.c ****     #else
 961:Generated_Source\PSoC4/CapSense_SensingCSD_LL.c ****         #if (CapSense_CSD_MATRIX_WIDGET_EN || CapSense_CSD_TOUCHPAD_WIDGET_EN)
 962:Generated_Source\PSoC4/CapSense_SensingCSD_LL.c ****             /* Get SnsClck divider for rows or columns */
 963:Generated_Source\PSoC4/CapSense_SensingCSD_LL.c ****             if (CapSense_dsFlash.wdgtArray[CapSense_widgetIndex].numCols <= CapSense_sensorIndex)
 964:Generated_Source\PSoC4/CapSense_SensingCSD_LL.c ****             {
 965:Generated_Source\PSoC4/CapSense_SensingCSD_LL.c ****                 snsClkDivider = (uint32)(ptrWdgt->rowSnsClk);
 966:Generated_Source\PSoC4/CapSense_SensingCSD_LL.c ****             }
 967:Generated_Source\PSoC4/CapSense_SensingCSD_LL.c ****             else
 968:Generated_Source\PSoC4/CapSense_SensingCSD_LL.c ****             {
 969:Generated_Source\PSoC4/CapSense_SensingCSD_LL.c ****                 snsClkDivider = (uint32)(ptrWdgt->snsClk);
 970:Generated_Source\PSoC4/CapSense_SensingCSD_LL.c ****             }
 971:Generated_Source\PSoC4/CapSense_SensingCSD_LL.c ****         #else
 972:Generated_Source\PSoC4/CapSense_SensingCSD_LL.c ****             snsClkDivider = (uint32)(ptrWdgt->snsClk);
 973:Generated_Source\PSoC4/CapSense_SensingCSD_LL.c ****         #endif /* (CapSense_CSD_MATRIX_WIDGET_EN || CapSense_CSD_TOUCHPAD_WIDGET_EN) */
 974:Generated_Source\PSoC4/CapSense_SensingCSD_LL.c ****     #endif /* (CapSense_ENABLE == CapSense_CSD_COMMON_SNS_CLK_EN) */
 975:Generated_Source\PSoC4/CapSense_SensingCSD_LL.c **** 
 976:Generated_Source\PSoC4/CapSense_SensingCSD_LL.c ****     /* Get sense clk source calculated in CapSense_SsCSDInitialize() before */
 977:Generated_Source\PSoC4/CapSense_SensingCSD_LL.c ****     #if (CapSense_CSD_MATRIX_WIDGET_EN || CapSense_CSD_TOUCHPAD_WIDGET_EN)
 978:Generated_Source\PSoC4/CapSense_SensingCSD_LL.c ****         /* Get SnsClc Source for rows or columns */
 979:Generated_Source\PSoC4/CapSense_SensingCSD_LL.c ****         if (CapSense_dsFlash.wdgtArray[CapSense_widgetIndex].numCols <= CapSense_sensorIndex)
 980:Generated_Source\PSoC4/CapSense_SensingCSD_LL.c ****         {
 981:Generated_Source\PSoC4/CapSense_SensingCSD_LL.c ****             snsClkSrc = (uint32)ptrWdgt->rowSnsClkSource;
 982:Generated_Source\PSoC4/CapSense_SensingCSD_LL.c ****         }
 983:Generated_Source\PSoC4/CapSense_SensingCSD_LL.c ****         else
 984:Generated_Source\PSoC4/CapSense_SensingCSD_LL.c ****         {
 985:Generated_Source\PSoC4/CapSense_SensingCSD_LL.c ****             snsClkSrc = (uint32)ptrWdgt->snsClkSource;
 986:Generated_Source\PSoC4/CapSense_SensingCSD_LL.c ****         }
 987:Generated_Source\PSoC4/CapSense_SensingCSD_LL.c ****     #else
 988:Generated_Source\PSoC4/CapSense_SensingCSD_LL.c ****         snsClkSrc = (uint32)ptrWdgt->snsClkSource;
 989:Generated_Source\PSoC4/CapSense_SensingCSD_LL.c ****     #endif /* (CapSense_CSD_MATRIX_WIDGET_EN || CapSense_CSD_TOUCHPAD_WIDGET_EN) */
 990:Generated_Source\PSoC4/CapSense_SensingCSD_LL.c **** 
 991:Generated_Source\PSoC4/CapSense_SensingCSD_LL.c ****     #if (CapSense_ENABLE == CapSense_CSDV2)
 992:Generated_Source\PSoC4/CapSense_SensingCSD_LL.c ****         newRegValue = (snsClkSrc << CYFLD_CSD_LFSR_SIZE__OFFSET);
 993:Generated_Source\PSoC4/CapSense_SensingCSD_LL.c **** 
 994:Generated_Source\PSoC4/CapSense_SensingCSD_LL.c ****         /* Configuring PRS SEL_BIT */
 995:Generated_Source\PSoC4/CapSense_SensingCSD_LL.c ****         if ((CapSense_CLK_SOURCE_PRS8 == snsClkSrc) ||
 996:Generated_Source\PSoC4/CapSense_SensingCSD_LL.c ****             (CapSense_CLK_SOURCE_PRS12 == snsClkSrc))
 997:Generated_Source\PSoC4/CapSense_SensingCSD_LL.c ****         {
 998:Generated_Source\PSoC4/CapSense_SensingCSD_LL.c ****             newRegValue |= CapSense_SENSE_PERIOD_SEL_LFSR_MSB_MASK;
 999:Generated_Source\PSoC4/CapSense_SensingCSD_LL.c ****         }
1000:Generated_Source\PSoC4/CapSense_SensingCSD_LL.c ****     #else
1001:Generated_Source\PSoC4/CapSense_SensingCSD_LL.c ****         newRegValue = snsClkSrc;
1002:Generated_Source\PSoC4/CapSense_SensingCSD_LL.c ****     #endif /* (CapSense_ENABLE == CapSense_CSDV2) */
1003:Generated_Source\PSoC4/CapSense_SensingCSD_LL.c **** 
1004:Generated_Source\PSoC4/CapSense_SensingCSD_LL.c ****     #if((CapSense_CLK_SOURCE_PRS8  == CapSense_CSD_SNS_CLK_SOURCE) ||\
1005:Generated_Source\PSoC4/CapSense_SensingCSD_LL.c ****         (CapSense_CLK_SOURCE_PRS12 == CapSense_CSD_SNS_CLK_SOURCE) ||\
ARM GAS  C:\Users\220036~1\AppData\Local\Temp\cccwt0mM.s 			page 24


1006:Generated_Source\PSoC4/CapSense_SensingCSD_LL.c ****         (CapSense_CLK_SOURCE_PRSAUTO == CapSense_CSD_SNS_CLK_SOURCE))
1007:Generated_Source\PSoC4/CapSense_SensingCSD_LL.c ****         switch (snsClkSrc)
1008:Generated_Source\PSoC4/CapSense_SensingCSD_LL.c ****         {
1009:Generated_Source\PSoC4/CapSense_SensingCSD_LL.c ****         case CapSense_CLK_SOURCE_PRS8:
1010:Generated_Source\PSoC4/CapSense_SensingCSD_LL.c ****         case CapSense_CLK_SOURCE_PRS12:
1011:Generated_Source\PSoC4/CapSense_SensingCSD_LL.c ****             /* Divide by 2 for PRS8/PRS12 mode */
1012:Generated_Source\PSoC4/CapSense_SensingCSD_LL.c ****             snsClkDivider >>= 1;
1013:Generated_Source\PSoC4/CapSense_SensingCSD_LL.c ****             if (snsClkDivider == 0u)
1014:Generated_Source\PSoC4/CapSense_SensingCSD_LL.c ****             {
1015:Generated_Source\PSoC4/CapSense_SensingCSD_LL.c ****                 snsClkDivider = 1u;
1016:Generated_Source\PSoC4/CapSense_SensingCSD_LL.c ****             }
1017:Generated_Source\PSoC4/CapSense_SensingCSD_LL.c ****             break;
1018:Generated_Source\PSoC4/CapSense_SensingCSD_LL.c **** 
1019:Generated_Source\PSoC4/CapSense_SensingCSD_LL.c ****         default:
1020:Generated_Source\PSoC4/CapSense_SensingCSD_LL.c ****             break;
1021:Generated_Source\PSoC4/CapSense_SensingCSD_LL.c ****         }
1022:Generated_Source\PSoC4/CapSense_SensingCSD_LL.c ****     #endif /* ((CapSense_CLK_SOURCE_PRS8  == CapSense_CSD_SNS_CLK_SOURCE) ||\
1023:Generated_Source\PSoC4/CapSense_SensingCSD_LL.c ****                (CapSense_CLK_SOURCE_PRS12 == CapSense_CSD_SNS_CLK_SOURCE) ||\
1024:Generated_Source\PSoC4/CapSense_SensingCSD_LL.c ****                (CapSense_CLK_SOURCE_PRSAUTO == CapSense_CSD_SNS_CLK_SOURCE)) */
1025:Generated_Source\PSoC4/CapSense_SensingCSD_LL.c ****     CapSense_SsCSDSetModeSnsClockDivider(newRegValue, snsClkDivider);
1026:Generated_Source\PSoC4/CapSense_SensingCSD_LL.c **** }
1027:Generated_Source\PSoC4/CapSense_SensingCSD_LL.c **** 
1028:Generated_Source\PSoC4/CapSense_SensingCSD_LL.c **** 
1029:Generated_Source\PSoC4/CapSense_SensingCSD_LL.c **** /*******************************************************************************
1030:Generated_Source\PSoC4/CapSense_SensingCSD_LL.c **** * Function Name: CapSense_SsCSDCalculateScanDuration
1031:Generated_Source\PSoC4/CapSense_SensingCSD_LL.c **** ****************************************************************************//**
1032:Generated_Source\PSoC4/CapSense_SensingCSD_LL.c **** *
1033:Generated_Source\PSoC4/CapSense_SensingCSD_LL.c **** * \brief
1034:Generated_Source\PSoC4/CapSense_SensingCSD_LL.c **** *   Calculates Scan Duration which is defined by scan resolution
1035:Generated_Source\PSoC4/CapSense_SensingCSD_LL.c **** *
1036:Generated_Source\PSoC4/CapSense_SensingCSD_LL.c **** * \details
1037:Generated_Source\PSoC4/CapSense_SensingCSD_LL.c **** *   For Fourth-generation HW block: The function calculates the number of conversions and updates
1038:Generated_Source\PSoC4/CapSense_SensingCSD_LL.c **** *   SEQ_NORM_CNT register. The number of conversions depends on resolution and
1039:Generated_Source\PSoC4/CapSense_SensingCSD_LL.c **** *   snsClk divider.
1040:Generated_Source\PSoC4/CapSense_SensingCSD_LL.c **** *   For Third-generation HW block: The function recalculate the resolution using following equation
1041:Generated_Source\PSoC4/CapSense_SensingCSD_LL.c **** *   2^resolution - 1. The calculated value is contained in
1042:Generated_Source\PSoC4/CapSense_SensingCSD_LL.c **** *   CapSense_counterResolution global variable and used in
1043:Generated_Source\PSoC4/CapSense_SensingCSD_LL.c **** *   CapSense_SsCSDStartSample() function to trigger the scan process.
1044:Generated_Source\PSoC4/CapSense_SensingCSD_LL.c **** *
1045:Generated_Source\PSoC4/CapSense_SensingCSD_LL.c **** * \param wdgtIndex
1046:Generated_Source\PSoC4/CapSense_SensingCSD_LL.c **** *  ptrWdgt The pointer to the RAM_WD_BASE_STRUCT structure.
1047:Generated_Source\PSoC4/CapSense_SensingCSD_LL.c **** *
1048:Generated_Source\PSoC4/CapSense_SensingCSD_LL.c **** *******************************************************************************/
1049:Generated_Source\PSoC4/CapSense_SensingCSD_LL.c **** void CapSense_SsCSDCalculateScanDuration(CapSense_RAM_WD_BASE_STRUCT const *ptrWdgt)
1050:Generated_Source\PSoC4/CapSense_SensingCSD_LL.c **** {
1051:Generated_Source\PSoC4/CapSense_SensingCSD_LL.c ****     #if (CapSense_ENABLE == CapSense_CSDV2)
1052:Generated_Source\PSoC4/CapSense_SensingCSD_LL.c ****         uint32 conversionsNum;
1053:Generated_Source\PSoC4/CapSense_SensingCSD_LL.c ****         uint32 snsClkDivider;
1054:Generated_Source\PSoC4/CapSense_SensingCSD_LL.c **** 
1055:Generated_Source\PSoC4/CapSense_SensingCSD_LL.c ****     /* Get Number Of Conversions */
1056:Generated_Source\PSoC4/CapSense_SensingCSD_LL.c ****     #if (CapSense_ENABLE == CapSense_CSD_COMMON_SNS_CLK_EN)
1057:Generated_Source\PSoC4/CapSense_SensingCSD_LL.c ****         snsClkDivider = CapSense_dsRam.snsCsdClk;
1058:Generated_Source\PSoC4/CapSense_SensingCSD_LL.c ****     #else
1059:Generated_Source\PSoC4/CapSense_SensingCSD_LL.c ****         #if (CapSense_CSD_MATRIX_WIDGET_EN || CapSense_CSD_TOUCHPAD_WIDGET_EN)
1060:Generated_Source\PSoC4/CapSense_SensingCSD_LL.c ****             /* Get SnsClck divider for rows or columns */
1061:Generated_Source\PSoC4/CapSense_SensingCSD_LL.c ****             if (CapSense_dsFlash.wdgtArray[CapSense_widgetIndex].numCols <= CapSense_sensorIndex)
1062:Generated_Source\PSoC4/CapSense_SensingCSD_LL.c ****             {
ARM GAS  C:\Users\220036~1\AppData\Local\Temp\cccwt0mM.s 			page 25


1063:Generated_Source\PSoC4/CapSense_SensingCSD_LL.c ****                 snsClkDivider = (uint32)(ptrWdgt->rowSnsClk);
1064:Generated_Source\PSoC4/CapSense_SensingCSD_LL.c ****             }
1065:Generated_Source\PSoC4/CapSense_SensingCSD_LL.c ****             else
1066:Generated_Source\PSoC4/CapSense_SensingCSD_LL.c ****             {
1067:Generated_Source\PSoC4/CapSense_SensingCSD_LL.c ****                 snsClkDivider = (uint32)(ptrWdgt->snsClk);
1068:Generated_Source\PSoC4/CapSense_SensingCSD_LL.c ****             }
1069:Generated_Source\PSoC4/CapSense_SensingCSD_LL.c ****         #else
1070:Generated_Source\PSoC4/CapSense_SensingCSD_LL.c ****             snsClkDivider = (uint32)(ptrWdgt->snsClk);
1071:Generated_Source\PSoC4/CapSense_SensingCSD_LL.c ****         #endif /* (CapSense_CSD_MATRIX_WIDGET_EN || CapSense_CSD_TOUCHPAD_WIDGET_EN) */
1072:Generated_Source\PSoC4/CapSense_SensingCSD_LL.c ****     #endif /* (CapSense_ENABLE == CapSense_CSD_COMMON_SNS_CLK_EN) */
1073:Generated_Source\PSoC4/CapSense_SensingCSD_LL.c **** 
1074:Generated_Source\PSoC4/CapSense_SensingCSD_LL.c ****     conversionsNum = CapSense_SsCSDGetNumberOfConversions(snsClkDivider, (uint32)ptrWdgt->resolutio
1075:Generated_Source\PSoC4/CapSense_SensingCSD_LL.c **** 
1076:Generated_Source\PSoC4/CapSense_SensingCSD_LL.c ****         /* Set Number Of Conversions based on scanning resolution */
1077:Generated_Source\PSoC4/CapSense_SensingCSD_LL.c ****         CY_SET_REG32(CapSense_SEQ_NORM_CNT_PTR, (conversionsNum & CapSense_SEQ_NORM_CNT_CONV_CNT_MA
1078:Generated_Source\PSoC4/CapSense_SensingCSD_LL.c ****     #else
1079:Generated_Source\PSoC4/CapSense_SensingCSD_LL.c ****         /* Set up scanning resolution  */
1080:Generated_Source\PSoC4/CapSense_SensingCSD_LL.c ****         CapSense_counterResolution = (uint32)((0x00000001Lu << ptrWdgt->resolution) - 1u) << CapSen
1081:Generated_Source\PSoC4/CapSense_SensingCSD_LL.c ****     #endif /* (CapSense_ENABLE == CapSense_CSDV2) */
1082:Generated_Source\PSoC4/CapSense_SensingCSD_LL.c **** }
1083:Generated_Source\PSoC4/CapSense_SensingCSD_LL.c **** 
1084:Generated_Source\PSoC4/CapSense_SensingCSD_LL.c **** 
1085:Generated_Source\PSoC4/CapSense_SensingCSD_LL.c **** /*******************************************************************************
1086:Generated_Source\PSoC4/CapSense_SensingCSD_LL.c **** * Function Name: CapSense_CSDSetupWidget
1087:Generated_Source\PSoC4/CapSense_SensingCSD_LL.c **** ****************************************************************************//**
1088:Generated_Source\PSoC4/CapSense_SensingCSD_LL.c **** *
1089:Generated_Source\PSoC4/CapSense_SensingCSD_LL.c **** * \brief
1090:Generated_Source\PSoC4/CapSense_SensingCSD_LL.c **** *  Performs hardware and firmware initialization required for scanning sensors
1091:Generated_Source\PSoC4/CapSense_SensingCSD_LL.c **** *  in a specific widget using the CSD sensing method. This function requires using
1092:Generated_Source\PSoC4/CapSense_SensingCSD_LL.c **** *  the CapSense_CSDScan() function to start scanning.
1093:Generated_Source\PSoC4/CapSense_SensingCSD_LL.c **** *
1094:Generated_Source\PSoC4/CapSense_SensingCSD_LL.c **** * \details
1095:Generated_Source\PSoC4/CapSense_SensingCSD_LL.c **** *  This function initializes the specific widget common parameters to perform
1096:Generated_Source\PSoC4/CapSense_SensingCSD_LL.c **** *  the CSD scanning. The initialization includes setting up a Modulator and
1097:Generated_Source\PSoC4/CapSense_SensingCSD_LL.c **** *  Sense clock frequency and scanning resolution.
1098:Generated_Source\PSoC4/CapSense_SensingCSD_LL.c **** *
1099:Generated_Source\PSoC4/CapSense_SensingCSD_LL.c **** *  This function does not connect any specific sensors to the scanning hardware,
1100:Generated_Source\PSoC4/CapSense_SensingCSD_LL.c **** *  neither does it start a scanning process. The CapSense_CSDScan()
1101:Generated_Source\PSoC4/CapSense_SensingCSD_LL.c **** *  API must be called after initializing the widget to start scanning.
1102:Generated_Source\PSoC4/CapSense_SensingCSD_LL.c **** *
1103:Generated_Source\PSoC4/CapSense_SensingCSD_LL.c **** *  This function is called when no scanning is in progress. I.e.
1104:Generated_Source\PSoC4/CapSense_SensingCSD_LL.c **** *  CapSense_IsBusy() returns a non-busy status.
1105:Generated_Source\PSoC4/CapSense_SensingCSD_LL.c **** *
1106:Generated_Source\PSoC4/CapSense_SensingCSD_LL.c **** *  This function is called by the CapSense_SetupWidget() API if the
1107:Generated_Source\PSoC4/CapSense_SensingCSD_LL.c **** *  given widget uses the CSD sensing method.
1108:Generated_Source\PSoC4/CapSense_SensingCSD_LL.c **** *
1109:Generated_Source\PSoC4/CapSense_SensingCSD_LL.c **** *  Calling this function directly from the application layer is not
1110:Generated_Source\PSoC4/CapSense_SensingCSD_LL.c **** *  recommended. This function is used to implement only the user's specific
1111:Generated_Source\PSoC4/CapSense_SensingCSD_LL.c **** *  use cases (for faster execution time or pipeline scanning for example).
1112:Generated_Source\PSoC4/CapSense_SensingCSD_LL.c **** *
1113:Generated_Source\PSoC4/CapSense_SensingCSD_LL.c **** * \param  widgetId
1114:Generated_Source\PSoC4/CapSense_SensingCSD_LL.c **** *  Specifies the ID number of the widget to perform hardware and firmware
1115:Generated_Source\PSoC4/CapSense_SensingCSD_LL.c **** *  initialization required for scanning sensors in the specific widget.
1116:Generated_Source\PSoC4/CapSense_SensingCSD_LL.c **** *  A macro for the widget ID can be found in the CapSense Configuration header
1117:Generated_Source\PSoC4/CapSense_SensingCSD_LL.c **** *  file defined as CapSense_<WidgetName>_WDGT_ID.
1118:Generated_Source\PSoC4/CapSense_SensingCSD_LL.c **** *
1119:Generated_Source\PSoC4/CapSense_SensingCSD_LL.c **** *******************************************************************************/
ARM GAS  C:\Users\220036~1\AppData\Local\Temp\cccwt0mM.s 			page 26


1120:Generated_Source\PSoC4/CapSense_SensingCSD_LL.c **** void CapSense_CSDSetupWidget(uint32 widgetId)
1121:Generated_Source\PSoC4/CapSense_SensingCSD_LL.c **** {
1122:Generated_Source\PSoC4/CapSense_SensingCSD_LL.c **** 
1123:Generated_Source\PSoC4/CapSense_SensingCSD_LL.c ****     CapSense_RAM_WD_BASE_STRUCT const *ptrWdgt = (CapSense_RAM_WD_BASE_STRUCT *)
1124:Generated_Source\PSoC4/CapSense_SensingCSD_LL.c ****                                                     CapSense_dsFlash.wdgtArray[widgetId].ptr2WdgtRa
1125:Generated_Source\PSoC4/CapSense_SensingCSD_LL.c **** 
1126:Generated_Source\PSoC4/CapSense_SensingCSD_LL.c ****     /* Save widget Id to have assess to it after scanning  */
1127:Generated_Source\PSoC4/CapSense_SensingCSD_LL.c ****     CapSense_widgetIndex = (uint8)widgetId;
1128:Generated_Source\PSoC4/CapSense_SensingCSD_LL.c **** 
1129:Generated_Source\PSoC4/CapSense_SensingCSD_LL.c ****     CapSense_SsSwitchSensingMode(CapSense_SENSE_METHOD_CSD_E);
1130:Generated_Source\PSoC4/CapSense_SensingCSD_LL.c **** 
1131:Generated_Source\PSoC4/CapSense_SensingCSD_LL.c ****     #if (CapSense_ENABLE == CapSense_MULTI_FREQ_SCAN_EN)
1132:Generated_Source\PSoC4/CapSense_SensingCSD_LL.c ****         /* Reset the frequency scan channel if enabled */
1133:Generated_Source\PSoC4/CapSense_SensingCSD_LL.c ****         CapSense_scanFreqIndex = CapSense_FREQ_CHANNEL_0;
1134:Generated_Source\PSoC4/CapSense_SensingCSD_LL.c ****     #endif /* (CapSense_ENABLE == CapSense_MULTI_FREQ_SCAN_EN) */
1135:Generated_Source\PSoC4/CapSense_SensingCSD_LL.c **** 
1136:Generated_Source\PSoC4/CapSense_SensingCSD_LL.c ****     /* Disconnect previous electrode if it has been connected */
1137:Generated_Source\PSoC4/CapSense_SensingCSD_LL.c ****     CapSense_SsCSDElectrodeCheck();
1138:Generated_Source\PSoC4/CapSense_SensingCSD_LL.c **** 
1139:Generated_Source\PSoC4/CapSense_SensingCSD_LL.c ****     /* Initialize IO Sns electrode structure pointer to current widget */
1140:Generated_Source\PSoC4/CapSense_SensingCSD_LL.c ****     CapSense_curSnsIOPtr = (CapSense_FLASH_IO_STRUCT const *)
1141:Generated_Source\PSoC4/CapSense_SensingCSD_LL.c ****                                     CapSense_dsFlash.wdgtArray[CapSense_widgetIndex].ptr2SnsFlash;
1142:Generated_Source\PSoC4/CapSense_SensingCSD_LL.c **** 
1143:Generated_Source\PSoC4/CapSense_SensingCSD_LL.c ****     /* Update status register in Data structure */
1144:Generated_Source\PSoC4/CapSense_SensingCSD_LL.c ****     CapSense_dsRam.status &= ~CapSense_STATUS_WDGT0_MASK;
1145:Generated_Source\PSoC4/CapSense_SensingCSD_LL.c ****     CapSense_dsRam.status |= CapSense_widgetIndex;
1146:Generated_Source\PSoC4/CapSense_SensingCSD_LL.c **** 
1147:Generated_Source\PSoC4/CapSense_SensingCSD_LL.c ****     /* Set up scanning resolution (Number ofconversion for CSDv2) */
1148:Generated_Source\PSoC4/CapSense_SensingCSD_LL.c ****     CapSense_SsCSDCalculateScanDuration(ptrWdgt);
1149:Generated_Source\PSoC4/CapSense_SensingCSD_LL.c **** 
1150:Generated_Source\PSoC4/CapSense_SensingCSD_LL.c ****     #if ((CapSense_DISABLE == CapSense_CSD_COMMON_SNS_CLK_EN) ||\
1151:Generated_Source\PSoC4/CapSense_SensingCSD_LL.c ****          (CapSense_CLK_SOURCE_DIRECT != CapSense_CSD_SNS_CLK_SOURCE))
1152:Generated_Source\PSoC4/CapSense_SensingCSD_LL.c ****         CapSense_SsCSDConfigClock();
1153:Generated_Source\PSoC4/CapSense_SensingCSD_LL.c ****     #endif /* ((CapSense_DISABLE == CapSense_CSD_COMMON_SNS_CLK_EN) ||\
1154:Generated_Source\PSoC4/CapSense_SensingCSD_LL.c ****                (CapSense_CLK_SOURCE_DIRECT != CapSense_CSD_SNS_CLK_SOURCE)) */
1155:Generated_Source\PSoC4/CapSense_SensingCSD_LL.c **** }
1156:Generated_Source\PSoC4/CapSense_SensingCSD_LL.c **** 
1157:Generated_Source\PSoC4/CapSense_SensingCSD_LL.c **** 
1158:Generated_Source\PSoC4/CapSense_SensingCSD_LL.c **** /*******************************************************************************
1159:Generated_Source\PSoC4/CapSense_SensingCSD_LL.c **** * Function Name: CapSense_CSDSetupWidgetExt
1160:Generated_Source\PSoC4/CapSense_SensingCSD_LL.c **** ****************************************************************************//**
1161:Generated_Source\PSoC4/CapSense_SensingCSD_LL.c **** *
1162:Generated_Source\PSoC4/CapSense_SensingCSD_LL.c **** * \brief
1163:Generated_Source\PSoC4/CapSense_SensingCSD_LL.c **** *  Performs extended initialization for the CSD widget and also performs
1164:Generated_Source\PSoC4/CapSense_SensingCSD_LL.c **** *  initialization required for a specific sensor in the widget. This function
1165:Generated_Source\PSoC4/CapSense_SensingCSD_LL.c **** *  requires using the CapSense_CSDScanExt() function to initiate a scan.
1166:Generated_Source\PSoC4/CapSense_SensingCSD_LL.c **** *
1167:Generated_Source\PSoC4/CapSense_SensingCSD_LL.c **** * \details
1168:Generated_Source\PSoC4/CapSense_SensingCSD_LL.c **** *  This function does the same as CapSense_CSDSetupWidget() and also
1169:Generated_Source\PSoC4/CapSense_SensingCSD_LL.c **** *  does the following tasks:
1170:Generated_Source\PSoC4/CapSense_SensingCSD_LL.c **** *    1. Connects the first sensor of the widget.
1171:Generated_Source\PSoC4/CapSense_SensingCSD_LL.c **** *    2. Configures the IDAC value.
1172:Generated_Source\PSoC4/CapSense_SensingCSD_LL.c **** *    3. Initializes an interrupt callback function to initialize a scan of the
1173:Generated_Source\PSoC4/CapSense_SensingCSD_LL.c **** *  next sensors in a widget.
1174:Generated_Source\PSoC4/CapSense_SensingCSD_LL.c **** *
1175:Generated_Source\PSoC4/CapSense_SensingCSD_LL.c **** *  Once this function is called to initialize a widget and a sensor, the
1176:Generated_Source\PSoC4/CapSense_SensingCSD_LL.c **** *  CapSense_CSDScanExt() function is called to scan the sensor.
ARM GAS  C:\Users\220036~1\AppData\Local\Temp\cccwt0mM.s 			page 27


1177:Generated_Source\PSoC4/CapSense_SensingCSD_LL.c **** *
1178:Generated_Source\PSoC4/CapSense_SensingCSD_LL.c **** *  This function is called when no scanning is in progress. I.e.
1179:Generated_Source\PSoC4/CapSense_SensingCSD_LL.c **** *  CapSense_IsBusy() returns a non-busy status.
1180:Generated_Source\PSoC4/CapSense_SensingCSD_LL.c **** *
1181:Generated_Source\PSoC4/CapSense_SensingCSD_LL.c **** *  Calling this function directly from the application layer is not
1182:Generated_Source\PSoC4/CapSense_SensingCSD_LL.c **** *  recommended. This function is used to implement only the user's specific
1183:Generated_Source\PSoC4/CapSense_SensingCSD_LL.c **** *  use cases (for faster execution time or pipeline scanning for example).
1184:Generated_Source\PSoC4/CapSense_SensingCSD_LL.c **** *
1185:Generated_Source\PSoC4/CapSense_SensingCSD_LL.c **** * \param widgetId
1186:Generated_Source\PSoC4/CapSense_SensingCSD_LL.c **** *  Specifies the ID number of the widget to perform hardware and firmware
1187:Generated_Source\PSoC4/CapSense_SensingCSD_LL.c **** *  initialization required for scanning the specific sensor in the specific
1188:Generated_Source\PSoC4/CapSense_SensingCSD_LL.c **** *  widget.
1189:Generated_Source\PSoC4/CapSense_SensingCSD_LL.c **** *  A macro for the widget ID can be found in the CapSense Configuration header
1190:Generated_Source\PSoC4/CapSense_SensingCSD_LL.c **** *  file defined as CapSense_<WidgetName>_WDGT_ID.
1191:Generated_Source\PSoC4/CapSense_SensingCSD_LL.c **** *
1192:Generated_Source\PSoC4/CapSense_SensingCSD_LL.c **** * \param sensorId
1193:Generated_Source\PSoC4/CapSense_SensingCSD_LL.c **** *  Specifies the ID number of the sensor within the widget to perform hardware
1194:Generated_Source\PSoC4/CapSense_SensingCSD_LL.c **** *  and firmware initialization required for scanning a specific sensor in a
1195:Generated_Source\PSoC4/CapSense_SensingCSD_LL.c **** *  specific widget.
1196:Generated_Source\PSoC4/CapSense_SensingCSD_LL.c **** *  A macro for the sensor ID within a specified widget can be found in the
1197:Generated_Source\PSoC4/CapSense_SensingCSD_LL.c **** *  CapSense Configuration header file defined as
1198:Generated_Source\PSoC4/CapSense_SensingCSD_LL.c **** *  CapSense_<WidgetName>_SNS<SensorNumber>_ID
1199:Generated_Source\PSoC4/CapSense_SensingCSD_LL.c **** *
1200:Generated_Source\PSoC4/CapSense_SensingCSD_LL.c **** *******************************************************************************/
1201:Generated_Source\PSoC4/CapSense_SensingCSD_LL.c **** void CapSense_CSDSetupWidgetExt(uint32 widgetId, uint32 sensorId)
1202:Generated_Source\PSoC4/CapSense_SensingCSD_LL.c **** {
1203:Generated_Source\PSoC4/CapSense_SensingCSD_LL.c ****     CapSense_RAM_WD_BASE_STRUCT const *ptrWdgt = (CapSense_RAM_WD_BASE_STRUCT *)
1204:Generated_Source\PSoC4/CapSense_SensingCSD_LL.c ****                                                     CapSense_dsFlash.wdgtArray[widgetId].ptr2WdgtRa
1205:Generated_Source\PSoC4/CapSense_SensingCSD_LL.c **** 
1206:Generated_Source\PSoC4/CapSense_SensingCSD_LL.c ****     /* Save widget and sensor Ids to have access to it after scanning  */
1207:Generated_Source\PSoC4/CapSense_SensingCSD_LL.c ****     CapSense_sensorIndex = (uint8)sensorId;
1208:Generated_Source\PSoC4/CapSense_SensingCSD_LL.c **** 
1209:Generated_Source\PSoC4/CapSense_SensingCSD_LL.c ****     /* Update global pointer to CapSense_RAM_SNS_STRUCT to current sensor  */
1210:Generated_Source\PSoC4/CapSense_SensingCSD_LL.c ****     CapSense_curRamSnsPtr = (CapSense_RAM_SNS_STRUCT *)
1211:Generated_Source\PSoC4/CapSense_SensingCSD_LL.c ****                                               CapSense_dsFlash.wdgtArray[widgetId].ptr2SnsRam
1212:Generated_Source\PSoC4/CapSense_SensingCSD_LL.c ****                                               + CapSense_sensorIndex;
1213:Generated_Source\PSoC4/CapSense_SensingCSD_LL.c **** 
1214:Generated_Source\PSoC4/CapSense_SensingCSD_LL.c ****     CapSense_CSDSetupWidget(widgetId);
1215:Generated_Source\PSoC4/CapSense_SensingCSD_LL.c **** 
1216:Generated_Source\PSoC4/CapSense_SensingCSD_LL.c ****      /* Setup Idac Value */
1217:Generated_Source\PSoC4/CapSense_SensingCSD_LL.c ****     CapSense_SsCSDSetUpIdacs(ptrWdgt);
1218:Generated_Source\PSoC4/CapSense_SensingCSD_LL.c **** 
1219:Generated_Source\PSoC4/CapSense_SensingCSD_LL.c ****     #if (CapSense_ENABLE == CapSense_CSD_GANGED_SNS_EN)
1220:Generated_Source\PSoC4/CapSense_SensingCSD_LL.c ****         /* initialize access pointers for current pointer to widget configuration in Flash */
1221:Generated_Source\PSoC4/CapSense_SensingCSD_LL.c ****         CapSense_curFlashWdgtPtr = &CapSense_dsFlash.wdgtArray[widgetId];
1222:Generated_Source\PSoC4/CapSense_SensingCSD_LL.c ****     #endif /* (CapSense_ENABLE == CapSense_CSD_GANGED_SNS_EN)  */
1223:Generated_Source\PSoC4/CapSense_SensingCSD_LL.c **** 
1224:Generated_Source\PSoC4/CapSense_SensingCSD_LL.c ****     #if (CapSense_ENABLE == CapSense_CSD_GANGED_SNS_EN)
1225:Generated_Source\PSoC4/CapSense_SensingCSD_LL.c ****         CapSense_SsCSDConnectSensorExt(widgetId, sensorId);
1226:Generated_Source\PSoC4/CapSense_SensingCSD_LL.c ****     #else
1227:Generated_Source\PSoC4/CapSense_SensingCSD_LL.c ****         /* Enable sensor */
1228:Generated_Source\PSoC4/CapSense_SensingCSD_LL.c ****         CapSense_curSnsIOPtr += CapSense_sensorIndex;
1229:Generated_Source\PSoC4/CapSense_SensingCSD_LL.c ****         CapSense_CSDConnectSns(CapSense_curSnsIOPtr);
1230:Generated_Source\PSoC4/CapSense_SensingCSD_LL.c ****     #endif /* (CapSense_ENABLE == CapSense_CSD_GANGED_SNS_EN)  */
1231:Generated_Source\PSoC4/CapSense_SensingCSD_LL.c **** 
1232:Generated_Source\PSoC4/CapSense_SensingCSD_LL.c ****     #if (CapSense_ENABLE == CapSense_CSD_GANGED_SNS_EN)
1233:Generated_Source\PSoC4/CapSense_SensingCSD_LL.c ****         /* Save sns pointer */
ARM GAS  C:\Users\220036~1\AppData\Local\Temp\cccwt0mM.s 			page 28


1234:Generated_Source\PSoC4/CapSense_SensingCSD_LL.c ****         CapSense_curFlashSnsPtr = (CapSense_FLASH_SNS_STRUCT const *)
1235:Generated_Source\PSoC4/CapSense_SensingCSD_LL.c ****                                            CapSense_dsFlash.wdgtArray[CapSense_widgetIndex].ptr2Sns
1236:Generated_Source\PSoC4/CapSense_SensingCSD_LL.c ****                                            CapSense_sensorIndex;
1237:Generated_Source\PSoC4/CapSense_SensingCSD_LL.c ****     #endif /* (CapSense_ENABLE == CapSense_CSD_GANGED_SNS_EN) */
1238:Generated_Source\PSoC4/CapSense_SensingCSD_LL.c **** 
1239:Generated_Source\PSoC4/CapSense_SensingCSD_LL.c ****     CapSense_eleCsdDisconnectFlag = CapSense_DISCONNECT_IO_FLAG;
1240:Generated_Source\PSoC4/CapSense_SensingCSD_LL.c **** 
1241:Generated_Source\PSoC4/CapSense_SensingCSD_LL.c ****     /* Setup ISR handler to single-sensor scan function */
1242:Generated_Source\PSoC4/CapSense_SensingCSD_LL.c ****     CapSense_ISR_StartEx(&CapSense_CSDPostSingleScan);
1243:Generated_Source\PSoC4/CapSense_SensingCSD_LL.c **** }
1244:Generated_Source\PSoC4/CapSense_SensingCSD_LL.c **** 
1245:Generated_Source\PSoC4/CapSense_SensingCSD_LL.c **** /*******************************************************************************
1246:Generated_Source\PSoC4/CapSense_SensingCSD_LL.c **** * Function Name: CapSense_SsCSDStartSample
1247:Generated_Source\PSoC4/CapSense_SensingCSD_LL.c **** ****************************************************************************//**
1248:Generated_Source\PSoC4/CapSense_SensingCSD_LL.c **** *
1249:Generated_Source\PSoC4/CapSense_SensingCSD_LL.c **** * \brief
1250:Generated_Source\PSoC4/CapSense_SensingCSD_LL.c **** *   Starts the CSD conversion.
1251:Generated_Source\PSoC4/CapSense_SensingCSD_LL.c **** *
1252:Generated_Source\PSoC4/CapSense_SensingCSD_LL.c **** * \details
1253:Generated_Source\PSoC4/CapSense_SensingCSD_LL.c **** *   This function assumes that the CSD block is already set up using
1254:Generated_Source\PSoC4/CapSense_SensingCSD_LL.c **** *   the CapSense_CSDSetupWidget API and the sensor port-pin is connected to the CSD
1255:Generated_Source\PSoC4/CapSense_SensingCSD_LL.c **** *   block using CapSense_CSDConnectSns.
1256:Generated_Source\PSoC4/CapSense_SensingCSD_LL.c **** *   For Third-generation HW block the function performs the following tasks:
1257:Generated_Source\PSoC4/CapSense_SensingCSD_LL.c **** *   1. Disconnects the Vref buffer from AMUX;
1258:Generated_Source\PSoC4/CapSense_SensingCSD_LL.c **** *   2. Precharges Cmod;
1259:Generated_Source\PSoC4/CapSense_SensingCSD_LL.c **** *   3. Makes the PreSettling delay to have a stable Vref voltage;
1260:Generated_Source\PSoC4/CapSense_SensingCSD_LL.c **** *   4. Sets the resolution to the Counter register to start scanning.
1261:Generated_Source\PSoC4/CapSense_SensingCSD_LL.c **** *
1262:Generated_Source\PSoC4/CapSense_SensingCSD_LL.c **** *******************************************************************************/
1263:Generated_Source\PSoC4/CapSense_SensingCSD_LL.c **** void CapSense_SsCSDStartSample(void)
1264:Generated_Source\PSoC4/CapSense_SensingCSD_LL.c **** {
1265:Generated_Source\PSoC4/CapSense_SensingCSD_LL.c ****     #if (CapSense_ENABLE != CapSense_CSDV2)
1266:Generated_Source\PSoC4/CapSense_SensingCSD_LL.c ****         uint8 interruptState;
1267:Generated_Source\PSoC4/CapSense_SensingCSD_LL.c ****     #endif
1268:Generated_Source\PSoC4/CapSense_SensingCSD_LL.c **** 
1269:Generated_Source\PSoC4/CapSense_SensingCSD_LL.c ****     #ifdef CapSense_START_SAMPLE_CALLBACK
1270:Generated_Source\PSoC4/CapSense_SensingCSD_LL.c ****         CapSense_StartSampleCallback(CapSense_widgetIndex, CapSense_sensorIndex);
1271:Generated_Source\PSoC4/CapSense_SensingCSD_LL.c ****     #endif /* CapSense_START_SAMPLE_CALLBACK */
1272:Generated_Source\PSoC4/CapSense_SensingCSD_LL.c **** 
1273:Generated_Source\PSoC4/CapSense_SensingCSD_LL.c ****     #if (CapSense_ENABLE == CapSense_CSDV2)
1274:Generated_Source\PSoC4/CapSense_SensingCSD_LL.c ****         /* Fourth-generation HW block section */
1275:Generated_Source\PSoC4/CapSense_SensingCSD_LL.c **** 
1276:Generated_Source\PSoC4/CapSense_SensingCSD_LL.c ****         /* Disable CSD interrupt to prevent it during coarse initialization */
1277:Generated_Source\PSoC4/CapSense_SensingCSD_LL.c ****         CyIntDisable(CapSense_ISR_NUMBER);
1278:Generated_Source\PSoC4/CapSense_SensingCSD_LL.c **** 
1279:Generated_Source\PSoC4/CapSense_SensingCSD_LL.c ****         /* Enable power to sub-blocks */
1280:Generated_Source\PSoC4/CapSense_SensingCSD_LL.c ****         CY_SET_REG32(CapSense_HSCMP_PTR, CapSense_HSCMP_INIT_MASK);
1281:Generated_Source\PSoC4/CapSense_SensingCSD_LL.c **** 
1282:Generated_Source\PSoC4/CapSense_SensingCSD_LL.c ****         #if (CapSense_ENABLE == CapSense_BLOCK_OFF_AFTER_SCAN_EN)
1283:Generated_Source\PSoC4/CapSense_SensingCSD_LL.c ****             CY_SET_REG32(CapSense_CONFIG_PTR, CapSense_configCsd |
1284:Generated_Source\PSoC4/CapSense_SensingCSD_LL.c ****                                                       CapSense_CONFIG_SENSE_EN_MASK |
1285:Generated_Source\PSoC4/CapSense_SensingCSD_LL.c ****                                                       CapSense_CONFIG_ENABLE_MASK);
1286:Generated_Source\PSoC4/CapSense_SensingCSD_LL.c ****             #if(CapSense_CSD_ANALOG_STARTUP_DELAY_US > 0uL)
1287:Generated_Source\PSoC4/CapSense_SensingCSD_LL.c ****                 CyDelayUs(CapSense_CSD_ANALOG_STARTUP_DELAY_US);
1288:Generated_Source\PSoC4/CapSense_SensingCSD_LL.c ****             #endif /* (CapSense_CSD_ANALOG_STARTUP_DELAY_US > 0uL) */
1289:Generated_Source\PSoC4/CapSense_SensingCSD_LL.c ****         #endif /* (CapSense_ENABLE == CapSense_BLOCK_OFF_AFTER_SCAN_EN) */
1290:Generated_Source\PSoC4/CapSense_SensingCSD_LL.c **** 
ARM GAS  C:\Users\220036~1\AppData\Local\Temp\cccwt0mM.s 			page 29


1291:Generated_Source\PSoC4/CapSense_SensingCSD_LL.c ****         /* Precharging Cmod and Csh */
1292:Generated_Source\PSoC4/CapSense_SensingCSD_LL.c ****         CapSense_SsCSDCmodPrecharge();
1293:Generated_Source\PSoC4/CapSense_SensingCSD_LL.c **** 
1294:Generated_Source\PSoC4/CapSense_SensingCSD_LL.c ****         /* Trigger Scan */
1295:Generated_Source\PSoC4/CapSense_SensingCSD_LL.c ****         CapSense_SsCSDTriggerScan();
1296:Generated_Source\PSoC4/CapSense_SensingCSD_LL.c **** 
1297:Generated_Source\PSoC4/CapSense_SensingCSD_LL.c ****     #else
1298:Generated_Source\PSoC4/CapSense_SensingCSD_LL.c ****         /* Third-generation HW block section */
1299:Generated_Source\PSoC4/CapSense_SensingCSD_LL.c ****         interruptState = CyEnterCriticalSection();
1300:Generated_Source\PSoC4/CapSense_SensingCSD_LL.c **** 
1301:Generated_Source\PSoC4/CapSense_SensingCSD_LL.c ****         /* Enable CSD block. Disconnect Vref Buffer from AMUX */
1302:Generated_Source\PSoC4/CapSense_SensingCSD_LL.c ****         #if ((CapSense_CSH_PRECHARGE_IO_BUF == CapSense_CSD_CSH_PRECHARGE_SRC) &&\
1303:Generated_Source\PSoC4/CapSense_SensingCSD_LL.c ****              (CapSense_ENABLE == CapSense_CSD_SHIELD_TANK_EN))
1304:Generated_Source\PSoC4/CapSense_SensingCSD_LL.c ****             CY_SET_REG32(CapSense_CONFIG_PTR, CapSense_configCsd | CapSense_CMOD_PRECHARGE_CONFIG_C
1305:Generated_Source\PSoC4/CapSense_SensingCSD_LL.c ****         #else
1306:Generated_Source\PSoC4/CapSense_SensingCSD_LL.c ****             CY_SET_REG32(CapSense_CONFIG_PTR, CapSense_configCsd | CapSense_CTANK_PRECHARGE_CONFIG_
1307:Generated_Source\PSoC4/CapSense_SensingCSD_LL.c ****         #endif /* ((CapSense_CSH_PRECHARGE_IO_BUF == CapSense_CSD_CSH_PRECHARGE_SRC) &&\
1308:Generated_Source\PSoC4/CapSense_SensingCSD_LL.c ****                    (CapSense_ENABLE == CapSense_CSD_SHIELD_TANK_EN)) */
1309:Generated_Source\PSoC4/CapSense_SensingCSD_LL.c **** 
1310:Generated_Source\PSoC4/CapSense_SensingCSD_LL.c ****         /* Restart the clocks. Scan one cycle to reset the flip-flop for Direct clock mode */
1311:Generated_Source\PSoC4/CapSense_SensingCSD_LL.c ****         CapSense_SsCSDClockRestart();
1312:Generated_Source\PSoC4/CapSense_SensingCSD_LL.c **** 
1313:Generated_Source\PSoC4/CapSense_SensingCSD_LL.c ****         /* Precharging Cmod to Vref */
1314:Generated_Source\PSoC4/CapSense_SensingCSD_LL.c ****         CapSense_SsCSDCmodPrecharge();
1315:Generated_Source\PSoC4/CapSense_SensingCSD_LL.c **** 
1316:Generated_Source\PSoC4/CapSense_SensingCSD_LL.c ****         #if (CapSense_CLK_SOURCE_DIRECT != CapSense_CSD_SNS_CLK_SOURCE)
1317:Generated_Source\PSoC4/CapSense_SensingCSD_LL.c ****             /* Set PreSettling delay to skip IDAC glitch before scanning */
1318:Generated_Source\PSoC4/CapSense_SensingCSD_LL.c ****             CyDelayCycles(CapSense_GLITCH_ELIMINATION_CYCLES);
1319:Generated_Source\PSoC4/CapSense_SensingCSD_LL.c ****         #endif /* (CapSense_CSD_SNS_CLK_SOURCE != CapSense_CLK_SOURCE_DIRECT) */
1320:Generated_Source\PSoC4/CapSense_SensingCSD_LL.c **** 
1321:Generated_Source\PSoC4/CapSense_SensingCSD_LL.c ****         /* Trigger Scan */
1322:Generated_Source\PSoC4/CapSense_SensingCSD_LL.c ****         CapSense_SsCSDTriggerScan();
1323:Generated_Source\PSoC4/CapSense_SensingCSD_LL.c **** 
1324:Generated_Source\PSoC4/CapSense_SensingCSD_LL.c ****         CyExitCriticalSection(interruptState);
1325:Generated_Source\PSoC4/CapSense_SensingCSD_LL.c ****     #endif /* (CapSense_ENABLE == CapSense_CSDV2) */
1326:Generated_Source\PSoC4/CapSense_SensingCSD_LL.c **** }
1327:Generated_Source\PSoC4/CapSense_SensingCSD_LL.c **** 
1328:Generated_Source\PSoC4/CapSense_SensingCSD_LL.c **** 
1329:Generated_Source\PSoC4/CapSense_SensingCSD_LL.c **** /*******************************************************************************
1330:Generated_Source\PSoC4/CapSense_SensingCSD_LL.c **** * Function Name: CapSense_CSDScanExt
1331:Generated_Source\PSoC4/CapSense_SensingCSD_LL.c **** ****************************************************************************//**
1332:Generated_Source\PSoC4/CapSense_SensingCSD_LL.c **** *
1333:Generated_Source\PSoC4/CapSense_SensingCSD_LL.c **** * \brief
1334:Generated_Source\PSoC4/CapSense_SensingCSD_LL.c **** *  Starts the CSD conversion on the preconfigured sensor. This function requires
1335:Generated_Source\PSoC4/CapSense_SensingCSD_LL.c **** *  using the CapSense_CSDSetupWidgetExt() function to set up the a
1336:Generated_Source\PSoC4/CapSense_SensingCSD_LL.c **** *  widget.
1337:Generated_Source\PSoC4/CapSense_SensingCSD_LL.c **** *
1338:Generated_Source\PSoC4/CapSense_SensingCSD_LL.c **** * \details
1339:Generated_Source\PSoC4/CapSense_SensingCSD_LL.c **** *  This function performs single scanning of one sensor in the widget configured
1340:Generated_Source\PSoC4/CapSense_SensingCSD_LL.c **** *  by the CapSense_CSDSetupWidgetExt() function. It does the following
1341:Generated_Source\PSoC4/CapSense_SensingCSD_LL.c **** *  tasks:
1342:Generated_Source\PSoC4/CapSense_SensingCSD_LL.c **** *    1. Sets the busy flag in the CapSense_dsRam structure.
1343:Generated_Source\PSoC4/CapSense_SensingCSD_LL.c **** *    2. Performs the clock-phase alignment of the sense and modulator clocks.
1344:Generated_Source\PSoC4/CapSense_SensingCSD_LL.c **** *    3. Performs the Cmod pre-charging.
1345:Generated_Source\PSoC4/CapSense_SensingCSD_LL.c **** *    4. Starts single scanning.
1346:Generated_Source\PSoC4/CapSense_SensingCSD_LL.c **** *
1347:Generated_Source\PSoC4/CapSense_SensingCSD_LL.c **** *  Calling this function directly from the application layer is not
ARM GAS  C:\Users\220036~1\AppData\Local\Temp\cccwt0mM.s 			page 30


1348:Generated_Source\PSoC4/CapSense_SensingCSD_LL.c **** *  recommended. This function is used to implement only the user's specific
1349:Generated_Source\PSoC4/CapSense_SensingCSD_LL.c **** *  use cases (for faster execution time or pipeline scanning for example).
1350:Generated_Source\PSoC4/CapSense_SensingCSD_LL.c **** *  This function is called when no scanning is in progress. I.e.
1351:Generated_Source\PSoC4/CapSense_SensingCSD_LL.c **** *  CapSense_IsBusy() returns a non-busy status.
1352:Generated_Source\PSoC4/CapSense_SensingCSD_LL.c **** *
1353:Generated_Source\PSoC4/CapSense_SensingCSD_LL.c **** *  The sensor must be preconfigured by using the
1354:Generated_Source\PSoC4/CapSense_SensingCSD_LL.c **** *  CapSense_CSDSetupWidgetExt() API prior to calling this function.
1355:Generated_Source\PSoC4/CapSense_SensingCSD_LL.c **** *  The sensor remains ready for a next scan if a previous scan was triggered
1356:Generated_Source\PSoC4/CapSense_SensingCSD_LL.c **** *  by using the CapSense_CSDScanExt() function. In this case, calling
1357:Generated_Source\PSoC4/CapSense_SensingCSD_LL.c **** *  CapSense_CSDSetupWidgetExt() is not required every time before the
1358:Generated_Source\PSoC4/CapSense_SensingCSD_LL.c **** *  CapSense_CSDScanExt() function. If a previous scan was triggered in
1359:Generated_Source\PSoC4/CapSense_SensingCSD_LL.c **** *  any other way - CapSense_Scan(), CapSense_ScanAllWidgets() or
1360:Generated_Source\PSoC4/CapSense_SensingCSD_LL.c **** *  CapSense_RunTuner() - (see the CapSense_RunTuner() function
1361:Generated_Source\PSoC4/CapSense_SensingCSD_LL.c **** *  description for more details), the sensor must be preconfigured again by
1362:Generated_Source\PSoC4/CapSense_SensingCSD_LL.c **** *  using the CapSense_CSDSetupWidgetExt() API prior to calling the
1363:Generated_Source\PSoC4/CapSense_SensingCSD_LL.c **** *  CapSense_CSDScanExt() function.
1364:Generated_Source\PSoC4/CapSense_SensingCSD_LL.c **** *
1365:Generated_Source\PSoC4/CapSense_SensingCSD_LL.c **** *  If disconnection of the sensors is required after calling
1366:Generated_Source\PSoC4/CapSense_SensingCSD_LL.c **** *  CapSense_CSDScanExt(), the CapSense_CSDDisconnectSns()
1367:Generated_Source\PSoC4/CapSense_SensingCSD_LL.c **** *  function can be used.
1368:Generated_Source\PSoC4/CapSense_SensingCSD_LL.c **** *
1369:Generated_Source\PSoC4/CapSense_SensingCSD_LL.c **** *******************************************************************************/
1370:Generated_Source\PSoC4/CapSense_SensingCSD_LL.c **** void CapSense_CSDScanExt(void)
1371:Generated_Source\PSoC4/CapSense_SensingCSD_LL.c **** {
1372:Generated_Source\PSoC4/CapSense_SensingCSD_LL.c ****     /* Set Start of sensor scan flag */
1373:Generated_Source\PSoC4/CapSense_SensingCSD_LL.c ****     CapSense_dsRam.status |= (CapSense_SW_STS_BUSY | CapSense_WDGT_SW_STS_BUSY);
1374:Generated_Source\PSoC4/CapSense_SensingCSD_LL.c **** 
1375:Generated_Source\PSoC4/CapSense_SensingCSD_LL.c ****     #if (CapSense_ENABLE == CapSense_MULTI_FREQ_SCAN_EN)
1376:Generated_Source\PSoC4/CapSense_SensingCSD_LL.c ****         /* Reset the frequency scan channel if enabled */
1377:Generated_Source\PSoC4/CapSense_SensingCSD_LL.c ****         CapSense_scanFreqIndex = CapSense_FREQ_CHANNEL_0;
1378:Generated_Source\PSoC4/CapSense_SensingCSD_LL.c ****     #endif /* (CapSense_ENABLE == CapSense_MULTI_FREQ_SCAN_EN) */
1379:Generated_Source\PSoC4/CapSense_SensingCSD_LL.c **** 
1380:Generated_Source\PSoC4/CapSense_SensingCSD_LL.c ****     #if (CapSense_ENABLE != CapSense_BLOCK_OFF_AFTER_SCAN_EN) &&\
1381:Generated_Source\PSoC4/CapSense_SensingCSD_LL.c ****         (CapSense_ENABLE == CapSense_CSDV2)
1382:Generated_Source\PSoC4/CapSense_SensingCSD_LL.c ****         #if(CapSense_CSD_ANALOG_STARTUP_DELAY_US > 0uL)
1383:Generated_Source\PSoC4/CapSense_SensingCSD_LL.c ****             CyDelayUs(CapSense_CSD_ANALOG_STARTUP_DELAY_US);
1384:Generated_Source\PSoC4/CapSense_SensingCSD_LL.c ****         #endif /* (CapSense_CSD_ANALOG_STARTUP_DELAY_US > 0uL) */
1385:Generated_Source\PSoC4/CapSense_SensingCSD_LL.c ****     #endif /* (CapSense_ENABLE != CapSense_BLOCK_OFF_AFTER_SCAN_EN) &&\
1386:Generated_Source\PSoC4/CapSense_SensingCSD_LL.c ****               (CapSense_ENABLE == CapSense_CSDV2)*/
1387:Generated_Source\PSoC4/CapSense_SensingCSD_LL.c **** 
1388:Generated_Source\PSoC4/CapSense_SensingCSD_LL.c ****     CapSense_SsCSDStartSample();
1389:Generated_Source\PSoC4/CapSense_SensingCSD_LL.c **** }
1390:Generated_Source\PSoC4/CapSense_SensingCSD_LL.c **** 
1391:Generated_Source\PSoC4/CapSense_SensingCSD_LL.c **** 
1392:Generated_Source\PSoC4/CapSense_SensingCSD_LL.c **** /*******************************************************************************
1393:Generated_Source\PSoC4/CapSense_SensingCSD_LL.c **** * Function Name: CapSense_CSDScan
1394:Generated_Source\PSoC4/CapSense_SensingCSD_LL.c **** ****************************************************************************//**
1395:Generated_Source\PSoC4/CapSense_SensingCSD_LL.c **** *
1396:Generated_Source\PSoC4/CapSense_SensingCSD_LL.c **** * \brief
1397:Generated_Source\PSoC4/CapSense_SensingCSD_LL.c **** *  This function initiates a scan for the sensors of the widget initialized by the
1398:Generated_Source\PSoC4/CapSense_SensingCSD_LL.c **** *  CapSense_CSDSetupWidget() function.
1399:Generated_Source\PSoC4/CapSense_SensingCSD_LL.c **** *
1400:Generated_Source\PSoC4/CapSense_SensingCSD_LL.c **** * \details
1401:Generated_Source\PSoC4/CapSense_SensingCSD_LL.c **** *  This function performs scanning of all the sensors in the widget configured by
1402:Generated_Source\PSoC4/CapSense_SensingCSD_LL.c **** *  the CapSense_CSDSetupWidget() function. It does the following tasks:
1403:Generated_Source\PSoC4/CapSense_SensingCSD_LL.c **** *    1. Connects the first sensor of the widget.
1404:Generated_Source\PSoC4/CapSense_SensingCSD_LL.c **** *    2. Configures the IDAC value.
ARM GAS  C:\Users\220036~1\AppData\Local\Temp\cccwt0mM.s 			page 31


1405:Generated_Source\PSoC4/CapSense_SensingCSD_LL.c **** *    3. Initializes the interrupt callback function to initialize a scan of
1406:Generated_Source\PSoC4/CapSense_SensingCSD_LL.c **** *       the next sensors in a widget.
1407:Generated_Source\PSoC4/CapSense_SensingCSD_LL.c **** *    4. Starts scanning for the first sensor in the widget.
1408:Generated_Source\PSoC4/CapSense_SensingCSD_LL.c **** *
1409:Generated_Source\PSoC4/CapSense_SensingCSD_LL.c **** *  This function is called by the CapSense_Scan() API if the given
1410:Generated_Source\PSoC4/CapSense_SensingCSD_LL.c **** *  widget uses the CSD sensing method.
1411:Generated_Source\PSoC4/CapSense_SensingCSD_LL.c **** *
1412:Generated_Source\PSoC4/CapSense_SensingCSD_LL.c **** *  Calling this function directly from the application layer is not
1413:Generated_Source\PSoC4/CapSense_SensingCSD_LL.c **** *  recommended. This function is used to implement only the user's specific
1414:Generated_Source\PSoC4/CapSense_SensingCSD_LL.c **** *  use cases (for faster execution time or pipeline scanning for example).
1415:Generated_Source\PSoC4/CapSense_SensingCSD_LL.c **** *
1416:Generated_Source\PSoC4/CapSense_SensingCSD_LL.c **** *  This function is called when no scanning is in progress. I.e.
1417:Generated_Source\PSoC4/CapSense_SensingCSD_LL.c **** *  CapSense_IsBusy() returns a non-busy status. The widget must be
1418:Generated_Source\PSoC4/CapSense_SensingCSD_LL.c **** *  preconfigured by the CapSense_CSDSetupWidget() function if any other
1419:Generated_Source\PSoC4/CapSense_SensingCSD_LL.c **** *  widget was previously scanned or any other type of the scan functions was used.
1420:Generated_Source\PSoC4/CapSense_SensingCSD_LL.c **** *
1421:Generated_Source\PSoC4/CapSense_SensingCSD_LL.c **** *******************************************************************************/
1422:Generated_Source\PSoC4/CapSense_SensingCSD_LL.c **** void CapSense_CSDScan(void)
1423:Generated_Source\PSoC4/CapSense_SensingCSD_LL.c **** {
1424:Generated_Source\PSoC4/CapSense_SensingCSD_LL.c ****     CapSense_RAM_WD_BASE_STRUCT const *ptrWdgt = (CapSense_RAM_WD_BASE_STRUCT *)
1425:Generated_Source\PSoC4/CapSense_SensingCSD_LL.c ****                                                     CapSense_dsFlash.wdgtArray[CapSense_widgetIndex
1426:Generated_Source\PSoC4/CapSense_SensingCSD_LL.c **** 
1427:Generated_Source\PSoC4/CapSense_SensingCSD_LL.c ****      /*
1428:Generated_Source\PSoC4/CapSense_SensingCSD_LL.c ****       * Update CapSense_sensorIndex with the first sensor in
1429:Generated_Source\PSoC4/CapSense_SensingCSD_LL.c ****       * widget to use it in ISR handler to configure the next sensor
1430:Generated_Source\PSoC4/CapSense_SensingCSD_LL.c ****       */
1431:Generated_Source\PSoC4/CapSense_SensingCSD_LL.c ****     CapSense_sensorIndex = 0u;
1432:Generated_Source\PSoC4/CapSense_SensingCSD_LL.c **** 
1433:Generated_Source\PSoC4/CapSense_SensingCSD_LL.c ****     /* Update global pointer to CapSense_RAM_SNS_STRUCT to current sensor  */
1434:Generated_Source\PSoC4/CapSense_SensingCSD_LL.c ****     CapSense_curRamSnsPtr = (CapSense_RAM_SNS_STRUCT *)
1435:Generated_Source\PSoC4/CapSense_SensingCSD_LL.c ****                                               CapSense_dsFlash.wdgtArray[CapSense_widgetIndex].ptr2
1436:Generated_Source\PSoC4/CapSense_SensingCSD_LL.c ****                                               + CapSense_sensorIndex;
1437:Generated_Source\PSoC4/CapSense_SensingCSD_LL.c **** 
1438:Generated_Source\PSoC4/CapSense_SensingCSD_LL.c ****     #if (CapSense_ENABLE == CapSense_MULTI_FREQ_SCAN_EN)
1439:Generated_Source\PSoC4/CapSense_SensingCSD_LL.c ****         /* Reset the frequency scan channel if enabled */
1440:Generated_Source\PSoC4/CapSense_SensingCSD_LL.c ****         CapSense_scanFreqIndex = CapSense_FREQ_CHANNEL_0;
1441:Generated_Source\PSoC4/CapSense_SensingCSD_LL.c ****     #endif /* (CapSense_ENABLE == CapSense_MULTI_FREQ_SCAN_EN) */
1442:Generated_Source\PSoC4/CapSense_SensingCSD_LL.c **** 
1443:Generated_Source\PSoC4/CapSense_SensingCSD_LL.c ****     /* Setup Idac Value */
1444:Generated_Source\PSoC4/CapSense_SensingCSD_LL.c ****    CapSense_SsCSDSetUpIdacs(ptrWdgt);
1445:Generated_Source\PSoC4/CapSense_SensingCSD_LL.c **** 
1446:Generated_Source\PSoC4/CapSense_SensingCSD_LL.c ****     #if (CapSense_ENABLE == CapSense_CSD_GANGED_SNS_EN)
1447:Generated_Source\PSoC4/CapSense_SensingCSD_LL.c ****         /* Check ganged sns flag  */
1448:Generated_Source\PSoC4/CapSense_SensingCSD_LL.c ****         if (CapSense_GANGED_SNS_MASK == (CapSense_dsFlash.wdgtArray[CapSense_widgetIndex].staticCon
1449:Generated_Source\PSoC4/CapSense_SensingCSD_LL.c ****             CapSense_GANGED_SNS_MASK))
1450:Generated_Source\PSoC4/CapSense_SensingCSD_LL.c ****         {
1451:Generated_Source\PSoC4/CapSense_SensingCSD_LL.c ****             /* Setup ISR handler to multiple-sensor scan function with ganged sensors */
1452:Generated_Source\PSoC4/CapSense_SensingCSD_LL.c ****             CapSense_ISR_StartEx(&CapSense_CSDPostMultiScanGanged);
1453:Generated_Source\PSoC4/CapSense_SensingCSD_LL.c ****         }
1454:Generated_Source\PSoC4/CapSense_SensingCSD_LL.c ****         else
1455:Generated_Source\PSoC4/CapSense_SensingCSD_LL.c ****         {
1456:Generated_Source\PSoC4/CapSense_SensingCSD_LL.c ****             /* Set up ISR handler to multiple-sensor scan function without ganged sensors */
1457:Generated_Source\PSoC4/CapSense_SensingCSD_LL.c ****             CapSense_ISR_StartEx(&CapSense_CSDPostMultiScan);
1458:Generated_Source\PSoC4/CapSense_SensingCSD_LL.c ****         }
1459:Generated_Source\PSoC4/CapSense_SensingCSD_LL.c **** 
1460:Generated_Source\PSoC4/CapSense_SensingCSD_LL.c ****         CapSense_SsCSDConnectSensorExt((uint32)CapSense_widgetIndex, (uint32)CapSense_sensorIndex);
1461:Generated_Source\PSoC4/CapSense_SensingCSD_LL.c ****     #else
ARM GAS  C:\Users\220036~1\AppData\Local\Temp\cccwt0mM.s 			page 32


1462:Generated_Source\PSoC4/CapSense_SensingCSD_LL.c ****         /* initialize ptr to sensor IO structure to appropriate address */
1463:Generated_Source\PSoC4/CapSense_SensingCSD_LL.c ****         CapSense_curSnsIOPtr = (CapSense_FLASH_IO_STRUCT const *)
1464:Generated_Source\PSoC4/CapSense_SensingCSD_LL.c ****                                         CapSense_dsFlash.wdgtArray[CapSense_widgetIndex].ptr2SnsFla
1465:Generated_Source\PSoC4/CapSense_SensingCSD_LL.c ****                                         + CapSense_sensorIndex;
1466:Generated_Source\PSoC4/CapSense_SensingCSD_LL.c **** 
1467:Generated_Source\PSoC4/CapSense_SensingCSD_LL.c ****         /* Enable sensor */
1468:Generated_Source\PSoC4/CapSense_SensingCSD_LL.c ****         CapSense_CSDConnectSns(CapSense_curSnsIOPtr);
1469:Generated_Source\PSoC4/CapSense_SensingCSD_LL.c **** 
1470:Generated_Source\PSoC4/CapSense_SensingCSD_LL.c ****         /* Set-up ISR handler to multiple-sensor scan function without ganged sensors */
1471:Generated_Source\PSoC4/CapSense_SensingCSD_LL.c ****         CapSense_ISR_StartEx(&CapSense_CSDPostMultiScan);
1472:Generated_Source\PSoC4/CapSense_SensingCSD_LL.c ****     #endif /* (CapSense_ENABLE == CapSense_CSD_GANGED_SNS_EN)  */
1473:Generated_Source\PSoC4/CapSense_SensingCSD_LL.c **** 
1474:Generated_Source\PSoC4/CapSense_SensingCSD_LL.c ****     /* Start scanning */
1475:Generated_Source\PSoC4/CapSense_SensingCSD_LL.c ****     CapSense_CSDScanExt();
1476:Generated_Source\PSoC4/CapSense_SensingCSD_LL.c **** }
1477:Generated_Source\PSoC4/CapSense_SensingCSD_LL.c **** 
1478:Generated_Source\PSoC4/CapSense_SensingCSD_LL.c **** 
1479:Generated_Source\PSoC4/CapSense_SensingCSD_LL.c **** /*******************************************************************************
1480:Generated_Source\PSoC4/CapSense_SensingCSD_LL.c **** * Function Name: CapSense_SsCSDConnectSensorExt
1481:Generated_Source\PSoC4/CapSense_SensingCSD_LL.c **** ****************************************************************************//**
1482:Generated_Source\PSoC4/CapSense_SensingCSD_LL.c **** *
1483:Generated_Source\PSoC4/CapSense_SensingCSD_LL.c **** * \brief
1484:Generated_Source\PSoC4/CapSense_SensingCSD_LL.c **** *  Connects a ganged sensor port-pin to the sensing HW block via the AMUX bus.
1485:Generated_Source\PSoC4/CapSense_SensingCSD_LL.c **** *
1486:Generated_Source\PSoC4/CapSense_SensingCSD_LL.c **** * \details
1487:Generated_Source\PSoC4/CapSense_SensingCSD_LL.c **** *   The function gets the IO configuration registers addresses, their shifts and
1488:Generated_Source\PSoC4/CapSense_SensingCSD_LL.c **** *   masks from the FLASH_IO_STRUCT object. Basing on this data, it updates the HSIOM and
1489:Generated_Source\PSoC4/CapSense_SensingCSD_LL.c **** *   PC registers.
1490:Generated_Source\PSoC4/CapSense_SensingCSD_LL.c **** *
1491:Generated_Source\PSoC4/CapSense_SensingCSD_LL.c **** * \param widgetId
1492:Generated_Source\PSoC4/CapSense_SensingCSD_LL.c **** *  Specifies ID of the widget.
1493:Generated_Source\PSoC4/CapSense_SensingCSD_LL.c **** *
1494:Generated_Source\PSoC4/CapSense_SensingCSD_LL.c **** * \param sensorId
1495:Generated_Source\PSoC4/CapSense_SensingCSD_LL.c **** *  Specifies ID of the sensor in the widget.
1496:Generated_Source\PSoC4/CapSense_SensingCSD_LL.c **** *
1497:Generated_Source\PSoC4/CapSense_SensingCSD_LL.c **** *******************************************************************************/
1498:Generated_Source\PSoC4/CapSense_SensingCSD_LL.c **** void CapSense_SsCSDConnectSensorExt(uint32 widgetId, uint32 sensorId)
1499:Generated_Source\PSoC4/CapSense_SensingCSD_LL.c **** {
1500:Generated_Source\PSoC4/CapSense_SensingCSD_LL.c ****     #if (CapSense_ENABLE == CapSense_CSD_GANGED_SNS_EN)
1501:Generated_Source\PSoC4/CapSense_SensingCSD_LL.c ****         uint32 tempVal;
1502:Generated_Source\PSoC4/CapSense_SensingCSD_LL.c ****     #endif /* (CapSense_ENABLE == CapSense_CSD_GANGED_SNS_EN) */
1503:Generated_Source\PSoC4/CapSense_SensingCSD_LL.c **** 
1504:Generated_Source\PSoC4/CapSense_SensingCSD_LL.c ****     /* initialize ptr to sensor IO structure to appropriate address */
1505:Generated_Source\PSoC4/CapSense_SensingCSD_LL.c ****     CapSense_curSnsIOPtr = (CapSense_FLASH_IO_STRUCT const *)
1506:Generated_Source\PSoC4/CapSense_SensingCSD_LL.c ****                                                       CapSense_dsFlash.wdgtArray[widgetId].ptr2SnsF
1507:Generated_Source\PSoC4/CapSense_SensingCSD_LL.c ****                                                       + sensorId;
1508:Generated_Source\PSoC4/CapSense_SensingCSD_LL.c **** 
1509:Generated_Source\PSoC4/CapSense_SensingCSD_LL.c ****     #if (CapSense_ENABLE == CapSense_CSD_GANGED_SNS_EN)
1510:Generated_Source\PSoC4/CapSense_SensingCSD_LL.c ****         /* Check ganged sns flag  */
1511:Generated_Source\PSoC4/CapSense_SensingCSD_LL.c ****         if (CapSense_GANGED_SNS_MASK ==
1512:Generated_Source\PSoC4/CapSense_SensingCSD_LL.c ****            (CapSense_dsFlash.wdgtArray[widgetId].staticConfig &
1513:Generated_Source\PSoC4/CapSense_SensingCSD_LL.c ****             CapSense_GANGED_SNS_MASK))
1514:Generated_Source\PSoC4/CapSense_SensingCSD_LL.c ****         {
1515:Generated_Source\PSoC4/CapSense_SensingCSD_LL.c ****             /* Get sns pointer */
1516:Generated_Source\PSoC4/CapSense_SensingCSD_LL.c ****             CapSense_curFlashSnsPtr = (CapSense_FLASH_SNS_STRUCT const *)
1517:Generated_Source\PSoC4/CapSense_SensingCSD_LL.c ****                                                CapSense_dsFlash.wdgtArray[widgetId].ptr2SnsFlash +
1518:Generated_Source\PSoC4/CapSense_SensingCSD_LL.c ****                                                sensorId;
ARM GAS  C:\Users\220036~1\AppData\Local\Temp\cccwt0mM.s 			page 33


1519:Generated_Source\PSoC4/CapSense_SensingCSD_LL.c **** 
1520:Generated_Source\PSoC4/CapSense_SensingCSD_LL.c ****             /* Get number of ganged pins */
1521:Generated_Source\PSoC4/CapSense_SensingCSD_LL.c ****             tempVal = CapSense_curFlashSnsPtr->numPins;
1522:Generated_Source\PSoC4/CapSense_SensingCSD_LL.c **** 
1523:Generated_Source\PSoC4/CapSense_SensingCSD_LL.c ****             /* Get IO pointer  */
1524:Generated_Source\PSoC4/CapSense_SensingCSD_LL.c ****             CapSense_curSnsIOPtr = &CapSense_ioList[CapSense_curFlashSnsPtr->firstPinId];
1525:Generated_Source\PSoC4/CapSense_SensingCSD_LL.c **** 
1526:Generated_Source\PSoC4/CapSense_SensingCSD_LL.c ****             /* Connect all ganged sensors  */
1527:Generated_Source\PSoC4/CapSense_SensingCSD_LL.c ****             do
1528:Generated_Source\PSoC4/CapSense_SensingCSD_LL.c ****             {
1529:Generated_Source\PSoC4/CapSense_SensingCSD_LL.c ****                 CapSense_CSDConnectSns(CapSense_curSnsIOPtr);
1530:Generated_Source\PSoC4/CapSense_SensingCSD_LL.c ****                 CapSense_curSnsIOPtr++;
1531:Generated_Source\PSoC4/CapSense_SensingCSD_LL.c ****                 tempVal--;
1532:Generated_Source\PSoC4/CapSense_SensingCSD_LL.c ****             } while (0u != tempVal);
1533:Generated_Source\PSoC4/CapSense_SensingCSD_LL.c ****         }
1534:Generated_Source\PSoC4/CapSense_SensingCSD_LL.c ****         else
1535:Generated_Source\PSoC4/CapSense_SensingCSD_LL.c ****         {
1536:Generated_Source\PSoC4/CapSense_SensingCSD_LL.c ****             /* Connect sensor */
1537:Generated_Source\PSoC4/CapSense_SensingCSD_LL.c ****             CapSense_CSDConnectSns(CapSense_curSnsIOPtr);
1538:Generated_Source\PSoC4/CapSense_SensingCSD_LL.c ****         }
1539:Generated_Source\PSoC4/CapSense_SensingCSD_LL.c ****     #else
1540:Generated_Source\PSoC4/CapSense_SensingCSD_LL.c ****         /* Connect sensor */
1541:Generated_Source\PSoC4/CapSense_SensingCSD_LL.c ****         CapSense_CSDConnectSns(CapSense_curSnsIOPtr);
1542:Generated_Source\PSoC4/CapSense_SensingCSD_LL.c ****     #endif /* (CapSense_ENABLE == CapSense_CSD_GANGED_SNS_EN) */
1543:Generated_Source\PSoC4/CapSense_SensingCSD_LL.c **** }
1544:Generated_Source\PSoC4/CapSense_SensingCSD_LL.c **** 
1545:Generated_Source\PSoC4/CapSense_SensingCSD_LL.c **** 
1546:Generated_Source\PSoC4/CapSense_SensingCSD_LL.c **** /*******************************************************************************
1547:Generated_Source\PSoC4/CapSense_SensingCSD_LL.c **** * Function Name: CapSense_SsCSDDisconnectSnsExt
1548:Generated_Source\PSoC4/CapSense_SensingCSD_LL.c **** ****************************************************************************//**
1549:Generated_Source\PSoC4/CapSense_SensingCSD_LL.c **** *
1550:Generated_Source\PSoC4/CapSense_SensingCSD_LL.c **** * \brief
1551:Generated_Source\PSoC4/CapSense_SensingCSD_LL.c **** *  Disconnects a ganged sensor port-pin from the sensing HW block and AMUX bus.
1552:Generated_Source\PSoC4/CapSense_SensingCSD_LL.c **** *  Sets the default state of the un-scanned sensor.
1553:Generated_Source\PSoC4/CapSense_SensingCSD_LL.c **** *
1554:Generated_Source\PSoC4/CapSense_SensingCSD_LL.c **** * \details
1555:Generated_Source\PSoC4/CapSense_SensingCSD_LL.c **** *   The function gets the IO configuration registers addresses, their shifts and
1556:Generated_Source\PSoC4/CapSense_SensingCSD_LL.c **** *   masks from the FLASH_IO_STRUCT object. Basing on this data and Inactive sensor
1557:Generated_Source\PSoC4/CapSense_SensingCSD_LL.c **** *   connection parameter, it updates the HSIOM, PC and DR registers.
1558:Generated_Source\PSoC4/CapSense_SensingCSD_LL.c **** *   The HSIOM register is updated only when the Inactive sensor connection parameter
1559:Generated_Source\PSoC4/CapSense_SensingCSD_LL.c **** *   is set to Shield.
1560:Generated_Source\PSoC4/CapSense_SensingCSD_LL.c **** *
1561:Generated_Source\PSoC4/CapSense_SensingCSD_LL.c **** * \param widgetId
1562:Generated_Source\PSoC4/CapSense_SensingCSD_LL.c **** *  Specifies ID of the widget.
1563:Generated_Source\PSoC4/CapSense_SensingCSD_LL.c **** *
1564:Generated_Source\PSoC4/CapSense_SensingCSD_LL.c **** * \param sensorId
1565:Generated_Source\PSoC4/CapSense_SensingCSD_LL.c **** *  Specifies ID of the sensor in the widget.
1566:Generated_Source\PSoC4/CapSense_SensingCSD_LL.c **** *
1567:Generated_Source\PSoC4/CapSense_SensingCSD_LL.c **** *******************************************************************************/
1568:Generated_Source\PSoC4/CapSense_SensingCSD_LL.c **** void CapSense_SsCSDDisconnectSnsExt(uint32 widgetId, uint32 sensorId)
1569:Generated_Source\PSoC4/CapSense_SensingCSD_LL.c **** {
1570:Generated_Source\PSoC4/CapSense_SensingCSD_LL.c ****     #if (CapSense_ENABLE == CapSense_CSD_GANGED_SNS_EN)
1571:Generated_Source\PSoC4/CapSense_SensingCSD_LL.c ****         uint32 tempVal;
1572:Generated_Source\PSoC4/CapSense_SensingCSD_LL.c ****     #endif /* (CapSense_ENABLE == CapSense_CSD_GANGED_SNS_EN) */
1573:Generated_Source\PSoC4/CapSense_SensingCSD_LL.c **** 
1574:Generated_Source\PSoC4/CapSense_SensingCSD_LL.c ****     /* initialize ptr to sensor IO structure to appropriate address        */
1575:Generated_Source\PSoC4/CapSense_SensingCSD_LL.c ****     CapSense_curSnsIOPtr = (CapSense_FLASH_IO_STRUCT const *)
ARM GAS  C:\Users\220036~1\AppData\Local\Temp\cccwt0mM.s 			page 34


1576:Generated_Source\PSoC4/CapSense_SensingCSD_LL.c ****                                                       CapSense_dsFlash.wdgtArray[widgetId].ptr2SnsF
1577:Generated_Source\PSoC4/CapSense_SensingCSD_LL.c ****                                                       + sensorId;
1578:Generated_Source\PSoC4/CapSense_SensingCSD_LL.c **** 
1579:Generated_Source\PSoC4/CapSense_SensingCSD_LL.c ****     #if (CapSense_ENABLE == CapSense_CSD_GANGED_SNS_EN)
1580:Generated_Source\PSoC4/CapSense_SensingCSD_LL.c ****         /* Check ganged sns flag  */
1581:Generated_Source\PSoC4/CapSense_SensingCSD_LL.c ****         if ((CapSense_dsFlash.wdgtArray[widgetId].staticConfig &
1582:Generated_Source\PSoC4/CapSense_SensingCSD_LL.c ****             CapSense_GANGED_SNS_MASK) == CapSense_GANGED_SNS_MASK)
1583:Generated_Source\PSoC4/CapSense_SensingCSD_LL.c ****         {
1584:Generated_Source\PSoC4/CapSense_SensingCSD_LL.c ****             /* Get sns pointer */
1585:Generated_Source\PSoC4/CapSense_SensingCSD_LL.c ****             CapSense_curFlashSnsPtr = (CapSense_FLASH_SNS_STRUCT const *)
1586:Generated_Source\PSoC4/CapSense_SensingCSD_LL.c ****                                                CapSense_dsFlash.wdgtArray[widgetId].ptr2SnsFlash +
1587:Generated_Source\PSoC4/CapSense_SensingCSD_LL.c ****                                                sensorId;
1588:Generated_Source\PSoC4/CapSense_SensingCSD_LL.c **** 
1589:Generated_Source\PSoC4/CapSense_SensingCSD_LL.c ****             /* Get number of ganged pins */
1590:Generated_Source\PSoC4/CapSense_SensingCSD_LL.c ****             tempVal = CapSense_curFlashSnsPtr->numPins;
1591:Generated_Source\PSoC4/CapSense_SensingCSD_LL.c **** 
1592:Generated_Source\PSoC4/CapSense_SensingCSD_LL.c ****             /* Get IO pointer  */
1593:Generated_Source\PSoC4/CapSense_SensingCSD_LL.c ****             CapSense_curSnsIOPtr = &CapSense_ioList[CapSense_curFlashSnsPtr->firstPinId];
1594:Generated_Source\PSoC4/CapSense_SensingCSD_LL.c **** 
1595:Generated_Source\PSoC4/CapSense_SensingCSD_LL.c ****             /* Disconnect all ganged sensors */
1596:Generated_Source\PSoC4/CapSense_SensingCSD_LL.c ****             do
1597:Generated_Source\PSoC4/CapSense_SensingCSD_LL.c ****             {
1598:Generated_Source\PSoC4/CapSense_SensingCSD_LL.c ****                 CapSense_CSDDisconnectSns(CapSense_curSnsIOPtr);
1599:Generated_Source\PSoC4/CapSense_SensingCSD_LL.c ****                 CapSense_curSnsIOPtr++;
1600:Generated_Source\PSoC4/CapSense_SensingCSD_LL.c ****                 tempVal--;
1601:Generated_Source\PSoC4/CapSense_SensingCSD_LL.c ****             } while (0u != tempVal);
1602:Generated_Source\PSoC4/CapSense_SensingCSD_LL.c ****         }
1603:Generated_Source\PSoC4/CapSense_SensingCSD_LL.c ****         else
1604:Generated_Source\PSoC4/CapSense_SensingCSD_LL.c ****         {
1605:Generated_Source\PSoC4/CapSense_SensingCSD_LL.c ****             /* Disconnect ganged sensor */
1606:Generated_Source\PSoC4/CapSense_SensingCSD_LL.c ****             CapSense_CSDDisconnectSns(CapSense_curSnsIOPtr);
1607:Generated_Source\PSoC4/CapSense_SensingCSD_LL.c ****         }
1608:Generated_Source\PSoC4/CapSense_SensingCSD_LL.c ****     #else
1609:Generated_Source\PSoC4/CapSense_SensingCSD_LL.c ****         /* Disconnect ganged sensor */
1610:Generated_Source\PSoC4/CapSense_SensingCSD_LL.c ****         CapSense_CSDDisconnectSns(CapSense_curSnsIOPtr);
1611:Generated_Source\PSoC4/CapSense_SensingCSD_LL.c ****     #endif /* (CapSense_ENABLE == CapSense_CSD_GANGED_SNS_EN) */
1612:Generated_Source\PSoC4/CapSense_SensingCSD_LL.c **** }
1613:Generated_Source\PSoC4/CapSense_SensingCSD_LL.c **** 
1614:Generated_Source\PSoC4/CapSense_SensingCSD_LL.c **** 
1615:Generated_Source\PSoC4/CapSense_SensingCSD_LL.c **** /*******************************************************************************
1616:Generated_Source\PSoC4/CapSense_SensingCSD_LL.c **** * Function Name: CapSense_CSDConnectSns
1617:Generated_Source\PSoC4/CapSense_SensingCSD_LL.c **** ****************************************************************************//**
1618:Generated_Source\PSoC4/CapSense_SensingCSD_LL.c **** *
1619:Generated_Source\PSoC4/CapSense_SensingCSD_LL.c **** * \brief
1620:Generated_Source\PSoC4/CapSense_SensingCSD_LL.c **** *  Connects a port pin used by the sensor to the AMUX bus of the sensing HW block.
1621:Generated_Source\PSoC4/CapSense_SensingCSD_LL.c **** *
1622:Generated_Source\PSoC4/CapSense_SensingCSD_LL.c **** * \details
1623:Generated_Source\PSoC4/CapSense_SensingCSD_LL.c **** *  Connects a port pin used by the sensor to the AMUX bus of the sensing HW block
1624:Generated_Source\PSoC4/CapSense_SensingCSD_LL.c **** *  while a sensor is being scanned. The function ignores the fact if
1625:Generated_Source\PSoC4/CapSense_SensingCSD_LL.c **** *  the sensor is a ganged sensor and connects only a specified pin.
1626:Generated_Source\PSoC4/CapSense_SensingCSD_LL.c **** *
1627:Generated_Source\PSoC4/CapSense_SensingCSD_LL.c **** *  Scanning should be completed before calling this API.
1628:Generated_Source\PSoC4/CapSense_SensingCSD_LL.c **** *
1629:Generated_Source\PSoC4/CapSense_SensingCSD_LL.c **** *  Calling this function directly from the application layer is not
1630:Generated_Source\PSoC4/CapSense_SensingCSD_LL.c **** *  recommended. This function is used to implement only the user's specific
1631:Generated_Source\PSoC4/CapSense_SensingCSD_LL.c **** *  use cases. Functions that perform a setup and scan of a sensor/widget,
1632:Generated_Source\PSoC4/CapSense_SensingCSD_LL.c **** *  automatically set the required pin states and perform the sensor connection.
ARM GAS  C:\Users\220036~1\AppData\Local\Temp\cccwt0mM.s 			page 35


1633:Generated_Source\PSoC4/CapSense_SensingCSD_LL.c **** *  They do not take into account changes in the design made by the
1634:Generated_Source\PSoC4/CapSense_SensingCSD_LL.c **** *  CapSense_CSDConnectSns() function.
1635:Generated_Source\PSoC4/CapSense_SensingCSD_LL.c **** *
1636:Generated_Source\PSoC4/CapSense_SensingCSD_LL.c **** * \param  snsAddrPtr
1637:Generated_Source\PSoC4/CapSense_SensingCSD_LL.c **** *  Specifies the pointer to the FLASH_IO_STRUCT object belonging to a sensor
1638:Generated_Source\PSoC4/CapSense_SensingCSD_LL.c **** *  which to be connected to the sensing HW block.
1639:Generated_Source\PSoC4/CapSense_SensingCSD_LL.c **** *
1640:Generated_Source\PSoC4/CapSense_SensingCSD_LL.c **** *******************************************************************************/
1641:Generated_Source\PSoC4/CapSense_SensingCSD_LL.c **** void CapSense_CSDConnectSns(CapSense_FLASH_IO_STRUCT const *snsAddrPtr)
1642:Generated_Source\PSoC4/CapSense_SensingCSD_LL.c **** {
1643:Generated_Source\PSoC4/CapSense_SensingCSD_LL.c ****     uint32 newRegisterValue;
1644:Generated_Source\PSoC4/CapSense_SensingCSD_LL.c ****     uint8  interruptState;
1645:Generated_Source\PSoC4/CapSense_SensingCSD_LL.c ****     uint32 pinModeShift;
1646:Generated_Source\PSoC4/CapSense_SensingCSD_LL.c ****     uint32 pinHSIOMShift;
1647:Generated_Source\PSoC4/CapSense_SensingCSD_LL.c **** 
1648:Generated_Source\PSoC4/CapSense_SensingCSD_LL.c ****     /* Get offsets for sensor */
1649:Generated_Source\PSoC4/CapSense_SensingCSD_LL.c ****     pinModeShift = (uint32)snsAddrPtr->shift;
1650:Generated_Source\PSoC4/CapSense_SensingCSD_LL.c ****     pinHSIOMShift = (uint32)snsAddrPtr->hsiomShift;
1651:Generated_Source\PSoC4/CapSense_SensingCSD_LL.c **** 
1652:Generated_Source\PSoC4/CapSense_SensingCSD_LL.c ****     interruptState = CyEnterCriticalSection();
1653:Generated_Source\PSoC4/CapSense_SensingCSD_LL.c **** 
1654:Generated_Source\PSoC4/CapSense_SensingCSD_LL.c ****     /* Use temporary variable to update registers without multiple writings to them */
1655:Generated_Source\PSoC4/CapSense_SensingCSD_LL.c ****     newRegisterValue = CY_GET_REG32(snsAddrPtr->hsiomPtr);
1656:Generated_Source\PSoC4/CapSense_SensingCSD_LL.c ****     newRegisterValue &= ~(CapSense_HSIOM_SEL_MASK << pinHSIOMShift);
1657:Generated_Source\PSoC4/CapSense_SensingCSD_LL.c ****     newRegisterValue |= (uint32)((uint32)CapSense_HSIOM_SEL_CSD_SENSE << pinHSIOMShift);
1658:Generated_Source\PSoC4/CapSense_SensingCSD_LL.c **** 
1659:Generated_Source\PSoC4/CapSense_SensingCSD_LL.c ****     /* Update port configuration register (drive mode) for sensor */
1660:Generated_Source\PSoC4/CapSense_SensingCSD_LL.c ****     CY_SET_REG32(snsAddrPtr->pcPtr, CY_GET_REG32(snsAddrPtr->pcPtr) & (uint32)~((uint32)CapSense_GP
1661:Generated_Source\PSoC4/CapSense_SensingCSD_LL.c **** 
1662:Generated_Source\PSoC4/CapSense_SensingCSD_LL.c ****     /* Update HSIOM register for sensor */
1663:Generated_Source\PSoC4/CapSense_SensingCSD_LL.c ****     CY_SET_REG32(snsAddrPtr->hsiomPtr, newRegisterValue);
1664:Generated_Source\PSoC4/CapSense_SensingCSD_LL.c **** 
1665:Generated_Source\PSoC4/CapSense_SensingCSD_LL.c ****     CyExitCriticalSection(interruptState);
1666:Generated_Source\PSoC4/CapSense_SensingCSD_LL.c **** }
1667:Generated_Source\PSoC4/CapSense_SensingCSD_LL.c **** 
1668:Generated_Source\PSoC4/CapSense_SensingCSD_LL.c **** 
1669:Generated_Source\PSoC4/CapSense_SensingCSD_LL.c **** /*******************************************************************************
1670:Generated_Source\PSoC4/CapSense_SensingCSD_LL.c **** * Function Name: CapSense_CSDDisconnectSns
1671:Generated_Source\PSoC4/CapSense_SensingCSD_LL.c **** ****************************************************************************//**
1672:Generated_Source\PSoC4/CapSense_SensingCSD_LL.c **** *
1673:Generated_Source\PSoC4/CapSense_SensingCSD_LL.c **** * \brief
1674:Generated_Source\PSoC4/CapSense_SensingCSD_LL.c **** *  Disconnects a sensor port pin from the sensing HW block and the AMUX bus. Sets
1675:Generated_Source\PSoC4/CapSense_SensingCSD_LL.c **** *  the default state of the un-scanned sensor.
1676:Generated_Source\PSoC4/CapSense_SensingCSD_LL.c **** *
1677:Generated_Source\PSoC4/CapSense_SensingCSD_LL.c **** * \details
1678:Generated_Source\PSoC4/CapSense_SensingCSD_LL.c **** *  This function works identically to CapSense_CSDConnectSns() except
1679:Generated_Source\PSoC4/CapSense_SensingCSD_LL.c **** *  it disconnects the specified port-pin used by the sensor.
1680:Generated_Source\PSoC4/CapSense_SensingCSD_LL.c **** *
1681:Generated_Source\PSoC4/CapSense_SensingCSD_LL.c **** *  Calling this function directly from the application layer is not
1682:Generated_Source\PSoC4/CapSense_SensingCSD_LL.c **** *  recommended. This function is used to implement only the user's specific
1683:Generated_Source\PSoC4/CapSense_SensingCSD_LL.c **** *  use cases. Functions that perform a setup and scan of sensor/widget
1684:Generated_Source\PSoC4/CapSense_SensingCSD_LL.c **** *  automatically set the required pin states and perform the sensor connection.
1685:Generated_Source\PSoC4/CapSense_SensingCSD_LL.c **** *  They ignore changes in the design made by the
1686:Generated_Source\PSoC4/CapSense_SensingCSD_LL.c **** *  CapSense_CSDDisconnectSns() function.
1687:Generated_Source\PSoC4/CapSense_SensingCSD_LL.c **** *
1688:Generated_Source\PSoC4/CapSense_SensingCSD_LL.c **** * \param  snsAddrPtr
1689:Generated_Source\PSoC4/CapSense_SensingCSD_LL.c **** *  Specifies the pointer to the FLASH_IO_STRUCT object belonging to a sensor
ARM GAS  C:\Users\220036~1\AppData\Local\Temp\cccwt0mM.s 			page 36


1690:Generated_Source\PSoC4/CapSense_SensingCSD_LL.c **** *  which should be disconnected from the sensing HW block.
1691:Generated_Source\PSoC4/CapSense_SensingCSD_LL.c **** *
1692:Generated_Source\PSoC4/CapSense_SensingCSD_LL.c **** *******************************************************************************/
1693:Generated_Source\PSoC4/CapSense_SensingCSD_LL.c **** void CapSense_CSDDisconnectSns(CapSense_FLASH_IO_STRUCT const *snsAddrPtr)
1694:Generated_Source\PSoC4/CapSense_SensingCSD_LL.c **** {
1695:Generated_Source\PSoC4/CapSense_SensingCSD_LL.c ****     uint32 pinHSIOMShift;
1696:Generated_Source\PSoC4/CapSense_SensingCSD_LL.c ****     uint32 newRegisterValue;
1697:Generated_Source\PSoC4/CapSense_SensingCSD_LL.c ****     uint32 pinModeShift;
1698:Generated_Source\PSoC4/CapSense_SensingCSD_LL.c **** 
1699:Generated_Source\PSoC4/CapSense_SensingCSD_LL.c ****     #if ((CapSense_DISABLE == CapSense_CSD_SHIELD_EN) || \
1700:Generated_Source\PSoC4/CapSense_SensingCSD_LL.c ****         (CapSense_SNS_CONNECTION_SHIELD != CapSense_CSD_INACTIVE_SNS_CONNECTION))
1701:Generated_Source\PSoC4/CapSense_SensingCSD_LL.c ****         uint8  interruptState;
1702:Generated_Source\PSoC4/CapSense_SensingCSD_LL.c ****     #endif /* ((CapSense_DISABLE == CapSense_CSD_SHIELD_EN) && \
1703:Generated_Source\PSoC4/CapSense_SensingCSD_LL.c ****                 (CapSense_SNS_CONNECTION_SHIELD != CapSense_CSD_INACTIVE_SNS_CONNECTION))) */
1704:Generated_Source\PSoC4/CapSense_SensingCSD_LL.c **** 
1705:Generated_Source\PSoC4/CapSense_SensingCSD_LL.c ****     pinHSIOMShift = (uint32)snsAddrPtr->hsiomShift;
1706:Generated_Source\PSoC4/CapSense_SensingCSD_LL.c ****     pinModeShift = (uint32)snsAddrPtr->shift;
1707:Generated_Source\PSoC4/CapSense_SensingCSD_LL.c **** 
1708:Generated_Source\PSoC4/CapSense_SensingCSD_LL.c ****     #if ((CapSense_DISABLE == CapSense_CSD_SHIELD_EN) ||  \
1709:Generated_Source\PSoC4/CapSense_SensingCSD_LL.c ****         (CapSense_SNS_CONNECTION_SHIELD != CapSense_CSD_INACTIVE_SNS_CONNECTION))
1710:Generated_Source\PSoC4/CapSense_SensingCSD_LL.c ****         /* Update HSIOM register to disconnect sensor */
1711:Generated_Source\PSoC4/CapSense_SensingCSD_LL.c ****         CY_SET_REG32(snsAddrPtr->hsiomPtr, CY_GET_REG32(snsAddrPtr->hsiomPtr) & ~(CapSense_HSIOM_SE
1712:Generated_Source\PSoC4/CapSense_SensingCSD_LL.c **** 
1713:Generated_Source\PSoC4/CapSense_SensingCSD_LL.c ****         interruptState = CyEnterCriticalSection();
1714:Generated_Source\PSoC4/CapSense_SensingCSD_LL.c **** 
1715:Generated_Source\PSoC4/CapSense_SensingCSD_LL.c ****         /* Update port configuration register (drive mode) for sensor */
1716:Generated_Source\PSoC4/CapSense_SensingCSD_LL.c ****         newRegisterValue = CY_GET_REG32(snsAddrPtr->pcPtr);
1717:Generated_Source\PSoC4/CapSense_SensingCSD_LL.c ****         newRegisterValue &= ~(CapSense_GPIO_PC_MASK << pinModeShift);
1718:Generated_Source\PSoC4/CapSense_SensingCSD_LL.c ****         newRegisterValue |= CapSense_CSD_INACTIVE_SNS_CONNECTION << pinModeShift;
1719:Generated_Source\PSoC4/CapSense_SensingCSD_LL.c ****         CY_SET_REG32(snsAddrPtr->pcPtr, newRegisterValue);
1720:Generated_Source\PSoC4/CapSense_SensingCSD_LL.c **** 
1721:Generated_Source\PSoC4/CapSense_SensingCSD_LL.c ****         CyExitCriticalSection(interruptState);
1722:Generated_Source\PSoC4/CapSense_SensingCSD_LL.c **** 
1723:Generated_Source\PSoC4/CapSense_SensingCSD_LL.c ****         /* Set logic 0 to port data register */
1724:Generated_Source\PSoC4/CapSense_SensingCSD_LL.c ****         CY_SET_REG32(snsAddrPtr->drPtr, CY_GET_REG32(snsAddrPtr->drPtr) & (uint32)~(uint32)((uint32
1725:Generated_Source\PSoC4/CapSense_SensingCSD_LL.c ****     #else
1726:Generated_Source\PSoC4/CapSense_SensingCSD_LL.c ****         /* Update port configuration register (drive mode to HiZ Analog) for sensor */
1727:Generated_Source\PSoC4/CapSense_SensingCSD_LL.c ****         CY_SET_REG32(snsAddrPtr->pcPtr, CY_GET_REG32(snsAddrPtr->pcPtr) & (uint32)~((uint32)CapSens
1728:Generated_Source\PSoC4/CapSense_SensingCSD_LL.c **** 
1729:Generated_Source\PSoC4/CapSense_SensingCSD_LL.c ****         /* Connect to Shield */
1730:Generated_Source\PSoC4/CapSense_SensingCSD_LL.c ****         newRegisterValue = CY_GET_REG32(snsAddrPtr->hsiomPtr) & ~(CapSense_HSIOM_SEL_MASK << pinHSI
1731:Generated_Source\PSoC4/CapSense_SensingCSD_LL.c ****         newRegisterValue |= (CapSense_HSIOM_SEL_CSD_SHIELD << pinHSIOMShift);
1732:Generated_Source\PSoC4/CapSense_SensingCSD_LL.c ****         CY_SET_REG32(snsAddrPtr->hsiomPtr, newRegisterValue);
1733:Generated_Source\PSoC4/CapSense_SensingCSD_LL.c ****     #endif /* ((CapSense_DISABLE == CapSense_CSD_SHIELD_EN) && \
1734:Generated_Source\PSoC4/CapSense_SensingCSD_LL.c ****                 (CapSense_SNS_CONNECTION_SHIELD != CapSense_CSD_INACTIVE_SNS_CONNECTION)) */
1735:Generated_Source\PSoC4/CapSense_SensingCSD_LL.c **** }
1736:Generated_Source\PSoC4/CapSense_SensingCSD_LL.c **** 
1737:Generated_Source\PSoC4/CapSense_SensingCSD_LL.c **** #if ((CapSense_CSD_SS_DIS != CapSense_CSD_AUTOTUNE) || \
1738:Generated_Source\PSoC4/CapSense_SensingCSD_LL.c ****      (CapSense_ENABLE == CapSense_CSD_IDAC_AUTOCAL_EN))
1739:Generated_Source\PSoC4/CapSense_SensingCSD_LL.c ****     #if (CapSense_ENABLE == CapSense_CSD_IDAC_COMP_EN)
1740:Generated_Source\PSoC4/CapSense_SensingCSD_LL.c ****         /*******************************************************************************
1741:Generated_Source\PSoC4/CapSense_SensingCSD_LL.c ****         * Function Name: CapSense_SsCSDSetSingleIdacMode
1742:Generated_Source\PSoC4/CapSense_SensingCSD_LL.c ****         ****************************************************************************//**
1743:Generated_Source\PSoC4/CapSense_SensingCSD_LL.c ****         *
1744:Generated_Source\PSoC4/CapSense_SensingCSD_LL.c ****         * \brief
1745:Generated_Source\PSoC4/CapSense_SensingCSD_LL.c ****         *  This function set single IDAC mode.
1746:Generated_Source\PSoC4/CapSense_SensingCSD_LL.c ****         *
ARM GAS  C:\Users\220036~1\AppData\Local\Temp\cccwt0mM.s 			page 37


1747:Generated_Source\PSoC4/CapSense_SensingCSD_LL.c ****         * \details
1748:Generated_Source\PSoC4/CapSense_SensingCSD_LL.c ****         *   For Third-generation HW block: The function enables Modulator IDAC only in variable mod
1749:Generated_Source\PSoC4/CapSense_SensingCSD_LL.c ****         *   For Fourth-generation HW block: The function enables IDACA LEG1 in CSD mode, IDACA LEG2
1750:Generated_Source\PSoC4/CapSense_SensingCSD_LL.c ****         *
1751:Generated_Source\PSoC4/CapSense_SensingCSD_LL.c ****         *******************************************************************************/
1752:Generated_Source\PSoC4/CapSense_SensingCSD_LL.c ****         static void CapSense_SsCSDSetSingleIdacMode(void)
1753:Generated_Source\PSoC4/CapSense_SensingCSD_LL.c ****         {
 305              		.loc 1 1753 0
 306              		.cfi_startproc
 307              		@ args = 0, pretend = 0, frame = 0
 308              		@ frame_needed = 0, uses_anonymous_args = 0
 309              		@ link register save eliminated.
1754:Generated_Source\PSoC4/CapSense_SensingCSD_LL.c ****             uint32 newRegValue;
1755:Generated_Source\PSoC4/CapSense_SensingCSD_LL.c **** 
1756:Generated_Source\PSoC4/CapSense_SensingCSD_LL.c ****             #if (CapSense_ENABLE == CapSense_CSDV2)
1757:Generated_Source\PSoC4/CapSense_SensingCSD_LL.c ****                 /* Enable IDACA LEG1 in CSD mode, IDACA LEG2 in GP mode */
1758:Generated_Source\PSoC4/CapSense_SensingCSD_LL.c ****                 newRegValue = CY_GET_REG32(CapSense_IDAC_MOD_PTR) &
 310              		.loc 1 1758 0
 311 0000 074B     		ldr	r3, .L25
 312 0002 1A68     		ldr	r2, [r3]
 313 0004 7F21     		movs	r1, #127
 314 0006 0A40     		ands	r2, r1
 315              	.LVL15:
1759:Generated_Source\PSoC4/CapSense_SensingCSD_LL.c ****                               CapSense_IDAC_MOD_VAL_MASK;
1760:Generated_Source\PSoC4/CapSense_SensingCSD_LL.c ****                 newRegValue |= CapSense_IDAC_MOD_CALIBRATION_CFG;
 316              		.loc 1 1760 0
 317 0008 0648     		ldr	r0, .L25+4
 318 000a 0243     		orrs	r2, r0
 319              	.LVL16:
1761:Generated_Source\PSoC4/CapSense_SensingCSD_LL.c ****                 CY_SET_REG32(CapSense_IDAC_MOD_PTR, newRegValue);
 320              		.loc 1 1761 0
 321 000c 1A60     		str	r2, [r3]
1762:Generated_Source\PSoC4/CapSense_SensingCSD_LL.c ****                 #if (CapSense_ENABLE == CapSense_CSD_IDAC_COMP_EN) && \
1763:Generated_Source\PSoC4/CapSense_SensingCSD_LL.c ****                     (CapSense_ENABLE == CapSense_CSD_DEDICATED_IDAC_COMP_EN)
1764:Generated_Source\PSoC4/CapSense_SensingCSD_LL.c ****                     newRegValue = CY_GET_REG32(CapSense_IDAC_COMP_PTR) & CapSense_IDAC_COMP_VAL_MAS
 322              		.loc 1 1764 0
 323 000e 064A     		ldr	r2, .L25+8
 324              	.LVL17:
 325 0010 1368     		ldr	r3, [r2]
 326              	.LVL18:
 327 0012 0B40     		ands	r3, r1
 328              	.LVL19:
1765:Generated_Source\PSoC4/CapSense_SensingCSD_LL.c ****                     newRegValue |= CapSense_IDAC_COMP_CALIBRATION_CFG;
 329              		.loc 1 1765 0
 330 0014 8021     		movs	r1, #128
 331 0016 0904     		lsls	r1, r1, #16
 332 0018 0B43     		orrs	r3, r1
 333              	.LVL20:
1766:Generated_Source\PSoC4/CapSense_SensingCSD_LL.c ****                     CY_SET_REG32(CapSense_IDAC_COMP_PTR, newRegValue);
 334              		.loc 1 1766 0
 335 001a 1360     		str	r3, [r2]
1767:Generated_Source\PSoC4/CapSense_SensingCSD_LL.c ****                 #endif /* (CapSense_ENABLE == CapSense_CSD_IDAC_COMP_EN) && \
1768:Generated_Source\PSoC4/CapSense_SensingCSD_LL.c ****                           (CapSense_ENABLE == CapSense_CSD_DEDICATED_IDAC_COMP_EN */
1769:Generated_Source\PSoC4/CapSense_SensingCSD_LL.c ****             #else
1770:Generated_Source\PSoC4/CapSense_SensingCSD_LL.c ****                 /* Enable Modulator IDAC only in variable mode */
1771:Generated_Source\PSoC4/CapSense_SensingCSD_LL.c ****                 newRegValue = CY_GET_REG32(CapSense_IDAC_PTR) &
1772:Generated_Source\PSoC4/CapSense_SensingCSD_LL.c ****                               ~(CapSense_IDAC_MOD_MODE_MASK | CapSense_IDAC_COMP_MODE_MASK);
ARM GAS  C:\Users\220036~1\AppData\Local\Temp\cccwt0mM.s 			page 38


1773:Generated_Source\PSoC4/CapSense_SensingCSD_LL.c ****                 newRegValue |= CapSense_IDAC_MOD_MODE_VARIABLE;
1774:Generated_Source\PSoC4/CapSense_SensingCSD_LL.c ****                 CY_SET_REG32(CapSense_IDAC_PTR, newRegValue);
1775:Generated_Source\PSoC4/CapSense_SensingCSD_LL.c ****             #endif /* (CapSense_ENABLE == CapSense_CSDV2) */
1776:Generated_Source\PSoC4/CapSense_SensingCSD_LL.c ****         }
 336              		.loc 1 1776 0
 337              		@ sp needed
 338 001c 7047     		bx	lr
 339              	.L26:
 340 001e C046     		.align	2
 341              	.L25:
 342 0020 C0012940 		.word	1076429248
 343 0024 00008301 		.word	25362432
 344 0028 C4012940 		.word	1076429252
 345              		.cfi_endproc
 346              	.LFE23:
 347              		.size	CapSense_SsCSDSetSingleIdacMode, .-CapSense_SsCSDSetSingleIdacMode
 348              		.section	.text.CapSense_SsCSDRestoreIdacMode,"ax",%progbits
 349              		.align	2
 350              		.code	16
 351              		.thumb_func
 352              		.type	CapSense_SsCSDRestoreIdacMode, %function
 353              	CapSense_SsCSDRestoreIdacMode:
 354              	.LFB24:
1777:Generated_Source\PSoC4/CapSense_SensingCSD_LL.c ****     #endif /* (CapSense_ENABLE == CapSense_CSD_IDAC_COMP_EN) */
1778:Generated_Source\PSoC4/CapSense_SensingCSD_LL.c **** #endif /* ((CapSense_CSD_SS_DIS != CapSense_CSD_AUTOTUNE) || \
1779:Generated_Source\PSoC4/CapSense_SensingCSD_LL.c ****            (CapSense_ENABLE == CapSense_CSD_IDAC_AUTOCAL_EN)) */
1780:Generated_Source\PSoC4/CapSense_SensingCSD_LL.c **** 
1781:Generated_Source\PSoC4/CapSense_SensingCSD_LL.c **** #if ((CapSense_CSD_SS_DIS != CapSense_CSD_AUTOTUNE) || \
1782:Generated_Source\PSoC4/CapSense_SensingCSD_LL.c ****      (CapSense_ENABLE == CapSense_CSD_IDAC_AUTOCAL_EN))
1783:Generated_Source\PSoC4/CapSense_SensingCSD_LL.c ****     #if (CapSense_ENABLE == CapSense_CSD_IDAC_COMP_EN)
1784:Generated_Source\PSoC4/CapSense_SensingCSD_LL.c ****         /*******************************************************************************
1785:Generated_Source\PSoC4/CapSense_SensingCSD_LL.c ****         * Function Name: CapSense_SsCSDRestoreIdacMode
1786:Generated_Source\PSoC4/CapSense_SensingCSD_LL.c ****         ****************************************************************************//**
1787:Generated_Source\PSoC4/CapSense_SensingCSD_LL.c ****         *
1788:Generated_Source\PSoC4/CapSense_SensingCSD_LL.c ****         * \brief
1789:Generated_Source\PSoC4/CapSense_SensingCSD_LL.c ****         *  This function restores IDAC configuration.
1790:Generated_Source\PSoC4/CapSense_SensingCSD_LL.c ****         *
1791:Generated_Source\PSoC4/CapSense_SensingCSD_LL.c ****         * \details
1792:Generated_Source\PSoC4/CapSense_SensingCSD_LL.c ****         *   The function restores Compensation IDAC if it is enabled.
1793:Generated_Source\PSoC4/CapSense_SensingCSD_LL.c ****         *
1794:Generated_Source\PSoC4/CapSense_SensingCSD_LL.c ****         *******************************************************************************/
1795:Generated_Source\PSoC4/CapSense_SensingCSD_LL.c ****         static void CapSense_SsCSDRestoreIdacMode(void)
1796:Generated_Source\PSoC4/CapSense_SensingCSD_LL.c ****         {
 355              		.loc 1 1796 0
 356              		.cfi_startproc
 357              		@ args = 0, pretend = 0, frame = 0
 358              		@ frame_needed = 0, uses_anonymous_args = 0
 359              		@ link register save eliminated.
1797:Generated_Source\PSoC4/CapSense_SensingCSD_LL.c ****             /* Restore IDAC configuration */
1798:Generated_Source\PSoC4/CapSense_SensingCSD_LL.c ****             #if (CapSense_ENABLE == CapSense_CSDV2)
1799:Generated_Source\PSoC4/CapSense_SensingCSD_LL.c ****                 uint32 newRegValue;
1800:Generated_Source\PSoC4/CapSense_SensingCSD_LL.c **** 
1801:Generated_Source\PSoC4/CapSense_SensingCSD_LL.c ****                 newRegValue = CY_GET_REG32(CapSense_SW_REFGEN_SEL_PTR);
 360              		.loc 1 1801 0
 361 0000 064A     		ldr	r2, .L28
 362 0002 1368     		ldr	r3, [r2]
 363              	.LVL21:
ARM GAS  C:\Users\220036~1\AppData\Local\Temp\cccwt0mM.s 			page 39


1802:Generated_Source\PSoC4/CapSense_SensingCSD_LL.c ****                 newRegValue |= CapSense_DEFAULT_SW_REFGEN_SEL;
 364              		.loc 1 1802 0
 365 0004 0649     		ldr	r1, .L28+4
 366 0006 0B43     		orrs	r3, r1
 367              	.LVL22:
1803:Generated_Source\PSoC4/CapSense_SensingCSD_LL.c ****                 CY_SET_REG32(CapSense_SW_REFGEN_SEL_PTR, newRegValue);
 368              		.loc 1 1803 0
 369 0008 1360     		str	r3, [r2]
1804:Generated_Source\PSoC4/CapSense_SensingCSD_LL.c ****                 CY_SET_REG32(CapSense_IDAC_MOD_PTR, CapSense_IDAC_MOD_DEFAULT_CFG);
 370              		.loc 1 1804 0
 371 000a 064A     		ldr	r2, .L28+8
 372 000c 064B     		ldr	r3, .L28+12
 373              	.LVL23:
 374 000e 1A60     		str	r2, [r3]
 375              	.LVL24:
1805:Generated_Source\PSoC4/CapSense_SensingCSD_LL.c ****                 #if (CapSense_ENABLE == CapSense_CSD_IDAC_COMP_EN) && \
1806:Generated_Source\PSoC4/CapSense_SensingCSD_LL.c ****                     (CapSense_ENABLE == CapSense_CSD_DEDICATED_IDAC_COMP_EN)
1807:Generated_Source\PSoC4/CapSense_SensingCSD_LL.c ****                 CY_SET_REG32(CapSense_IDAC_COMP_PTR, CapSense_IDAC_COMP_DEFAULT_CFG);
 376              		.loc 1 1807 0
 377 0010 C122     		movs	r2, #193
 378 0012 5204     		lsls	r2, r2, #17
 379 0014 054B     		ldr	r3, .L28+16
 380 0016 1A60     		str	r2, [r3]
1808:Generated_Source\PSoC4/CapSense_SensingCSD_LL.c ****                 #endif /* (CapSense_ENABLE == CapSense_CSD_IDAC_COMP_EN) && \
1809:Generated_Source\PSoC4/CapSense_SensingCSD_LL.c ****                           (CapSense_ENABLE == CapSense_CSD_DEDICATED_IDAC_COMP_EN */
1810:Generated_Source\PSoC4/CapSense_SensingCSD_LL.c ****             #else
1811:Generated_Source\PSoC4/CapSense_SensingCSD_LL.c ****                 #if (CapSense_ENABLE == CapSense_CSD_IDAC_COMP_EN)
1812:Generated_Source\PSoC4/CapSense_SensingCSD_LL.c ****                     CY_SET_REG32(CapSense_IDAC_PTR, CapSense_DEFAULT_CSD_IDAC_CONFIG);
1813:Generated_Source\PSoC4/CapSense_SensingCSD_LL.c ****                 #else
1814:Generated_Source\PSoC4/CapSense_SensingCSD_LL.c ****                     CY_SET_REG32(CapSense_IDAC_PTR, CY_GET_REG32(CapSense_IDAC_PTR) &
1815:Generated_Source\PSoC4/CapSense_SensingCSD_LL.c ****                                                                         ~(CapSense_IDAC_MOD_MODE_MA
1816:Generated_Source\PSoC4/CapSense_SensingCSD_LL.c ****                     CY_SET_REG32(CapSense_IDAC_PTR, CY_GET_REG32(CapSense_IDAC_PTR) | CapSense_DEFA
1817:Generated_Source\PSoC4/CapSense_SensingCSD_LL.c ****                 #endif /* (CapSense_ENABLE == CapSense_CSD_IDAC_COMP_EN) */
1818:Generated_Source\PSoC4/CapSense_SensingCSD_LL.c ****             #endif /* (CapSense_ENABLE == CapSense_CSDV2) */
1819:Generated_Source\PSoC4/CapSense_SensingCSD_LL.c ****         }
 381              		.loc 1 1819 0
 382              		@ sp needed
 383 0018 7047     		bx	lr
 384              	.L29:
 385 001a C046     		.align	2
 386              	.L28:
 387 001c A8022940 		.word	1076429480
 388 0020 01000010 		.word	268435457
 389 0024 00008301 		.word	25362432
 390 0028 C0012940 		.word	1076429248
 391 002c C4012940 		.word	1076429252
 392              		.cfi_endproc
 393              	.LFE24:
 394              		.size	CapSense_SsCSDRestoreIdacMode, .-CapSense_SsCSDRestoreIdacMode
 395              		.section	.text.CapSense_SsCSDCalibrateCheck,"ax",%progbits
 396              		.align	2
 397              		.code	16
 398              		.thumb_func
 399              		.type	CapSense_SsCSDCalibrateCheck, %function
 400              	CapSense_SsCSDCalibrateCheck:
 401              	.LFB25:
1820:Generated_Source\PSoC4/CapSense_SensingCSD_LL.c ****     #endif /* (CapSense_ENABLE == CapSense_CSD_IDAC_COMP_EN) */
ARM GAS  C:\Users\220036~1\AppData\Local\Temp\cccwt0mM.s 			page 40


1821:Generated_Source\PSoC4/CapSense_SensingCSD_LL.c **** 
1822:Generated_Source\PSoC4/CapSense_SensingCSD_LL.c ****     /*******************************************************************************
1823:Generated_Source\PSoC4/CapSense_SensingCSD_LL.c ****     * Function Name: CapSense_SsCSDCalibrateCheck
1824:Generated_Source\PSoC4/CapSense_SensingCSD_LL.c ****     ****************************************************************************//**
1825:Generated_Source\PSoC4/CapSense_SensingCSD_LL.c ****     *
1826:Generated_Source\PSoC4/CapSense_SensingCSD_LL.c ****     * \brief
1827:Generated_Source\PSoC4/CapSense_SensingCSD_LL.c ****     *  This internal function checks if the calibration is performed successfully.
1828:Generated_Source\PSoC4/CapSense_SensingCSD_LL.c ****     *
1829:Generated_Source\PSoC4/CapSense_SensingCSD_LL.c ****     * \details
1830:Generated_Source\PSoC4/CapSense_SensingCSD_LL.c ****     *   The function verifies calibration error based on maximum raw count level.
1831:Generated_Source\PSoC4/CapSense_SensingCSD_LL.c ****     *
1832:Generated_Source\PSoC4/CapSense_SensingCSD_LL.c ****     * \param rawLevel The raw data level which should be reached during the
1833:Generated_Source\PSoC4/CapSense_SensingCSD_LL.c ****     *   calibration procedure.
1834:Generated_Source\PSoC4/CapSense_SensingCSD_LL.c ****     * \param rawData  Calibrated raw counts.
1835:Generated_Source\PSoC4/CapSense_SensingCSD_LL.c ****     *
1836:Generated_Source\PSoC4/CapSense_SensingCSD_LL.c ****     * \return Returns the status of the operation:
1837:Generated_Source\PSoC4/CapSense_SensingCSD_LL.c ****     *   - Zero     - All the sensors in the widget are calibrated successfully.
1838:Generated_Source\PSoC4/CapSense_SensingCSD_LL.c ****     *   - Non-Zero - Calibration failed for any sensor in the widget.
1839:Generated_Source\PSoC4/CapSense_SensingCSD_LL.c ****     *
1840:Generated_Source\PSoC4/CapSense_SensingCSD_LL.c ****     *******************************************************************************/
1841:Generated_Source\PSoC4/CapSense_SensingCSD_LL.c ****     static cystatus CapSense_SsCSDCalibrateCheck(CapSense_RAM_WD_BASE_STRUCT const *ptrWdgt, uint32
1842:Generated_Source\PSoC4/CapSense_SensingCSD_LL.c ****     {
 402              		.loc 1 1842 0
 403              		.cfi_startproc
 404              		@ args = 0, pretend = 0, frame = 0
 405              		@ frame_needed = 0, uses_anonymous_args = 0
 406              	.LVL25:
 407 0000 70B5     		push	{r4, r5, r6, lr}
 408              		.cfi_def_cfa_offset 16
 409              		.cfi_offset 4, -16
 410              		.cfi_offset 5, -12
 411              		.cfi_offset 6, -8
 412              		.cfi_offset 14, -4
 413 0002 0E00     		movs	r6, r1
 414 0004 1500     		movs	r5, r2
 415              	.LVL26:
1843:Generated_Source\PSoC4/CapSense_SensingCSD_LL.c ****         cystatus calibrateStatus;
1844:Generated_Source\PSoC4/CapSense_SensingCSD_LL.c ****         uint32 rawCountsError;
1845:Generated_Source\PSoC4/CapSense_SensingCSD_LL.c ****         uint32 minRawLevel = 0u;
1846:Generated_Source\PSoC4/CapSense_SensingCSD_LL.c ****         uint32 maxRawLevel = (0x00000001Lu << ptrWdgt->resolution) - 1u;
 416              		.loc 1 1846 0
 417 0006 4388     		ldrh	r3, [r0, #2]
 418 0008 0124     		movs	r4, #1
 419 000a 9C40     		lsls	r4, r4, r3
 420 000c 013C     		subs	r4, r4, #1
 421              	.LVL27:
1847:Generated_Source\PSoC4/CapSense_SensingCSD_LL.c **** 
1848:Generated_Source\PSoC4/CapSense_SensingCSD_LL.c ****         /* Calculate the error in rawcounts for given resolution (round to floor) */
1849:Generated_Source\PSoC4/CapSense_SensingCSD_LL.c ****         rawCountsError = ((maxRawLevel * CapSense_IDAC_MOD_MAX_CALIB_ERROR) /
 422              		.loc 1 1849 0
 423 000e A300     		lsls	r3, r4, #2
 424 0010 1B19     		adds	r3, r3, r4
 425 0012 5800     		lsls	r0, r3, #1
 426              	.LVL28:
 427 0014 6421     		movs	r1, #100
 428              	.LVL29:
 429 0016 FFF7FEFF 		bl	__aeabi_uidiv
ARM GAS  C:\Users\220036~1\AppData\Local\Temp\cccwt0mM.s 			page 41


 430              	.LVL30:
 431 001a 0130     		adds	r0, r0, #1
 432              	.LVL31:
1850:Generated_Source\PSoC4/CapSense_SensingCSD_LL.c ****                           CapSense_PERCENTAGE_100) + 1u;
1851:Generated_Source\PSoC4/CapSense_SensingCSD_LL.c **** 
1852:Generated_Source\PSoC4/CapSense_SensingCSD_LL.c ****         /* Get minimum and maximum range values */
1853:Generated_Source\PSoC4/CapSense_SensingCSD_LL.c ****         if ((rawLevel + rawCountsError) <= maxRawLevel)
 433              		.loc 1 1853 0
 434 001c 8319     		adds	r3, r0, r6
 435 001e 9C42     		cmp	r4, r3
 436 0020 00D2     		bcs	.L31
1846:Generated_Source\PSoC4/CapSense_SensingCSD_LL.c **** 
 437              		.loc 1 1846 0
 438 0022 2300     		movs	r3, r4
 439              	.L31:
 440              	.LVL32:
1854:Generated_Source\PSoC4/CapSense_SensingCSD_LL.c ****         {
1855:Generated_Source\PSoC4/CapSense_SensingCSD_LL.c ****             maxRawLevel = rawLevel + rawCountsError;
1856:Generated_Source\PSoC4/CapSense_SensingCSD_LL.c ****         }
1857:Generated_Source\PSoC4/CapSense_SensingCSD_LL.c ****         if (rawLevel >= rawCountsError)
 441              		.loc 1 1857 0
 442 0024 B042     		cmp	r0, r6
 443 0026 01D8     		bhi	.L34
1858:Generated_Source\PSoC4/CapSense_SensingCSD_LL.c ****         {
1859:Generated_Source\PSoC4/CapSense_SensingCSD_LL.c ****             minRawLevel = rawLevel - rawCountsError;
 444              		.loc 1 1859 0
 445 0028 301A     		subs	r0, r6, r0
 446              	.LVL33:
 447 002a 00E0     		b	.L32
 448              	.LVL34:
 449              	.L34:
1845:Generated_Source\PSoC4/CapSense_SensingCSD_LL.c ****         uint32 maxRawLevel = (0x00000001Lu << ptrWdgt->resolution) - 1u;
 450              		.loc 1 1845 0
 451 002c 0020     		movs	r0, #0
 452              	.LVL35:
 453              	.L32:
1860:Generated_Source\PSoC4/CapSense_SensingCSD_LL.c ****         }
1861:Generated_Source\PSoC4/CapSense_SensingCSD_LL.c **** 
1862:Generated_Source\PSoC4/CapSense_SensingCSD_LL.c ****         /* Check if calibration is in valid range */
1863:Generated_Source\PSoC4/CapSense_SensingCSD_LL.c ****         if ((rawData < minRawLevel) || (rawData > maxRawLevel))
 454              		.loc 1 1863 0
 455 002e A842     		cmp	r0, r5
 456 0030 03D8     		bhi	.L35
 457              		.loc 1 1863 0 is_stmt 0 discriminator 1
 458 0032 AB42     		cmp	r3, r5
 459 0034 03D2     		bcs	.L36
1864:Generated_Source\PSoC4/CapSense_SensingCSD_LL.c ****         {
1865:Generated_Source\PSoC4/CapSense_SensingCSD_LL.c ****             calibrateStatus = CYRET_BAD_DATA;
 460              		.loc 1 1865 0 is_stmt 1
 461 0036 0620     		movs	r0, #6
 462              	.LVL36:
 463 0038 02E0     		b	.L33
 464              	.LVL37:
 465              	.L35:
 466 003a 0620     		movs	r0, #6
 467              	.LVL38:
 468 003c 00E0     		b	.L33
ARM GAS  C:\Users\220036~1\AppData\Local\Temp\cccwt0mM.s 			page 42


 469              	.LVL39:
 470              	.L36:
1866:Generated_Source\PSoC4/CapSense_SensingCSD_LL.c ****         }
1867:Generated_Source\PSoC4/CapSense_SensingCSD_LL.c ****         else
1868:Generated_Source\PSoC4/CapSense_SensingCSD_LL.c ****         {
1869:Generated_Source\PSoC4/CapSense_SensingCSD_LL.c ****             calibrateStatus = CYRET_SUCCESS;
 471              		.loc 1 1869 0
 472 003e 0020     		movs	r0, #0
 473              	.LVL40:
 474              	.L33:
1870:Generated_Source\PSoC4/CapSense_SensingCSD_LL.c ****         }
1871:Generated_Source\PSoC4/CapSense_SensingCSD_LL.c **** 
1872:Generated_Source\PSoC4/CapSense_SensingCSD_LL.c ****         return (calibrateStatus);
1873:Generated_Source\PSoC4/CapSense_SensingCSD_LL.c ****     }
 475              		.loc 1 1873 0
 476              		@ sp needed
 477              	.LVL41:
 478              	.LVL42:
 479 0040 70BD     		pop	{r4, r5, r6, pc}
 480              		.cfi_endproc
 481              	.LFE25:
 482              		.size	CapSense_SsCSDCalibrateCheck, .-CapSense_SsCSDCalibrateCheck
 483 0042 C046     		.section	.text.CapSense_SsCSDDisableShieldElectrodes,"ax",%progbits
 484              		.align	2
 485              		.global	CapSense_SsCSDDisableShieldElectrodes
 486              		.code	16
 487              		.thumb_func
 488              		.type	CapSense_SsCSDDisableShieldElectrodes, %function
 489              	CapSense_SsCSDDisableShieldElectrodes:
 490              	.LFB4:
 306:Generated_Source\PSoC4/CapSense_SensingCSD_LL.c ****             uint32 newRegValue;
 491              		.loc 1 306 0
 492              		.cfi_startproc
 493              		@ args = 0, pretend = 0, frame = 0
 494              		@ frame_needed = 0, uses_anonymous_args = 0
 495 0000 30B5     		push	{r4, r5, lr}
 496              		.cfi_def_cfa_offset 12
 497              		.cfi_offset 4, -12
 498              		.cfi_offset 5, -8
 499              		.cfi_offset 14, -4
 500              	.LVL43:
 310:Generated_Source\PSoC4/CapSense_SensingCSD_LL.c ****             {
 501              		.loc 1 310 0
 502 0002 0022     		movs	r2, #0
 503 0004 1EE0     		b	.L38
 504              	.LVL44:
 505              	.L39:
 313:Generated_Source\PSoC4/CapSense_SensingCSD_LL.c ****                              (uint32)~(uint32)(CapSense_HSIOM_SEL_MASK << CapSense_shieldIoList[shi
 506              		.loc 1 313 0 discriminator 3
 507 0006 114D     		ldr	r5, .L40
 508 0008 5100     		lsls	r1, r2, #1
 509 000a 8818     		adds	r0, r1, r2
 510 000c C300     		lsls	r3, r0, #3
 511 000e 5C59     		ldr	r4, [r3, r5]
 512 0010 2068     		ldr	r0, [r4]
 513 0012 EB18     		adds	r3, r5, r3
 514 0014 1D7D     		ldrb	r5, [r3, #20]
ARM GAS  C:\Users\220036~1\AppData\Local\Temp\cccwt0mM.s 			page 43


 515 0016 0F21     		movs	r1, #15
 516 0018 A940     		lsls	r1, r1, r5
 517 001a 8843     		bics	r0, r1
 518 001c 2060     		str	r0, [r4]
 317:Generated_Source\PSoC4/CapSense_SensingCSD_LL.c ****                 newRegValue &= ~(CapSense_GPIO_PC_MASK << CapSense_shieldIoList[shieldIndex].shift)
 519              		.loc 1 317 0 discriminator 3
 520 001e 5C68     		ldr	r4, [r3, #4]
 521 0020 2168     		ldr	r1, [r4]
 522              	.LVL45:
 318:Generated_Source\PSoC4/CapSense_SensingCSD_LL.c ****                 newRegValue |= (CapSense_SNS_GROUND_CONNECT << CapSense_shieldIoList[shieldIndex].s
 523              		.loc 1 318 0 discriminator 3
 524 0022 9D7D     		ldrb	r5, [r3, #22]
 525 0024 0720     		movs	r0, #7
 526 0026 A840     		lsls	r0, r0, r5
 527 0028 8143     		bics	r1, r0
 528              	.LVL46:
 529 002a 0800     		movs	r0, r1
 530              	.LVL47:
 319:Generated_Source\PSoC4/CapSense_SensingCSD_LL.c ****                 CY_SET_REG32(CapSense_shieldIoList[shieldIndex].pcPtr, newRegValue);
 531              		.loc 1 319 0 discriminator 3
 532 002c 0621     		movs	r1, #6
 533 002e A940     		lsls	r1, r1, r5
 534 0030 0143     		orrs	r1, r0
 535              	.LVL48:
 320:Generated_Source\PSoC4/CapSense_SensingCSD_LL.c **** 
 536              		.loc 1 320 0 discriminator 3
 537 0032 2160     		str	r1, [r4]
 323:Generated_Source\PSoC4/CapSense_SensingCSD_LL.c ****                            (uint32)~(uint32)((uint32)1u << CapSense_shieldIoList[shieldIndex].drShi
 538              		.loc 1 323 0 discriminator 3
 539 0034 D868     		ldr	r0, [r3, #12]
 540 0036 0168     		ldr	r1, [r0]
 541              	.LVL49:
 542 0038 5C7D     		ldrb	r4, [r3, #21]
 543              	.LVL50:
 544 003a 0123     		movs	r3, #1
 545              	.LVL51:
 546 003c A340     		lsls	r3, r3, r4
 547 003e 9943     		bics	r1, r3
 548 0040 0160     		str	r1, [r0]
 549              	.LVL52:
 310:Generated_Source\PSoC4/CapSense_SensingCSD_LL.c ****             {
 550              		.loc 1 310 0 discriminator 3
 551 0042 0132     		adds	r2, r2, #1
 552              	.LVL53:
 553              	.L38:
 310:Generated_Source\PSoC4/CapSense_SensingCSD_LL.c ****             {
 554              		.loc 1 310 0 is_stmt 0 discriminator 1
 555 0044 002A     		cmp	r2, #0
 556 0046 DED0     		beq	.L39
 326:Generated_Source\PSoC4/CapSense_SensingCSD_LL.c ****     #endif /* (0u != CapSense_CSD_TOTAL_SHIELD_COUNT) */
 557              		.loc 1 326 0 is_stmt 1
 558              		@ sp needed
 559 0048 30BD     		pop	{r4, r5, pc}
 560              	.L41:
 561 004a C046     		.align	2
 562              	.L40:
 563 004c 00000000 		.word	CapSense_shieldIoList
ARM GAS  C:\Users\220036~1\AppData\Local\Temp\cccwt0mM.s 			page 44


 564              		.cfi_endproc
 565              	.LFE4:
 566              		.size	CapSense_SsCSDDisableShieldElectrodes, .-CapSense_SsCSDDisableShieldElectrodes
 567              		.section	.text.CapSense_SsCSDInitialize,"ax",%progbits
 568              		.align	2
 569              		.global	CapSense_SsCSDInitialize
 570              		.code	16
 571              		.thumb_func
 572              		.type	CapSense_SsCSDInitialize, %function
 573              	CapSense_SsCSDInitialize:
 574              	.LFB8:
 480:Generated_Source\PSoC4/CapSense_SensingCSD_LL.c ****     uint32 newRegValue;
 575              		.loc 1 480 0
 576              		.cfi_startproc
 577              		@ args = 0, pretend = 0, frame = 0
 578              		@ frame_needed = 0, uses_anonymous_args = 0
 579 0000 F8B5     		push	{r3, r4, r5, r6, r7, lr}
 580              		.cfi_def_cfa_offset 24
 581              		.cfi_offset 3, -24
 582              		.cfi_offset 4, -20
 583              		.cfi_offset 5, -16
 584              		.cfi_offset 6, -12
 585              		.cfi_offset 7, -8
 586              		.cfi_offset 14, -4
 484:Generated_Source\PSoC4/CapSense_SensingCSD_LL.c **** 
 587              		.loc 1 484 0
 588 0002 FFF7FEFF 		bl	CapSense_SsClearCSDSensors
 589              	.LVL54:
 487:Generated_Source\PSoC4/CapSense_SensingCSD_LL.c ****     #endif /* (CapSense_ENABLE == CapSense_CSDV2) */
 590              		.loc 1 487 0
 591 0006 FFF7FEFF 		bl	CapSense_BistDischargeExtCapacitors
 592              	.LVL55:
 493:Generated_Source\PSoC4/CapSense_SensingCSD_LL.c ****         #endif /* (0u != CapSense_CSD_TOTAL_SHIELD_COUNT) */
 593              		.loc 1 493 0
 594 000a FFF7FEFF 		bl	CapSense_SsCSDEnableShieldElectrodes
 595              	.LVL56:
 498:Generated_Source\PSoC4/CapSense_SensingCSD_LL.c ****         #endif /* (CapSense_ENABLE == CapSense_CSD_SHIELD_TANK_EN) */
 596              		.loc 1 498 0
 597 000e FFF7FEFF 		bl	CapSense_SsCSDEnableShieldTank
 598              	.LVL57:
 505:Generated_Source\PSoC4/CapSense_SensingCSD_LL.c **** 
 599              		.loc 1 505 0
 600 0012 C022     		movs	r2, #192
 601 0014 1203     		lsls	r2, r2, #12
 602 0016 2E4B     		ldr	r3, .L43
 603 0018 1A60     		str	r2, [r3]
 508:Generated_Source\PSoC4/CapSense_SensingCSD_LL.c ****         newRegValue |= CapSense_DEFAULT_SW_REFGEN_SEL;
 604              		.loc 1 508 0
 605 001a 2E4A     		ldr	r2, .L43+4
 606 001c 1168     		ldr	r1, [r2]
 607              	.LVL58:
 509:Generated_Source\PSoC4/CapSense_SensingCSD_LL.c **** 
 608              		.loc 1 509 0
 609 001e 2E4E     		ldr	r6, .L43+8
 610 0020 3143     		orrs	r1, r6
 611              	.LVL59:
 511:Generated_Source\PSoC4/CapSense_SensingCSD_LL.c ****         CY_SET_REG32(CapSense_INTR_SET_PTR,         CapSense_DEFAULT_CSD_INTR_SET);
ARM GAS  C:\Users\220036~1\AppData\Local\Temp\cccwt0mM.s 			page 45


 612              		.loc 1 511 0
 613 0022 1160     		str	r1, [r2]
 512:Generated_Source\PSoC4/CapSense_SensingCSD_LL.c ****         CY_SET_REG32(CapSense_SW_FW_TANK_SEL_PTR,   CapSense_DEFAULT_CSD_SW_FW_TANK_SEL);
 614              		.loc 1 512 0
 615 0024 0024     		movs	r4, #0
 616 0026 2D4B     		ldr	r3, .L43+12
 617 0028 1C60     		str	r4, [r3]
 513:Generated_Source\PSoC4/CapSense_SensingCSD_LL.c ****         CY_SET_REG32(CapSense_SW_DSI_SEL_PTR,       CapSense_DEFAULT_CSD_SW_DSI_SEL);
 618              		.loc 1 513 0
 619 002a 2D4B     		ldr	r3, .L43+16
 620 002c 1C60     		str	r4, [r3]
 514:Generated_Source\PSoC4/CapSense_SensingCSD_LL.c ****         CY_SET_REG32(CapSense_ADC_CTL_PTR,          CapSense_DEFAULT_CSD_ADC_CTL);
 621              		.loc 1 514 0
 622 002e 1121     		movs	r1, #17
 623              	.LVL60:
 624 0030 2C4B     		ldr	r3, .L43+20
 625 0032 1960     		str	r1, [r3]
 515:Generated_Source\PSoC4/CapSense_SensingCSD_LL.c ****         CY_SET_REG32(CapSense_AMBUF_PTR,            CapSense_AMBUF_PWR_MODE_OFF);
 626              		.loc 1 515 0
 627 0034 2C4B     		ldr	r3, .L43+24
 628 0036 1C60     		str	r4, [r3]
 516:Generated_Source\PSoC4/CapSense_SensingCSD_LL.c ****         CY_SET_REG32(CapSense_SW_SHIELD_SEL_PTR,    CapSense_DEFAULT_SW_SHIELD_SEL);
 629              		.loc 1 516 0
 630 0038 2C4F     		ldr	r7, .L43+28
 631 003a 3C60     		str	r4, [r7]
 517:Generated_Source\PSoC4/CapSense_SensingCSD_LL.c ****         CY_SET_REG32(CapSense_SW_HS_P_SEL_PTR,      CapSense_DEFAULT_SW_HS_P_SEL);
 632              		.loc 1 517 0
 633 003c 2C4B     		ldr	r3, .L43+32
 634 003e 1C60     		str	r4, [r3]
 518:Generated_Source\PSoC4/CapSense_SensingCSD_LL.c ****         CY_SET_REG32(CapSense_SW_HS_N_SEL_PTR,      CapSense_DEFAULT_SW_HS_N_SEL);
 635              		.loc 1 518 0
 636 0040 2C4B     		ldr	r3, .L43+36
 637 0042 9C46     		mov	ip, r3
 638 0044 1C60     		str	r4, [r3]
 519:Generated_Source\PSoC4/CapSense_SensingCSD_LL.c ****         CY_SET_REG32(CapSense_HSCMP_PTR,            CapSense_DEFAULT_HSCMP_CFG);
 639              		.loc 1 519 0
 640 0046 2C4D     		ldr	r5, .L43+40
 641 0048 2C60     		str	r4, [r5]
 520:Generated_Source\PSoC4/CapSense_SensingCSD_LL.c **** 
 642              		.loc 1 520 0
 643 004a 2C4B     		ldr	r3, .L43+44
 644 004c 1C60     		str	r4, [r3]
 523:Generated_Source\PSoC4/CapSense_SensingCSD_LL.c ****         newRegValue &= (uint32)(~(uint32)CapSense_CMOD_HSIOM_MASK);
 645              		.loc 1 523 0
 646 004e 2C49     		ldr	r1, .L43+48
 647 0050 0868     		ldr	r0, [r1]
 648              	.LVL61:
 524:Generated_Source\PSoC4/CapSense_SensingCSD_LL.c ****         newRegValue |= (CapSense_HSIOM_SEL_AMUXA << CapSense_CMOD_HSIOM_SHIFT);
 649              		.loc 1 524 0
 650 0052 2C4B     		ldr	r3, .L43+52
 651 0054 0340     		ands	r3, r0
 652              	.LVL62:
 525:Generated_Source\PSoC4/CapSense_SensingCSD_LL.c ****         CY_SET_REG32(CapSense_CMOD_HSIOM_PTR, newRegValue);
 653              		.loc 1 525 0
 654 0056 C020     		movs	r0, #192
 655 0058 C000     		lsls	r0, r0, #3
 656 005a 0343     		orrs	r3, r0
ARM GAS  C:\Users\220036~1\AppData\Local\Temp\cccwt0mM.s 			page 46


 657              	.LVL63:
 526:Generated_Source\PSoC4/CapSense_SensingCSD_LL.c **** 
 658              		.loc 1 526 0
 659 005c 0B60     		str	r3, [r1]
 529:Generated_Source\PSoC4/CapSense_SensingCSD_LL.c ****         newRegValue |= CapSense_SW_BYP_SEL_SW_BYA_MASK;
 660              		.loc 1 529 0
 661 005e 2A49     		ldr	r1, .L43+56
 662 0060 0868     		ldr	r0, [r1]
 663              	.LVL64:
 530:Generated_Source\PSoC4/CapSense_SensingCSD_LL.c ****         CY_SET_REG32(CapSense_SW_BYP_SEL_PTR, newRegValue);
 664              		.loc 1 530 0
 665 0062 8023     		movs	r3, #128
 666 0064 5B01     		lsls	r3, r3, #5
 667 0066 1843     		orrs	r0, r3
 668              	.LVL65:
 531:Generated_Source\PSoC4/CapSense_SensingCSD_LL.c **** 
 669              		.loc 1 531 0
 670 0068 0860     		str	r0, [r1]
 535:Generated_Source\PSoC4/CapSense_SensingCSD_LL.c ****         #elif (CapSense_CSD__CSHIELD_PAD == CapSense_CMOD_CONNECTION)
 671              		.loc 1 535 0
 672 006a 0120     		movs	r0, #1
 673              	.LVL66:
 674 006c 274B     		ldr	r3, .L43+60
 675 006e 1860     		str	r0, [r3]
 676              	.LVL67:
 545:Generated_Source\PSoC4/CapSense_SensingCSD_LL.c **** 
 677              		.loc 1 545 0
 678 0070 8823     		movs	r3, #136
 679 0072 5B02     		lsls	r3, r3, #9
 680 0074 0B60     		str	r3, [r1]
 548:Generated_Source\PSoC4/CapSense_SensingCSD_LL.c ****     #endif /* (CapSense_ENABLE == CapSense_CSD_SHIELD_EN) */
 681              		.loc 1 548 0
 682 0076 6346     		mov	r3, ip
 683 0078 1C60     		str	r4, [r3]
 554:Generated_Source\PSoC4/CapSense_SensingCSD_LL.c ****             newRegValue |= CapSense_SW_REFGEN_SEL_SW_SGR_MASK | CapSense_SW_REFGEN_SEL_SW_IAIB_MASK
 684              		.loc 1 554 0
 685 007a 1368     		ldr	r3, [r2]
 686              	.LVL68:
 555:Generated_Source\PSoC4/CapSense_SensingCSD_LL.c ****             CY_SET_REG32(CapSense_SW_REFGEN_SEL_PTR, newRegValue);
 687              		.loc 1 555 0
 688 007c 3343     		orrs	r3, r6
 689              	.LVL69:
 556:Generated_Source\PSoC4/CapSense_SensingCSD_LL.c ****         #else
 690              		.loc 1 556 0
 691 007e 1360     		str	r3, [r2]
 592:Generated_Source\PSoC4/CapSense_SensingCSD_LL.c **** 
 692              		.loc 1 592 0
 693 0080 8023     		movs	r3, #128
 694              	.LVL70:
 695 0082 5B04     		lsls	r3, r3, #17
 696 0084 224A     		ldr	r2, .L43+64
 697              	.LVL71:
 698 0086 1360     		str	r3, [r2]
 699              	.LVL72:
 595:Generated_Source\PSoC4/CapSense_SensingCSD_LL.c **** 
 700              		.loc 1 595 0
 701 0088 2249     		ldr	r1, .L43+68
ARM GAS  C:\Users\220036~1\AppData\Local\Temp\cccwt0mM.s 			page 47


 702 008a 234A     		ldr	r2, .L43+72
 703 008c 1160     		str	r1, [r2]
 599:Generated_Source\PSoC4/CapSense_SensingCSD_LL.c **** 
 704              		.loc 1 599 0
 705 008e 0222     		movs	r2, #2
 706 0090 3A60     		str	r2, [r7]
 602:Generated_Source\PSoC4/CapSense_SensingCSD_LL.c ****                                                                       CapSense_SW_AMUXBUF_SEL_SW_IC
 707              		.loc 1 602 0
 708 0092 2249     		ldr	r1, .L43+76
 709 0094 224A     		ldr	r2, .L43+80
 710 0096 1160     		str	r1, [r2]
 612:Generated_Source\PSoC4/CapSense_SensingCSD_LL.c ****     #endif /* (CapSense_2000_MV > CapSense_CYDEV_VDDA_MV) */
 711              		.loc 1 612 0
 712 0098 2B60     		str	r3, [r5]
 616:Generated_Source\PSoC4/CapSense_SensingCSD_LL.c **** 
 713              		.loc 1 616 0
 714 009a FFF7FEFF 		bl	CapSense_SsCSDConfigIDACs
 715              	.LVL73:
 619:Generated_Source\PSoC4/CapSense_SensingCSD_LL.c **** 
 716              		.loc 1 619 0
 717 009e 2C23     		movs	r3, #44
 718 00a0 204A     		ldr	r2, .L43+84
 719 00a2 D05C     		ldrb	r0, [r2, r3]
 720 00a4 FFF7FEFF 		bl	CapSense_SsSetModClkClockDivider
 721              	.LVL74:
 623:Generated_Source\PSoC4/CapSense_SensingCSD_LL.c ****     #endif /* (CapSense_ENABLE == CapSense_CSD_SHIELD_EN) */
 722              		.loc 1 623 0
 723 00a8 0020     		movs	r0, #0
 724 00aa FFF7FEFF 		bl	CapSense_SsSetShieldDelay
 725              	.LVL75:
 627:Generated_Source\PSoC4/CapSense_SensingCSD_LL.c **** 
 726              		.loc 1 627 0
 727 00ae FFF7FEFF 		bl	CapSense_SsCSDSetFilterDelay
 728              	.LVL76:
 631:Generated_Source\PSoC4/CapSense_SensingCSD_LL.c ****                                                   CapSense_CONFIG_SENSE_EN_MASK |
 729              		.loc 1 631 0
 730 00b2 1D4B     		ldr	r3, .L43+88
 731 00b4 1B68     		ldr	r3, [r3]
 732 00b6 1D4A     		ldr	r2, .L43+92
 733 00b8 1343     		orrs	r3, r2
 734 00ba 1D4A     		ldr	r2, .L43+96
 735 00bc 1360     		str	r3, [r2]
 637:Generated_Source\PSoC4/CapSense_SensingCSD_LL.c **** 
 736              		.loc 1 637 0
 737 00be 0F22     		movs	r2, #15
 738 00c0 1C4B     		ldr	r3, .L43+100
 739 00c2 1A60     		str	r2, [r3]
 640:Generated_Source\PSoC4/CapSense_SensingCSD_LL.c **** 
 740              		.loc 1 640 0
 741 00c4 1C4B     		ldr	r3, .L43+104
 742 00c6 1C60     		str	r4, [r3]
 643:Generated_Source\PSoC4/CapSense_SensingCSD_LL.c ****     #endif /* (CapSense_ENABLE == CapSense_CSDV2) */
 743              		.loc 1 643 0
 744 00c8 053A     		subs	r2, r2, #5
 745 00ca 1C4B     		ldr	r3, .L43+108
 746 00cc 1A60     		str	r2, [r3]
 675:Generated_Source\PSoC4/CapSense_SensingCSD_LL.c **** 
ARM GAS  C:\Users\220036~1\AppData\Local\Temp\cccwt0mM.s 			page 48


 747              		.loc 1 675 0
 748              		@ sp needed
 749 00ce F8BD     		pop	{r3, r4, r5, r6, r7, pc}
 750              	.L44:
 751              		.align	2
 752              	.L43:
 753 00d0 04022940 		.word	1076429316
 754 00d4 A8022940 		.word	1076429480
 755 00d8 01000010 		.word	268435457
 756 00dc F4002940 		.word	1076429044
 757 00e0 B4022940 		.word	1076429492
 758 00e4 C0022940 		.word	1076429504
 759 00e8 20032940 		.word	1076429600
 760 00ec 84012940 		.word	1076429188
 761 00f0 88022940 		.word	1076429448
 762 00f4 80022940 		.word	1076429440
 763 00f8 84022940 		.word	1076429444
 764 00fc 80012940 		.word	1076429184
 765 0100 00040240 		.word	1073873920
 766 0104 FFF0FFFF 		.word	-3841
 767 0108 94022940 		.word	1076429460
 768 010c A0022940 		.word	1076429472
 769 0110 A4022940 		.word	1076429476
 770 0114 410D0000 		.word	3393
 771 0118 88012940 		.word	1076429192
 772 011c 00000301 		.word	16973824
 773 0120 90022940 		.word	1076429456
 774 0124 00000000 		.word	CapSense_dsRam
 775 0128 00000000 		.word	.LANCHOR0
 776 012c 00100080 		.word	-2147479552
 777 0130 00002940 		.word	1076428800
 778 0134 00032940 		.word	1076429568
 779 0138 F0012940 		.word	1076429296
 780 013c 10032940 		.word	1076429584
 781              		.cfi_endproc
 782              	.LFE8:
 783              		.size	CapSense_SsCSDInitialize, .-CapSense_SsCSDInitialize
 784              		.section	.text.CapSense_SsCSDSetUpIdacs,"ax",%progbits
 785              		.align	2
 786              		.global	CapSense_SsCSDSetUpIdacs
 787              		.code	16
 788              		.thumb_func
 789              		.type	CapSense_SsCSDSetUpIdacs, %function
 790              	CapSense_SsCSDSetUpIdacs:
 791              	.LFB10:
 756:Generated_Source\PSoC4/CapSense_SensingCSD_LL.c **** 
 792              		.loc 1 756 0
 793              		.cfi_startproc
 794              		@ args = 0, pretend = 0, frame = 0
 795              		@ frame_needed = 0, uses_anonymous_args = 0
 796              	.LVL77:
 797 0000 70B5     		push	{r4, r5, r6, lr}
 798              		.cfi_def_cfa_offset 16
 799              		.cfi_offset 4, -16
 800              		.cfi_offset 5, -12
 801              		.cfi_offset 6, -8
 802              		.cfi_offset 14, -4
ARM GAS  C:\Users\220036~1\AppData\Local\Temp\cccwt0mM.s 			page 49


 803 0002 0500     		movs	r5, r0
 768:Generated_Source\PSoC4/CapSense_SensingCSD_LL.c **** 
 804              		.loc 1 768 0
 805 0004 FFF7FEFF 		bl	CyEnterCriticalSection
 806              	.LVL78:
 771:Generated_Source\PSoC4/CapSense_SensingCSD_LL.c **** 
 807              		.loc 1 771 0
 808 0008 0C49     		ldr	r1, .L46
 809 000a 0B68     		ldr	r3, [r1]
 810              	.LVL79:
 774:Generated_Source\PSoC4/CapSense_SensingCSD_LL.c **** 
 811              		.loc 1 774 0
 812 000c 7F26     		movs	r6, #127
 813 000e B343     		bics	r3, r6
 814              	.LVL80:
 787:Generated_Source\PSoC4/CapSense_SensingCSD_LL.c ****     #endif /* (CapSense_CSD_MATRIX_WIDGET_EN | CapSense_CSD_TOUCHPAD_WIDGET_EN) */
 815              		.loc 1 787 0
 816 0010 0B4A     		ldr	r2, .L46+4
 817 0012 1478     		ldrb	r4, [r2]
 818 0014 2D19     		adds	r5, r5, r4
 819              	.LVL81:
 820 0016 EA7A     		ldrb	r2, [r5, #11]
 821 0018 1343     		orrs	r3, r2
 822              	.LVL82:
 791:Generated_Source\PSoC4/CapSense_SensingCSD_LL.c ****     CyExitCriticalSection(interruptState);
 823              		.loc 1 791 0
 824 001a 0B60     		str	r3, [r1]
 792:Generated_Source\PSoC4/CapSense_SensingCSD_LL.c **** 
 825              		.loc 1 792 0
 826 001c FFF7FEFF 		bl	CyExitCriticalSection
 827              	.LVL83:
 796:Generated_Source\PSoC4/CapSense_SensingCSD_LL.c ****         /* Get IDACB Value */
 828              		.loc 1 796 0
 829 0020 FFF7FEFF 		bl	CyEnterCriticalSection
 830              	.LVL84:
 798:Generated_Source\PSoC4/CapSense_SensingCSD_LL.c **** 
 831              		.loc 1 798 0
 832 0024 0749     		ldr	r1, .L46+8
 833 0026 0B68     		ldr	r3, [r1]
 834              	.LVL85:
 801:Generated_Source\PSoC4/CapSense_SensingCSD_LL.c **** 
 835              		.loc 1 801 0
 836 0028 B343     		bics	r3, r6
 837              	.LVL86:
 804:Generated_Source\PSoC4/CapSense_SensingCSD_LL.c **** 
 838              		.loc 1 804 0
 839 002a 074A     		ldr	r2, .L46+12
 840 002c 1268     		ldr	r2, [r2]
 841 002e 1419     		adds	r4, r2, r4
 842 0030 E27A     		ldrb	r2, [r4, #11]
 843 0032 1343     		orrs	r3, r2
 844              	.LVL87:
 807:Generated_Source\PSoC4/CapSense_SensingCSD_LL.c ****         CyExitCriticalSection(interruptState);
 845              		.loc 1 807 0
 846 0034 0B60     		str	r3, [r1]
 808:Generated_Source\PSoC4/CapSense_SensingCSD_LL.c ****     #endif /* ((CapSense_ENABLE == CapSense_CSD_IDAC_COMP_EN) && \
 847              		.loc 1 808 0
ARM GAS  C:\Users\220036~1\AppData\Local\Temp\cccwt0mM.s 			page 50


 848 0036 FFF7FEFF 		bl	CyExitCriticalSection
 849              	.LVL88:
 849:Generated_Source\PSoC4/CapSense_SensingCSD_LL.c **** 
 850              		.loc 1 849 0
 851              		@ sp needed
 852 003a 70BD     		pop	{r4, r5, r6, pc}
 853              	.L47:
 854              		.align	2
 855              	.L46:
 856 003c C0012940 		.word	1076429248
 857 0040 00000000 		.word	CapSense_scanFreqIndex
 858 0044 C4012940 		.word	1076429252
 859 0048 00000000 		.word	CapSense_curRamSnsPtr
 860              		.cfi_endproc
 861              	.LFE10:
 862              		.size	CapSense_SsCSDSetUpIdacs, .-CapSense_SsCSDSetUpIdacs
 863              		.section	.text.CapSense_SsCSDGetNumberOfConversions,"ax",%progbits
 864              		.align	2
 865              		.global	CapSense_SsCSDGetNumberOfConversions
 866              		.code	16
 867              		.thumb_func
 868              		.type	CapSense_SsCSDGetNumberOfConversions, %function
 869              	CapSense_SsCSDGetNumberOfConversions:
 870              	.LFB11:
 873:Generated_Source\PSoC4/CapSense_SensingCSD_LL.c ****         uint32 conversionsNum;
 871              		.loc 1 873 0
 872              		.cfi_startproc
 873              		@ args = 0, pretend = 0, frame = 0
 874              		@ frame_needed = 0, uses_anonymous_args = 0
 875              	.LVL89:
 876 0000 10B5     		push	{r4, lr}
 877              		.cfi_def_cfa_offset 8
 878              		.cfi_offset 4, -8
 879              		.cfi_offset 14, -4
 880 0002 0300     		movs	r3, r0
 881 0004 1400     		movs	r4, r2
 880:Generated_Source\PSoC4/CapSense_SensingCSD_LL.c **** 
 882              		.loc 1 880 0
 883 0006 0120     		movs	r0, #1
 884              	.LVL90:
 885 0008 8840     		lsls	r0, r0, r1
 886 000a 0138     		subs	r0, r0, #1
 887              	.LVL91:
 909:Generated_Source\PSoC4/CapSense_SensingCSD_LL.c ****         {
 888              		.loc 1 909 0
 889 000c 002B     		cmp	r3, #0
 890 000e 02D0     		beq	.L49
 911:Generated_Source\PSoC4/CapSense_SensingCSD_LL.c ****         }
 891              		.loc 1 911 0
 892 0010 1900     		movs	r1, r3
 893              	.LVL92:
 894 0012 FFF7FEFF 		bl	__aeabi_uidiv
 895              	.LVL93:
 896              	.L49:
 917:Generated_Source\PSoC4/CapSense_SensingCSD_LL.c ****         {
 897              		.loc 1 917 0
 898 0016 053C     		subs	r4, r4, #5
ARM GAS  C:\Users\220036~1\AppData\Local\Temp\cccwt0mM.s 			page 51


 899              	.LVL94:
 900 0018 012C     		cmp	r4, #1
 901 001a 00D8     		bhi	.L50
 922:Generated_Source\PSoC4/CapSense_SensingCSD_LL.c ****                 break;
 902              		.loc 1 922 0
 903 001c 4008     		lsrs	r0, r0, #1
 904              	.LVL95:
 905              	.L50:
 932:Generated_Source\PSoC4/CapSense_SensingCSD_LL.c ****     }
 906              		.loc 1 932 0
 907 001e 0028     		cmp	r0, #0
 908 0020 00D1     		bne	.L52
 909 0022 0130     		adds	r0, r0, #1
 910              	.LVL96:
 911              	.L52:
 933:Generated_Source\PSoC4/CapSense_SensingCSD_LL.c **** #endif /* (CapSense_ENABLE == CapSense_CSDV2) */
 912              		.loc 1 933 0 discriminator 4
 913              		@ sp needed
 914              	.LVL97:
 915 0024 10BD     		pop	{r4, pc}
 916              		.cfi_endproc
 917              	.LFE11:
 918              		.size	CapSense_SsCSDGetNumberOfConversions, .-CapSense_SsCSDGetNumberOfConversions
 919 0026 C046     		.section	.text.CapSense_SsCSDConfigClock,"ax",%progbits
 920              		.align	2
 921              		.global	CapSense_SsCSDConfigClock
 922              		.code	16
 923              		.thumb_func
 924              		.type	CapSense_SsCSDConfigClock, %function
 925              	CapSense_SsCSDConfigClock:
 926              	.LFB12:
 949:Generated_Source\PSoC4/CapSense_SensingCSD_LL.c ****     uint32 snsClkDivider;
 927              		.loc 1 949 0
 928              		.cfi_startproc
 929              		@ args = 0, pretend = 0, frame = 0
 930              		@ frame_needed = 0, uses_anonymous_args = 0
 931 0000 10B5     		push	{r4, lr}
 932              		.cfi_def_cfa_offset 8
 933              		.cfi_offset 4, -8
 934              		.cfi_offset 14, -4
 955:Generated_Source\PSoC4/CapSense_SensingCSD_LL.c **** 
 935              		.loc 1 955 0
 936 0002 0C4B     		ldr	r3, .L59
 937 0004 1B78     		ldrb	r3, [r3]
 954:Generated_Source\PSoC4/CapSense_SensingCSD_LL.c ****              CapSense_dsFlash.wdgtArray[CapSense_widgetIndex].ptr2WdgtRam;
 938              		.loc 1 954 0
 939 0006 5B01     		lsls	r3, r3, #5
 940 0008 0B4A     		ldr	r2, .L59+4
 941 000a D318     		adds	r3, r2, r3
 942 000c 5B68     		ldr	r3, [r3, #4]
 943              	.LVL98:
 972:Generated_Source\PSoC4/CapSense_SensingCSD_LL.c ****         #endif /* (CapSense_CSD_MATRIX_WIDGET_EN || CapSense_CSD_TOUCHPAD_WIDGET_EN) */
 944              		.loc 1 972 0
 945 000e 9989     		ldrh	r1, [r3, #12]
 946              	.LVL99:
 988:Generated_Source\PSoC4/CapSense_SensingCSD_LL.c ****     #endif /* (CapSense_CSD_MATRIX_WIDGET_EN || CapSense_CSD_TOUCHPAD_WIDGET_EN) */
 947              		.loc 1 988 0
ARM GAS  C:\Users\220036~1\AppData\Local\Temp\cccwt0mM.s 			page 52


 948 0010 9B7B     		ldrb	r3, [r3, #14]
 949              	.LVL100:
 992:Generated_Source\PSoC4/CapSense_SensingCSD_LL.c **** 
 950              		.loc 1 992 0
 951 0012 1804     		lsls	r0, r3, #16
 952              	.LVL101:
 995:Generated_Source\PSoC4/CapSense_SensingCSD_LL.c ****             (CapSense_CLK_SOURCE_PRS12 == snsClkSrc))
 953              		.loc 1 995 0
 954 0014 5A1F     		subs	r2, r3, #5
 955 0016 012A     		cmp	r2, #1
 956 0018 02D8     		bhi	.L55
 998:Generated_Source\PSoC4/CapSense_SensingCSD_LL.c ****         }
 957              		.loc 1 998 0
 958 001a 8022     		movs	r2, #128
 959 001c 9204     		lsls	r2, r2, #18
 960 001e 1043     		orrs	r0, r2
 961              	.LVL102:
 962              	.L55:
1007:Generated_Source\PSoC4/CapSense_SensingCSD_LL.c ****         {
 963              		.loc 1 1007 0
 964 0020 053B     		subs	r3, r3, #5
 965              	.LVL103:
 966 0022 DBB2     		uxtb	r3, r3
 967              	.LVL104:
 968 0024 012B     		cmp	r3, #1
 969 0026 02D8     		bhi	.L56
1012:Generated_Source\PSoC4/CapSense_SensingCSD_LL.c ****             if (snsClkDivider == 0u)
 970              		.loc 1 1012 0
 971 0028 4908     		lsrs	r1, r1, #1
 972              	.LVL105:
1013:Generated_Source\PSoC4/CapSense_SensingCSD_LL.c ****             {
 973              		.loc 1 1013 0
 974 002a 00D1     		bne	.L56
1015:Generated_Source\PSoC4/CapSense_SensingCSD_LL.c ****             }
 975              		.loc 1 1015 0
 976 002c 0131     		adds	r1, r1, #1
 977              	.LVL106:
 978              	.L56:
1025:Generated_Source\PSoC4/CapSense_SensingCSD_LL.c **** }
 979              		.loc 1 1025 0
 980 002e FFF7FEFF 		bl	CapSense_SsCSDSetModeSnsClockDivider
 981              	.LVL107:
1026:Generated_Source\PSoC4/CapSense_SensingCSD_LL.c **** 
 982              		.loc 1 1026 0
 983              		@ sp needed
 984 0032 10BD     		pop	{r4, pc}
 985              	.L60:
 986              		.align	2
 987              	.L59:
 988 0034 00000000 		.word	CapSense_widgetIndex
 989 0038 00000000 		.word	CapSense_dsFlash
 990              		.cfi_endproc
 991              	.LFE12:
 992              		.size	CapSense_SsCSDConfigClock, .-CapSense_SsCSDConfigClock
 993              		.section	.text.CapSense_SsCSDCalculateScanDuration,"ax",%progbits
 994              		.align	2
 995              		.global	CapSense_SsCSDCalculateScanDuration
ARM GAS  C:\Users\220036~1\AppData\Local\Temp\cccwt0mM.s 			page 53


 996              		.code	16
 997              		.thumb_func
 998              		.type	CapSense_SsCSDCalculateScanDuration, %function
 999              	CapSense_SsCSDCalculateScanDuration:
 1000              	.LFB13:
1050:Generated_Source\PSoC4/CapSense_SensingCSD_LL.c ****     #if (CapSense_ENABLE == CapSense_CSDV2)
 1001              		.loc 1 1050 0
 1002              		.cfi_startproc
 1003              		@ args = 0, pretend = 0, frame = 0
 1004              		@ frame_needed = 0, uses_anonymous_args = 0
 1005              	.LVL108:
 1006 0000 10B5     		push	{r4, lr}
 1007              		.cfi_def_cfa_offset 8
 1008              		.cfi_offset 4, -8
 1009              		.cfi_offset 14, -4
 1010 0002 0300     		movs	r3, r0
1070:Generated_Source\PSoC4/CapSense_SensingCSD_LL.c ****         #endif /* (CapSense_CSD_MATRIX_WIDGET_EN || CapSense_CSD_TOUCHPAD_WIDGET_EN) */
 1011              		.loc 1 1070 0
 1012 0004 8089     		ldrh	r0, [r0, #12]
 1013              	.LVL109:
1074:Generated_Source\PSoC4/CapSense_SensingCSD_LL.c **** 
 1014              		.loc 1 1074 0
 1015 0006 5988     		ldrh	r1, [r3, #2]
 1016 0008 9A7B     		ldrb	r2, [r3, #14]
 1017 000a FFF7FEFF 		bl	CapSense_SsCSDGetNumberOfConversions
 1018              	.LVL110:
1077:Generated_Source\PSoC4/CapSense_SensingCSD_LL.c ****     #else
 1019              		.loc 1 1077 0
 1020 000e 0004     		lsls	r0, r0, #16
 1021              	.LVL111:
 1022 0010 000C     		lsrs	r0, r0, #16
 1023 0012 014B     		ldr	r3, .L62
 1024 0014 1860     		str	r0, [r3]
1082:Generated_Source\PSoC4/CapSense_SensingCSD_LL.c **** 
 1025              		.loc 1 1082 0
 1026              		@ sp needed
 1027 0016 10BD     		pop	{r4, pc}
 1028              	.L63:
 1029              		.align	2
 1030              	.L62:
 1031 0018 14032940 		.word	1076429588
 1032              		.cfi_endproc
 1033              	.LFE13:
 1034              		.size	CapSense_SsCSDCalculateScanDuration, .-CapSense_SsCSDCalculateScanDuration
 1035              		.section	.text.CapSense_SsCSDStartSample,"ax",%progbits
 1036              		.align	2
 1037              		.global	CapSense_SsCSDStartSample
 1038              		.code	16
 1039              		.thumb_func
 1040              		.type	CapSense_SsCSDStartSample, %function
 1041              	CapSense_SsCSDStartSample:
 1042              	.LFB16:
1264:Generated_Source\PSoC4/CapSense_SensingCSD_LL.c ****     #if (CapSense_ENABLE != CapSense_CSDV2)
 1043              		.loc 1 1264 0
 1044              		.cfi_startproc
 1045              		@ args = 0, pretend = 0, frame = 0
 1046              		@ frame_needed = 0, uses_anonymous_args = 0
ARM GAS  C:\Users\220036~1\AppData\Local\Temp\cccwt0mM.s 			page 54


 1047 0000 10B5     		push	{r4, lr}
 1048              		.cfi_def_cfa_offset 8
 1049              		.cfi_offset 4, -8
 1050              		.cfi_offset 14, -4
1277:Generated_Source\PSoC4/CapSense_SensingCSD_LL.c **** 
 1051              		.loc 1 1277 0
 1052 0002 1020     		movs	r0, #16
 1053 0004 FFF7FEFF 		bl	CyIntDisable
 1054              	.LVL112:
1280:Generated_Source\PSoC4/CapSense_SensingCSD_LL.c **** 
 1055              		.loc 1 1280 0
 1056 0008 0121     		movs	r1, #1
 1057 000a 354B     		ldr	r3, .L72
 1058 000c 1960     		str	r1, [r3]
 1059              	.LBB6:
 1060              	.LBB7:
1874:Generated_Source\PSoC4/CapSense_SensingCSD_LL.c **** 
1875:Generated_Source\PSoC4/CapSense_SensingCSD_LL.c ****     /*******************************************************************************
1876:Generated_Source\PSoC4/CapSense_SensingCSD_LL.c ****     * Function Name: CapSense_SsCSDCalibrateOneSensor
1877:Generated_Source\PSoC4/CapSense_SensingCSD_LL.c ****     ****************************************************************************//**
1878:Generated_Source\PSoC4/CapSense_SensingCSD_LL.c ****     *
1879:Generated_Source\PSoC4/CapSense_SensingCSD_LL.c ****     * \brief
1880:Generated_Source\PSoC4/CapSense_SensingCSD_LL.c ****     *  Computes the Modulator IDAC value for one sensor that provides raw signal at
1881:Generated_Source\PSoC4/CapSense_SensingCSD_LL.c ****     *  the specified level.
1882:Generated_Source\PSoC4/CapSense_SensingCSD_LL.c ****     *
1883:Generated_Source\PSoC4/CapSense_SensingCSD_LL.c ****     * \details
1884:Generated_Source\PSoC4/CapSense_SensingCSD_LL.c ****     *   The function performs the following tasks:
1885:Generated_Source\PSoC4/CapSense_SensingCSD_LL.c ****     *   1. initializes The Compensation IDAC to zero
1886:Generated_Source\PSoC4/CapSense_SensingCSD_LL.c ****     *   2. Enables the calibrated sensor
1887:Generated_Source\PSoC4/CapSense_SensingCSD_LL.c ****     *   3. Performs eight iteration steps to get the target = rawLevel
