ARM GAS  C:\Users\220036~1\AppData\Local\Temp\ccGySGhB.s 			page 1


   1              		.syntax unified
   2              		.cpu cortex-m0plus
   3              		.fpu softvfp
   4              		.eabi_attribute 20, 1
   5              		.eabi_attribute 21, 1
   6              		.eabi_attribute 23, 3
   7              		.eabi_attribute 24, 1
   8              		.eabi_attribute 25, 1
   9              		.eabi_attribute 26, 1
  10              		.eabi_attribute 30, 1
  11              		.eabi_attribute 34, 0
  12              		.eabi_attribute 18, 4
  13              		.thumb
  14              		.syntax unified
  15              		.file	"CapSense_SelfTest.c"
  16              		.text
  17              	.Ltext0:
  18              		.cfi_sections	.debug_frame
  19              		.section	.text.CapSense_DsCalculateCrc16,"ax",%progbits
  20              		.align	2
  21              		.code	16
  22              		.thumb_func
  23              		.type	CapSense_DsCalculateCrc16, %function
  24              	CapSense_DsCalculateCrc16:
  25              	.LFB7:
  26              		.file 1 "Generated_Source\\PSoC4\\CapSense_SelfTest.c"
   1:Generated_Source\PSoC4/CapSense_SelfTest.c **** /***************************************************************************//**
   2:Generated_Source\PSoC4/CapSense_SelfTest.c **** * \file CapSense_SelfTest.c
   3:Generated_Source\PSoC4/CapSense_SelfTest.c **** * \version 6.0
   4:Generated_Source\PSoC4/CapSense_SelfTest.c **** *
   5:Generated_Source\PSoC4/CapSense_SelfTest.c **** * \brief
   6:Generated_Source\PSoC4/CapSense_SelfTest.c **** *   This file provides the source code for the Built-In Self-Test library.
   7:Generated_Source\PSoC4/CapSense_SelfTest.c **** *
   8:Generated_Source\PSoC4/CapSense_SelfTest.c **** * \see CapSense v6.0 Datasheet
   9:Generated_Source\PSoC4/CapSense_SelfTest.c **** *
  10:Generated_Source\PSoC4/CapSense_SelfTest.c **** *//*****************************************************************************
  11:Generated_Source\PSoC4/CapSense_SelfTest.c **** * Copyright (2016-2018), Cypress Semiconductor Corporation.
  12:Generated_Source\PSoC4/CapSense_SelfTest.c **** ********************************************************************************
  13:Generated_Source\PSoC4/CapSense_SelfTest.c **** * This software is owned by Cypress Semiconductor Corporation (Cypress) and is
  14:Generated_Source\PSoC4/CapSense_SelfTest.c **** * protected by and subject to worldwide patent protection (United States and
  15:Generated_Source\PSoC4/CapSense_SelfTest.c **** * foreign), United States copyright laws and international treaty provisions.
  16:Generated_Source\PSoC4/CapSense_SelfTest.c **** * Cypress hereby grants to licensee a personal, non-exclusive, non-transferable
  17:Generated_Source\PSoC4/CapSense_SelfTest.c **** * license to copy, use, modify, create derivative works of, and compile the
  18:Generated_Source\PSoC4/CapSense_SelfTest.c **** * Cypress Source Code and derivative works for the sole purpose of creating
  19:Generated_Source\PSoC4/CapSense_SelfTest.c **** * custom software in support of licensee product to be used only in conjunction
  20:Generated_Source\PSoC4/CapSense_SelfTest.c **** * with a Cypress integrated circuit as specified in the applicable agreement.
  21:Generated_Source\PSoC4/CapSense_SelfTest.c **** * Any reproduction, modification, translation, compilation, or representation of
  22:Generated_Source\PSoC4/CapSense_SelfTest.c **** * this software except as specified above is prohibited without the express
  23:Generated_Source\PSoC4/CapSense_SelfTest.c **** * written permission of Cypress.
  24:Generated_Source\PSoC4/CapSense_SelfTest.c **** *
  25:Generated_Source\PSoC4/CapSense_SelfTest.c **** * Disclaimer: CYPRESS MAKES NO WARRANTY OF ANY KIND, EXPRESS OR IMPLIED, WITH
  26:Generated_Source\PSoC4/CapSense_SelfTest.c **** * REGARD TO THIS MATERIAL, INCLUDING, BUT NOT LIMITED TO, THE IMPLIED
  27:Generated_Source\PSoC4/CapSense_SelfTest.c **** * WARRANTIES OF MERCHANTABILITY AND FITNESS FOR A PARTICULAR PURPOSE.
  28:Generated_Source\PSoC4/CapSense_SelfTest.c **** * Cypress reserves the right to make changes without further notice to the
  29:Generated_Source\PSoC4/CapSense_SelfTest.c **** * materials described herein. Cypress does not assume any liability arising out
  30:Generated_Source\PSoC4/CapSense_SelfTest.c **** * of the application or use of any product or circuit described herein. Cypress
  31:Generated_Source\PSoC4/CapSense_SelfTest.c **** * does not authorize its products for use as critical components in life-support
ARM GAS  C:\Users\220036~1\AppData\Local\Temp\ccGySGhB.s 			page 2


  32:Generated_Source\PSoC4/CapSense_SelfTest.c **** * systems where a malfunction or failure may reasonably be expected to result in
  33:Generated_Source\PSoC4/CapSense_SelfTest.c **** * significant injury to the user. The inclusion of Cypress' product in a life-
  34:Generated_Source\PSoC4/CapSense_SelfTest.c **** * support systems application implies that the manufacturer assumes all risk of
  35:Generated_Source\PSoC4/CapSense_SelfTest.c **** * such use and in doing so indemnifies Cypress against all charges. Use may be
  36:Generated_Source\PSoC4/CapSense_SelfTest.c **** * limited by and subject to the applicable Cypress software license agreement.
  37:Generated_Source\PSoC4/CapSense_SelfTest.c **** *******************************************************************************/
  38:Generated_Source\PSoC4/CapSense_SelfTest.c **** 
  39:Generated_Source\PSoC4/CapSense_SelfTest.c **** #include "cytypes.h"
  40:Generated_Source\PSoC4/CapSense_SelfTest.c **** #include "CyLib.h"
  41:Generated_Source\PSoC4/CapSense_SelfTest.c **** #include "CapSense_Configuration.h"
  42:Generated_Source\PSoC4/CapSense_SelfTest.c **** #include "CapSense_Structure.h"
  43:Generated_Source\PSoC4/CapSense_SelfTest.c **** #include "CapSense_Sensing.h"
  44:Generated_Source\PSoC4/CapSense_SelfTest.c **** #include "CapSense_SelfTest.h"
  45:Generated_Source\PSoC4/CapSense_SelfTest.c **** 
  46:Generated_Source\PSoC4/CapSense_SelfTest.c **** /**************************************************************************************************
  47:Generated_Source\PSoC4/CapSense_SelfTest.c **** * Local definition
  48:Generated_Source\PSoC4/CapSense_SelfTest.c **** ***************************************************************************************************
  49:Generated_Source\PSoC4/CapSense_SelfTest.c **** #define CapSense_TST_CRC_GROUP_EN                       (CapSense_TST_GLOBAL_CRC_EN || \
  50:Generated_Source\PSoC4/CapSense_SelfTest.c ****                                                                  CapSense_TST_WDGT_CRC_EN)
  51:Generated_Source\PSoC4/CapSense_SelfTest.c **** 
  52:Generated_Source\PSoC4/CapSense_SelfTest.c **** #define CapSense_TST_BASELINE_GROUP_EN                  (CapSense_TST_BSLN_DUPLICATION_EN || \
  53:Generated_Source\PSoC4/CapSense_SelfTest.c ****                                                                  CapSense_TST_BSLN_RAW_OUT_RANGE_EN
  54:Generated_Source\PSoC4/CapSense_SelfTest.c **** 
  55:Generated_Source\PSoC4/CapSense_SelfTest.c **** #define CapSense_TST_HW_GROUP_EN                        (CapSense_TST_SHORT_GROUP_EN || \
  56:Generated_Source\PSoC4/CapSense_SelfTest.c ****                                                                  CapSense_TST_MEASUREMENT_GROUP_EN)
  57:Generated_Source\PSoC4/CapSense_SelfTest.c **** 
  58:Generated_Source\PSoC4/CapSense_SelfTest.c **** #define CapSense_TST_SHORT_GROUP_EN                     (CapSense_TST_SNS_SHORT_EN || \
  59:Generated_Source\PSoC4/CapSense_SelfTest.c ****                                                                  CapSense_TST_SNS2SNS_SHORT_EN)
  60:Generated_Source\PSoC4/CapSense_SelfTest.c **** 
  61:Generated_Source\PSoC4/CapSense_SelfTest.c **** #define CapSense_TST_MEASUREMENT_GROUP_EN               (CapSense_TST_SNS_CAP_EN || \
  62:Generated_Source\PSoC4/CapSense_SelfTest.c ****                                                                  CapSense_TST_SH_CAP_EN || \
  63:Generated_Source\PSoC4/CapSense_SelfTest.c ****                                                                  CapSense_TST_EXTERNAL_CAP_EN)
  64:Generated_Source\PSoC4/CapSense_SelfTest.c **** 
  65:Generated_Source\PSoC4/CapSense_SelfTest.c **** #define CapSense_TST_SW_WATCHDOG_CYCLES_NUM             (0x0000FFFFLu)
  66:Generated_Source\PSoC4/CapSense_SelfTest.c **** /**************************************************************************************************
  67:Generated_Source\PSoC4/CapSense_SelfTest.c **** * Definition of IO register modes
  68:Generated_Source\PSoC4/CapSense_SelfTest.c **** ***************************************************************************************************
  69:Generated_Source\PSoC4/CapSense_SelfTest.c **** 
  70:Generated_Source\PSoC4/CapSense_SelfTest.c **** /* Port Select HSIOM Register */
  71:Generated_Source\PSoC4/CapSense_SelfTest.c **** #define CapSense_TST_HSIOM_GPIO                         (0Lu)
  72:Generated_Source\PSoC4/CapSense_SelfTest.c **** #define CapSense_TST_HSIOM_CSD_SENSE                    (4Lu)
  73:Generated_Source\PSoC4/CapSense_SelfTest.c **** #define CapSense_TST_HSIOM_CSD_SHIELD                   (5Lu)
  74:Generated_Source\PSoC4/CapSense_SelfTest.c **** #define CapSense_TST_HSIOM_AMUXA                        (6Lu)
  75:Generated_Source\PSoC4/CapSense_SelfTest.c **** #define CapSense_TST_HSIOM_AMUXB                        (7Lu)
  76:Generated_Source\PSoC4/CapSense_SelfTest.c **** 
  77:Generated_Source\PSoC4/CapSense_SelfTest.c **** /* Port Configuration Register */
  78:Generated_Source\PSoC4/CapSense_SelfTest.c **** #define CapSense_TST_PC_HIGHZA                          (0Lu)
  79:Generated_Source\PSoC4/CapSense_SelfTest.c **** #define CapSense_TST_PC_PULLUP                          (2Lu)
  80:Generated_Source\PSoC4/CapSense_SelfTest.c **** #define CapSense_TST_PC_PULLDOWN                        (3Lu)
  81:Generated_Source\PSoC4/CapSense_SelfTest.c **** #define CapSense_TST_PC_STRONG                          (6Lu)
  82:Generated_Source\PSoC4/CapSense_SelfTest.c **** 
  83:Generated_Source\PSoC4/CapSense_SelfTest.c **** /* Port Data Register */
  84:Generated_Source\PSoC4/CapSense_SelfTest.c **** #define CapSense_TST_DR_PIN2GND                         (0Lu)
  85:Generated_Source\PSoC4/CapSense_SelfTest.c **** #define CapSense_TST_DR_PIN2VDD                         (1Lu)
  86:Generated_Source\PSoC4/CapSense_SelfTest.c **** 
  87:Generated_Source\PSoC4/CapSense_SelfTest.c **** /* Defining the drive mode of pins depending on the Inactive sensor connection setting in the Compo
  88:Generated_Source\PSoC4/CapSense_SelfTest.c **** #if(CapSense_SNS_CONNECTION_GROUND == CapSense_CSD_INACTIVE_SNS_CONNECTION)
ARM GAS  C:\Users\220036~1\AppData\Local\Temp\ccGySGhB.s 			page 3


  89:Generated_Source\PSoC4/CapSense_SelfTest.c ****     #define CapSense_TST_INACTIVE_SNS_GPIO_DM               (CapSense_TST_PC_STRONG)
  90:Generated_Source\PSoC4/CapSense_SelfTest.c **** #elif(CapSense_SNS_CONNECTION_HIGHZ == CapSense_CSD_INACTIVE_SNS_CONNECTION)
  91:Generated_Source\PSoC4/CapSense_SelfTest.c ****     #define CapSense_TST_INACTIVE_SNS_GPIO_DM               (CapSense_TST_PC_HIGHZA)
  92:Generated_Source\PSoC4/CapSense_SelfTest.c **** #elif(CapSense_SNS_CONNECTION_SHIELD == CapSense_CSD_INACTIVE_SNS_CONNECTION)
  93:Generated_Source\PSoC4/CapSense_SelfTest.c ****     #define CapSense_TST_INACTIVE_SNS_GPIO_DM               (CapSense_TST_PC_HIGHZA)
  94:Generated_Source\PSoC4/CapSense_SelfTest.c **** #else
  95:Generated_Source\PSoC4/CapSense_SelfTest.c ****     #error "Unsupported inactive connection for the inactive sensors."
  96:Generated_Source\PSoC4/CapSense_SelfTest.c **** #endif /* (CS_123_SNS_CONNECTION_GROUND == CS_123_CSD_INACTIVE_SNS_CONNECTION) */
  97:Generated_Source\PSoC4/CapSense_SelfTest.c **** 
  98:Generated_Source\PSoC4/CapSense_SelfTest.c **** /***************************************************************************//**
  99:Generated_Source\PSoC4/CapSense_SelfTest.c **** * \brief Defines Self-test HW Configuration
 100:Generated_Source\PSoC4/CapSense_SelfTest.c **** *
 101:Generated_Source\PSoC4/CapSense_SelfTest.c **** * \detail
 102:Generated_Source\PSoC4/CapSense_SelfTest.c **** * Defines the HW configuration depended on the test type. It includes the
 103:Generated_Source\PSoC4/CapSense_SelfTest.c **** * HW CSD block configuration, clock configuration, IDAC configuration and
 104:Generated_Source\PSoC4/CapSense_SelfTest.c **** * all electrode configuration.
 105:Generated_Source\PSoC4/CapSense_SelfTest.c **** *
 106:Generated_Source\PSoC4/CapSense_SelfTest.c **** *******************************************************************************/
 107:Generated_Source\PSoC4/CapSense_SelfTest.c **** typedef enum
 108:Generated_Source\PSoC4/CapSense_SelfTest.c **** {
 109:Generated_Source\PSoC4/CapSense_SelfTest.c ****     CapSense_BIST_HW_UNDEFINED_E        = 0x00u,
 110:Generated_Source\PSoC4/CapSense_SelfTest.c ****     CapSense_BIST_HW_SNS_SHORT_E        = 0x01u,
 111:Generated_Source\PSoC4/CapSense_SelfTest.c ****     CapSense_BIST_HW_S2S_SHORT_E        = 0x02u,
 112:Generated_Source\PSoC4/CapSense_SelfTest.c ****     CapSense_BIST_HW_SNS_CAP_CSD_E      = 0x03u,
 113:Generated_Source\PSoC4/CapSense_SelfTest.c ****     CapSense_BIST_HW_SNS_CAP_CSX_E      = 0x04u,
 114:Generated_Source\PSoC4/CapSense_SelfTest.c ****     CapSense_BIST_HW_SH_CAP_E           = 0x05u,
 115:Generated_Source\PSoC4/CapSense_SelfTest.c ****     CapSense_BIST_HW_EXT_CAP_E          = 0x06u,
 116:Generated_Source\PSoC4/CapSense_SelfTest.c ****     CapSense_BIST_HW_VDDA_E             = 0x07u
 117:Generated_Source\PSoC4/CapSense_SelfTest.c **** } CapSense_BIST_HW_CONFIG_ENUM;
 118:Generated_Source\PSoC4/CapSense_SelfTest.c **** 
 119:Generated_Source\PSoC4/CapSense_SelfTest.c **** /***************************************************************************//**
 120:Generated_Source\PSoC4/CapSense_SelfTest.c **** * \brief Defines Self-test IO Configuration
 121:Generated_Source\PSoC4/CapSense_SelfTest.c **** *
 122:Generated_Source\PSoC4/CapSense_SelfTest.c **** * \detail
 123:Generated_Source\PSoC4/CapSense_SelfTest.c **** * Defines the IO configuration depends on the test type.
 124:Generated_Source\PSoC4/CapSense_SelfTest.c **** *
 125:Generated_Source\PSoC4/CapSense_SelfTest.c **** *******************************************************************************/
 126:Generated_Source\PSoC4/CapSense_SelfTest.c **** typedef enum
 127:Generated_Source\PSoC4/CapSense_SelfTest.c **** {
 128:Generated_Source\PSoC4/CapSense_SelfTest.c ****     /*
 129:Generated_Source\PSoC4/CapSense_SelfTest.c ****     * The previous state
 130:Generated_Source\PSoC4/CapSense_SelfTest.c ****     */
 131:Generated_Source\PSoC4/CapSense_SelfTest.c ****     CapSense_BIST_IO_UNDEFINED_E        = 0x00u,
 132:Generated_Source\PSoC4/CapSense_SelfTest.c ****     /*
 133:Generated_Source\PSoC4/CapSense_SelfTest.c ****     * Sensor2Sensor Short
 134:Generated_Source\PSoC4/CapSense_SelfTest.c ****     * Sensor capacitance measurement of CSX widget
 135:Generated_Source\PSoC4/CapSense_SelfTest.c ****     */
 136:Generated_Source\PSoC4/CapSense_SelfTest.c ****     CapSense_BIST_IO_STRONG_E           = 0x01u,
 137:Generated_Source\PSoC4/CapSense_SelfTest.c ****     /*
 138:Generated_Source\PSoC4/CapSense_SelfTest.c ****     * Sensor Short
 139:Generated_Source\PSoC4/CapSense_SelfTest.c ****     * Ext capacitor measurement
 140:Generated_Source\PSoC4/CapSense_SelfTest.c ****     */
 141:Generated_Source\PSoC4/CapSense_SelfTest.c ****     CapSense_BIST_IO_HIGHZA_E           = 0x02u,
 142:Generated_Source\PSoC4/CapSense_SelfTest.c ****     /*
 143:Generated_Source\PSoC4/CapSense_SelfTest.c ****     * Sensor capacitance measurement of CSD widget:
 144:Generated_Source\PSoC4/CapSense_SelfTest.c ****     *     All CSX sensors are set to Strong
 145:Generated_Source\PSoC4/CapSense_SelfTest.c ****     *     All CSD sensors depends on Inactive sensor parameter and could be:
ARM GAS  C:\Users\220036~1\AppData\Local\Temp\ccGySGhB.s 			page 4


 146:Generated_Source\PSoC4/CapSense_SelfTest.c ****     *       High-Z Analog | Strong | CSD_Shield
 147:Generated_Source\PSoC4/CapSense_SelfTest.c ****     */
 148:Generated_Source\PSoC4/CapSense_SelfTest.c ****     CapSense_BIST_IO_CSD_E              = 0x03u,
 149:Generated_Source\PSoC4/CapSense_SelfTest.c ****     /*
 150:Generated_Source\PSoC4/CapSense_SelfTest.c ****     * Shield capacitance measurement
 151:Generated_Source\PSoC4/CapSense_SelfTest.c ****     *     All CSX sensors is set to Strong
 152:Generated_Source\PSoC4/CapSense_SelfTest.c ****     *     All CSD sensors depends on Inactive sensor parameter and could be:
 153:Generated_Source\PSoC4/CapSense_SelfTest.c ****     *     High-Z Analog | Strong | CSD_Sense
 154:Generated_Source\PSoC4/CapSense_SelfTest.c ****     */
 155:Generated_Source\PSoC4/CapSense_SelfTest.c ****     CapSense_BIST_IO_SHIELD_E           = 0x04u
 156:Generated_Source\PSoC4/CapSense_SelfTest.c **** } CapSense_BIST_IO_CONFIG_ENUM;
 157:Generated_Source\PSoC4/CapSense_SelfTest.c **** 
 158:Generated_Source\PSoC4/CapSense_SelfTest.c **** /**************************************************************************************************
 159:Generated_Source\PSoC4/CapSense_SelfTest.c **** * Local variables
 160:Generated_Source\PSoC4/CapSense_SelfTest.c **** ***************************************************************************************************
 161:Generated_Source\PSoC4/CapSense_SelfTest.c **** #if (CapSense_ENABLE == CapSense_TST_HW_GROUP_EN)
 162:Generated_Source\PSoC4/CapSense_SelfTest.c **** static CapSense_BIST_HW_CONFIG_ENUM CapSense_bistHwConfig = CapSense_BIST_HW_UNDEFINED_E;
 163:Generated_Source\PSoC4/CapSense_SelfTest.c **** static CapSense_BIST_IO_CONFIG_ENUM CapSense_bistIoConfig = CapSense_BIST_IO_UNDEFINED_E;
 164:Generated_Source\PSoC4/CapSense_SelfTest.c **** #endif /* (CapSense_ENABLE == CapSense_TST_HW_GROUP_EN) */
 165:Generated_Source\PSoC4/CapSense_SelfTest.c **** 
 166:Generated_Source\PSoC4/CapSense_SelfTest.c **** #if (CapSense_ENABLE == CapSense_TST_MEASUREMENT_GROUP_EN)
 167:Generated_Source\PSoC4/CapSense_SelfTest.c ****     static volatile uint16 CapSense_bistRawcount;
 168:Generated_Source\PSoC4/CapSense_SelfTest.c ****     static volatile uint32 CapSense_bistConfigCsd = CapSense_BIST_CSD_CONFIG;
 169:Generated_Source\PSoC4/CapSense_SelfTest.c **** 
 170:Generated_Source\PSoC4/CapSense_SelfTest.c ****     #if (CapSense_ENABLE != CapSense_CSDV2)
 171:Generated_Source\PSoC4/CapSense_SelfTest.c ****         static volatile uint32 CapSense_bistCounterResolution = CapSense_BIST_SCAN_DURATION;
 172:Generated_Source\PSoC4/CapSense_SelfTest.c ****     #endif /* (CapSense_ENABLE == CapSense_CSDV2) */
 173:Generated_Source\PSoC4/CapSense_SelfTest.c **** #endif /* (CapSense_ENABLE == CapSense_TST_MEASUREMENT_GROUP_EN) */
 174:Generated_Source\PSoC4/CapSense_SelfTest.c **** 
 175:Generated_Source\PSoC4/CapSense_SelfTest.c **** /**************************************************************************************************
 176:Generated_Source\PSoC4/CapSense_SelfTest.c **** * Static function prototypes
 177:Generated_Source\PSoC4/CapSense_SelfTest.c **** ***************************************************************************************************
 178:Generated_Source\PSoC4/CapSense_SelfTest.c **** 
 179:Generated_Source\PSoC4/CapSense_SelfTest.c **** /**
 180:Generated_Source\PSoC4/CapSense_SelfTest.c **** 
 181:Generated_Source\PSoC4/CapSense_SelfTest.c **** * \cond SECTION_C_INTERNAL
 182:Generated_Source\PSoC4/CapSense_SelfTest.c **** * \addtogroup group_c_internal
 183:Generated_Source\PSoC4/CapSense_SelfTest.c **** * \{
 184:Generated_Source\PSoC4/CapSense_SelfTest.c **** */
 185:Generated_Source\PSoC4/CapSense_SelfTest.c **** 
 186:Generated_Source\PSoC4/CapSense_SelfTest.c **** /* CRC group function prototypes */
 187:Generated_Source\PSoC4/CapSense_SelfTest.c **** #if (CapSense_ENABLE == CapSense_TST_WDGT_CRC_EN)
 188:Generated_Source\PSoC4/CapSense_SelfTest.c ****     static uint32 CapSense_CheckAllWidgetCRC(void);
 189:Generated_Source\PSoC4/CapSense_SelfTest.c **** #endif
 190:Generated_Source\PSoC4/CapSense_SelfTest.c **** 
 191:Generated_Source\PSoC4/CapSense_SelfTest.c **** #if (CapSense_ENABLE == CapSense_TST_CRC_GROUP_EN)
 192:Generated_Source\PSoC4/CapSense_SelfTest.c ****     static uint16 CapSense_DsCalculateCrc16(uint8 *ptrData, uint32 len);
 193:Generated_Source\PSoC4/CapSense_SelfTest.c **** #endif
 194:Generated_Source\PSoC4/CapSense_SelfTest.c **** 
 195:Generated_Source\PSoC4/CapSense_SelfTest.c **** /* Baseline group function prototypes */
 196:Generated_Source\PSoC4/CapSense_SelfTest.c **** #if (CapSense_ENABLE == CapSense_TST_BSLN_DUPLICATION_EN)
 197:Generated_Source\PSoC4/CapSense_SelfTest.c ****     static uint32 CapSense_CheckAllBaselineDuplication(void);
 198:Generated_Source\PSoC4/CapSense_SelfTest.c **** #endif
 199:Generated_Source\PSoC4/CapSense_SelfTest.c **** 
 200:Generated_Source\PSoC4/CapSense_SelfTest.c **** /* Sensor short test function prototypes */
 201:Generated_Source\PSoC4/CapSense_SelfTest.c **** #if (CapSense_ENABLE == CapSense_TST_SNS_SHORT_EN)
 202:Generated_Source\PSoC4/CapSense_SelfTest.c ****     static uint32 CapSense_CheckAllSensorShort(void);
ARM GAS  C:\Users\220036~1\AppData\Local\Temp\ccGySGhB.s 			page 5


 203:Generated_Source\PSoC4/CapSense_SelfTest.c ****     static void CapSense_UpdateTestResultSnsShort(uint32 wdgtId, uint32 snsId);
 204:Generated_Source\PSoC4/CapSense_SelfTest.c ****     static uint32 CapSense_ExecuteSnsShort(uint32 wdgtId, uint32 snsId);
 205:Generated_Source\PSoC4/CapSense_SelfTest.c ****     static uint32 CapSense_ExecuteSnsShortExt(uint32 wdgtId, uint32 ioSnsId);
 206:Generated_Source\PSoC4/CapSense_SelfTest.c **** #endif /*(CapSense_ENABLE == CapSense_TST_SNS_SHORT_EN) */
 207:Generated_Source\PSoC4/CapSense_SelfTest.c **** 
 208:Generated_Source\PSoC4/CapSense_SelfTest.c **** /* Sensor to sensor test function prototypes */
 209:Generated_Source\PSoC4/CapSense_SelfTest.c **** #if (CapSense_ENABLE == CapSense_TST_SNS2SNS_SHORT_EN)
 210:Generated_Source\PSoC4/CapSense_SelfTest.c ****     static uint32 CapSense_CheckAllSns2SnsShort(void);
 211:Generated_Source\PSoC4/CapSense_SelfTest.c ****     static void CapSense_UpdateTestResultSns2SnsShort(uint32 wdgtId, uint32 snsId);
 212:Generated_Source\PSoC4/CapSense_SelfTest.c ****     static uint32 CapSense_ExecuteSns2SnsShort(uint32 wdgtId, uint32 snsId);
 213:Generated_Source\PSoC4/CapSense_SelfTest.c ****     static uint32 CapSense_ExecuteSns2SnsShortExt(uint32 wdgtId, uint32 ioSnsId);
 214:Generated_Source\PSoC4/CapSense_SelfTest.c **** #endif /*(CapSense_ENABLE == CapSense_TST_SNS2SNS_SHORT_EN) */
 215:Generated_Source\PSoC4/CapSense_SelfTest.c **** 
 216:Generated_Source\PSoC4/CapSense_SelfTest.c **** /* Short group function prototypes */
 217:Generated_Source\PSoC4/CapSense_SelfTest.c **** #if (CapSense_ENABLE == CapSense_TST_SHORT_GROUP_EN)
 218:Generated_Source\PSoC4/CapSense_SelfTest.c ****     static uint32 CapSense_ReadElectrodeState(CapSense_FLASH_IO_STRUCT const *ioPtr);
 219:Generated_Source\PSoC4/CapSense_SelfTest.c **** #endif /* (CapSense_ENABLE == CapSense_TST_SHORT_GROUP_EN) */
 220:Generated_Source\PSoC4/CapSense_SelfTest.c **** 
 221:Generated_Source\PSoC4/CapSense_SelfTest.c **** /* Shield capacitance measurement test function prototypes */
 222:Generated_Source\PSoC4/CapSense_SelfTest.c **** #if ((CapSense_ENABLE == CapSense_TST_SH_CAP_EN) && \
 223:Generated_Source\PSoC4/CapSense_SelfTest.c ****      (0u != CapSense_CSD_TOTAL_SHIELD_COUNT))
 224:Generated_Source\PSoC4/CapSense_SelfTest.c ****     static void CapSense_BistConnectShieldAsSensor(void);
 225:Generated_Source\PSoC4/CapSense_SelfTest.c **** #endif /* ((CapSense_ENABLE == CapSense_TST_SH_CAP_EN) && \
 226:Generated_Source\PSoC4/CapSense_SelfTest.c ****            (0u != CapSense_CSD_TOTAL_SHIELD_COUNT)) */
 227:Generated_Source\PSoC4/CapSense_SelfTest.c **** 
 228:Generated_Source\PSoC4/CapSense_SelfTest.c **** /* Sensor capacitance measurement test function prototypes */
 229:Generated_Source\PSoC4/CapSense_SelfTest.c **** #if (CapSense_ENABLE == CapSense_TST_SNS_CAP_EN)
 230:Generated_Source\PSoC4/CapSense_SelfTest.c ****     static uint32 CapSense_GetSensorCapacitanceExt(uint32 wdgtId, uint32 ioSnsId);
 231:Generated_Source\PSoC4/CapSense_SelfTest.c ****     static uint32 CapSense_MeasureAllSensorCapacitance(void);
 232:Generated_Source\PSoC4/CapSense_SelfTest.c ****     static void CapSense_BistConnectSensor(uint32 wdgtId, uint32 ioSnsId);
 233:Generated_Source\PSoC4/CapSense_SelfTest.c ****     #if (CapSense_ENABLE == CapSense_CSD_SHIELD_EN)
 234:Generated_Source\PSoC4/CapSense_SelfTest.c ****         #if (0u != CapSense_CSD_TOTAL_SHIELD_COUNT)
 235:Generated_Source\PSoC4/CapSense_SelfTest.c ****             static void CapSense_BistEnableShieldElectrodes(void);
 236:Generated_Source\PSoC4/CapSense_SelfTest.c ****         #endif /* (0u != CapSense_CSD_TOTAL_SHIELD_COUNT) */
 237:Generated_Source\PSoC4/CapSense_SelfTest.c ****         #if (CapSense_ENABLE == CapSense_CSD_SHIELD_TANK_EN)
 238:Generated_Source\PSoC4/CapSense_SelfTest.c ****             static void CapSense_BistEnableShieldTank(void);
 239:Generated_Source\PSoC4/CapSense_SelfTest.c ****         #endif /* (CapSense_ENABLE == CapSense_CSD_SHIELD_TANK_EN) */
 240:Generated_Source\PSoC4/CapSense_SelfTest.c ****     #endif /* (CapSense_ENABLE == CapSense_CSD_SHIELD_EN) */
 241:Generated_Source\PSoC4/CapSense_SelfTest.c **** #endif /*(CapSense_ENABLE == CapSense_TST_SNS_CAP_EN) */
 242:Generated_Source\PSoC4/CapSense_SelfTest.c **** 
 243:Generated_Source\PSoC4/CapSense_SelfTest.c **** /* External capacitor measurement test function prototypes */
 244:Generated_Source\PSoC4/CapSense_SelfTest.c **** #if (CapSense_ENABLE == CapSense_TST_EXTERNAL_CAP_EN)
 245:Generated_Source\PSoC4/CapSense_SelfTest.c ****     static uint32 CapSense_MeasureAllExtCapCapacitance(void);
 246:Generated_Source\PSoC4/CapSense_SelfTest.c ****     static uint32 CapSense_MeasureExtCapCapacitance(uint32 extCapId);
 247:Generated_Source\PSoC4/CapSense_SelfTest.c ****     static void CapSense_BistConnectExtCapacitor(uint32 extCapId);
 248:Generated_Source\PSoC4/CapSense_SelfTest.c ****     static void CapSense_BistDisconnectExtCapacitor(uint32 extCapId);
 249:Generated_Source\PSoC4/CapSense_SelfTest.c ****     static void CapSense_GetExtCapCapacitanceExt(uint32 modClkDivider, uint32 iDacVal);
 250:Generated_Source\PSoC4/CapSense_SelfTest.c **** #endif /*(CapSense_ENABLE == CapSense_TST_EXTERNAL_CAP_EN) */
 251:Generated_Source\PSoC4/CapSense_SelfTest.c **** 
 252:Generated_Source\PSoC4/CapSense_SelfTest.c **** /* Sensor and Shield capacitance measurement test function prototypes */
 253:Generated_Source\PSoC4/CapSense_SelfTest.c **** #if ((CapSense_ENABLE == CapSense_TST_SNS_CAP_EN) || \
 254:Generated_Source\PSoC4/CapSense_SelfTest.c ****      (CapSense_ENABLE == CapSense_TST_SH_CAP_EN))
 255:Generated_Source\PSoC4/CapSense_SelfTest.c ****     static void CapSense_BistDisableHwSnsCap(void);
 256:Generated_Source\PSoC4/CapSense_SelfTest.c ****     static uint32 CapSense_GetCapacitanceExt(void);
 257:Generated_Source\PSoC4/CapSense_SelfTest.c ****     static void CapSense_BistSetInactiveSensorConnection(uint32 wdgtId, uint32 ioSnsId);
 258:Generated_Source\PSoC4/CapSense_SelfTest.c ****     #if (CapSense_ENABLE == CapSense_CSD_EN)
 259:Generated_Source\PSoC4/CapSense_SelfTest.c ****         static void CapSense_BistSetAllInactiveSensorConnection(void);
ARM GAS  C:\Users\220036~1\AppData\Local\Temp\ccGySGhB.s 			page 6


 260:Generated_Source\PSoC4/CapSense_SelfTest.c ****     #endif /* (CapSense_ENABLE == CapSense_CSD_EN) */
 261:Generated_Source\PSoC4/CapSense_SelfTest.c ****     #if (CapSense_ENABLE == CapSense_CSD_SHIELD_EN)
 262:Generated_Source\PSoC4/CapSense_SelfTest.c ****         #if (0u != CapSense_CSD_TOTAL_SHIELD_COUNT)
 263:Generated_Source\PSoC4/CapSense_SelfTest.c ****             static void CapSense_BistDisableShieldElectrodes(void);
 264:Generated_Source\PSoC4/CapSense_SelfTest.c ****         #endif /* (0u != CapSense_CSD_TOTAL_SHIELD_COUNT) */
 265:Generated_Source\PSoC4/CapSense_SelfTest.c ****     #endif /* (CapSense_ENABLE == CapSense_CSD_SHIELD_EN) */
 266:Generated_Source\PSoC4/CapSense_SelfTest.c **** #endif /* ((CapSense_ENABLE == CapSense_TST_SNS_CAP_EN) || \
 267:Generated_Source\PSoC4/CapSense_SelfTest.c ****            (CapSense_ENABLE == CapSense_TST_SH_CAP_EN)) */
 268:Generated_Source\PSoC4/CapSense_SelfTest.c **** 
 269:Generated_Source\PSoC4/CapSense_SelfTest.c **** /* Measurement test group function prototypes */
 270:Generated_Source\PSoC4/CapSense_SelfTest.c **** #if (CapSense_ENABLE == CapSense_TST_MEASUREMENT_GROUP_EN)
 271:Generated_Source\PSoC4/CapSense_SelfTest.c ****     /* Capturing/Releasing HW resources by measurement test group */
 272:Generated_Source\PSoC4/CapSense_SelfTest.c ****     static void CapSense_BistEnableHwSnsCap(void);
 273:Generated_Source\PSoC4/CapSense_SelfTest.c ****     /* Scanning specific function */
 274:Generated_Source\PSoC4/CapSense_SelfTest.c ****     static void CapSense_BistCmodPrecharge(void);
 275:Generated_Source\PSoC4/CapSense_SelfTest.c ****     static void CapSense_BistStartSample(void);
 276:Generated_Source\PSoC4/CapSense_SelfTest.c ****     static void CapSense_BistConfigClock(uint32 snsClk);
 277:Generated_Source\PSoC4/CapSense_SelfTest.c ****     static void CapSense_BistSetScanDuration(void);
 278:Generated_Source\PSoC4/CapSense_SelfTest.c ****     static void CapSense_BistSetIdac(uint32 idacValue);
 279:Generated_Source\PSoC4/CapSense_SelfTest.c ****     static void CapSense_BistTriggerScan(void);
 280:Generated_Source\PSoC4/CapSense_SelfTest.c ****     static void CapSense_WaitEndOfScan(uint32 timeout);
 281:Generated_Source\PSoC4/CapSense_SelfTest.c ****     #if (CapSense_DISABLE == CapSense_CSDV2)
 282:Generated_Source\PSoC4/CapSense_SelfTest.c ****         static void CapSense_BistClockRestart(void);
 283:Generated_Source\PSoC4/CapSense_SelfTest.c ****     #endif /* (CapSense_DISABLE == CapSense_CSDV2) */
 284:Generated_Source\PSoC4/CapSense_SelfTest.c **** #endif /*(CapSense_ENABLE == CapSense_TST_MEASUREMENT_GROUP_EN) */
 285:Generated_Source\PSoC4/CapSense_SelfTest.c **** 
 286:Generated_Source\PSoC4/CapSense_SelfTest.c **** #if (CapSense_ENABLE == CapSense_TST_HW_GROUP_EN)
 287:Generated_Source\PSoC4/CapSense_SelfTest.c ****     /* HW Config Switching function */
 288:Generated_Source\PSoC4/CapSense_SelfTest.c ****     static void CapSense_BistSwitchHwConfig(CapSense_BIST_HW_CONFIG_ENUM config);
 289:Generated_Source\PSoC4/CapSense_SelfTest.c ****     static void CapSense_SwitchAllIOState(CapSense_BIST_IO_CONFIG_ENUM config);
 290:Generated_Source\PSoC4/CapSense_SelfTest.c ****     /* IOs configuration function */
 291:Generated_Source\PSoC4/CapSense_SelfTest.c ****     static void CapSense_SetAllIODrState(uint32 value);
 292:Generated_Source\PSoC4/CapSense_SelfTest.c ****     static void CapSense_SetAllIOPcState(uint32 value);
 293:Generated_Source\PSoC4/CapSense_SelfTest.c ****     static void CapSense_SetElectrodePc(CapSense_FLASH_IO_STRUCT const *ioPtr, uint32 value);
 294:Generated_Source\PSoC4/CapSense_SelfTest.c ****     static void CapSense_SetElectrodeDr(CapSense_FLASH_IO_STRUCT const *ioPtr, uint32 value);
 295:Generated_Source\PSoC4/CapSense_SelfTest.c ****     #if ((CapSense_ENABLE == CapSense_CSD_SHIELD_EN) && \
 296:Generated_Source\PSoC4/CapSense_SelfTest.c ****         (CapSense_SNS_CONNECTION_SHIELD == CapSense_CSD_INACTIVE_SNS_CONNECTION))
 297:Generated_Source\PSoC4/CapSense_SelfTest.c ****         static void CapSense_SetAllIOHsiomState(uint32 value);
 298:Generated_Source\PSoC4/CapSense_SelfTest.c ****     #endif
 299:Generated_Source\PSoC4/CapSense_SelfTest.c **** #endif
 300:Generated_Source\PSoC4/CapSense_SelfTest.c **** 
 301:Generated_Source\PSoC4/CapSense_SelfTest.c **** #if ((CapSense_ENABLE == CapSense_TST_SNS_CAP_EN) || \
 302:Generated_Source\PSoC4/CapSense_SelfTest.c ****      (CapSense_ENABLE == CapSense_TST_SH_CAP_EN) || \
 303:Generated_Source\PSoC4/CapSense_SelfTest.c ****     ((CapSense_ENABLE == CapSense_CSD_SHIELD_EN) && \
 304:Generated_Source\PSoC4/CapSense_SelfTest.c ****      (CapSense_SNS_CONNECTION_SHIELD == CapSense_CSD_INACTIVE_SNS_CONNECTION)))
 305:Generated_Source\PSoC4/CapSense_SelfTest.c ****     static void CapSense_SetElectrodeHsiom(CapSense_FLASH_IO_STRUCT const *ioPtr, uint32 value);
 306:Generated_Source\PSoC4/CapSense_SelfTest.c **** #endif /* ((CapSense_ENABLE == CapSense_TST_SNS_CAP_EN) || \
 307:Generated_Source\PSoC4/CapSense_SelfTest.c ****            (CapSense_ENABLE == CapSense_TST_SH_CAP_EN) || \
 308:Generated_Source\PSoC4/CapSense_SelfTest.c ****           ((CapSense_ENABLE == CapSense_CSD_SHIELD_EN) && \
 309:Generated_Source\PSoC4/CapSense_SelfTest.c ****            (CapSense_SNS_CONNECTION_SHIELD == CapSense_CSD_INACTIVE_SNS_CONNECTION))) */
 310:Generated_Source\PSoC4/CapSense_SelfTest.c **** #if ((CapSense_ENABLE == CapSense_TST_VDDA_EN) &&\
 311:Generated_Source\PSoC4/CapSense_SelfTest.c ****      (CapSense_ENABLE == CapSense_CSDV2))
 312:Generated_Source\PSoC4/CapSense_SelfTest.c ****     static void CapSense_BistEnableVddaMeasurement(void);
 313:Generated_Source\PSoC4/CapSense_SelfTest.c ****     static uint16 CapSense_BistVddaRunMeasurement(void);
 314:Generated_Source\PSoC4/CapSense_SelfTest.c **** #endif /* ((CapSense_ENABLE == CapSense_TST_VDDA_EN) &&\
 315:Generated_Source\PSoC4/CapSense_SelfTest.c ****            (CapSense_ENABLE == CapSense_CSDV2)) */
 316:Generated_Source\PSoC4/CapSense_SelfTest.c **** 
ARM GAS  C:\Users\220036~1\AppData\Local\Temp\ccGySGhB.s 			page 7


 317:Generated_Source\PSoC4/CapSense_SelfTest.c **** /** \}
 318:Generated_Source\PSoC4/CapSense_SelfTest.c **** * \endcond */
 319:Generated_Source\PSoC4/CapSense_SelfTest.c **** 
 320:Generated_Source\PSoC4/CapSense_SelfTest.c **** /*******************************************************************************
 321:Generated_Source\PSoC4/CapSense_SelfTest.c **** * Function Name: CapSense_RunSelfTest
 322:Generated_Source\PSoC4/CapSense_SelfTest.c **** ****************************************************************************//**
 323:Generated_Source\PSoC4/CapSense_SelfTest.c **** *
 324:Generated_Source\PSoC4/CapSense_SelfTest.c **** * \brief
 325:Generated_Source\PSoC4/CapSense_SelfTest.c **** *  Runs built-in self-tests specified by the test enable mask.
 326:Generated_Source\PSoC4/CapSense_SelfTest.c **** *
 327:Generated_Source\PSoC4/CapSense_SelfTest.c **** * \details
 328:Generated_Source\PSoC4/CapSense_SelfTest.c **** *  The function performs various self-tests on all the enabled widgets
 329:Generated_Source\PSoC4/CapSense_SelfTest.c **** *  and sensors in the Component. The required set of tests can be selected
 330:Generated_Source\PSoC4/CapSense_SelfTest.c **** *  using the bit-mask in testEnMask parameter.
 331:Generated_Source\PSoC4/CapSense_SelfTest.c **** *
 332:Generated_Source\PSoC4/CapSense_SelfTest.c **** *  Use CapSense_TST_RUN_SELF_TEST_MASK to execute all the self-tests or
 333:Generated_Source\PSoC4/CapSense_SelfTest.c **** *  any combination of the masks (defined in testEnMask parameter) to specify the
 334:Generated_Source\PSoC4/CapSense_SelfTest.c **** *  test list.
 335:Generated_Source\PSoC4/CapSense_SelfTest.c **** *
 336:Generated_Source\PSoC4/CapSense_SelfTest.c **** *  To execute a single-element test (i.e. for one widget or sensor), the following
 337:Generated_Source\PSoC4/CapSense_SelfTest.c **** *  functions available:
 338:Generated_Source\PSoC4/CapSense_SelfTest.c **** *  - CapSense_CheckGlobalCRC()
 339:Generated_Source\PSoC4/CapSense_SelfTest.c **** *  - CapSense_CheckWidgetCRC()
 340:Generated_Source\PSoC4/CapSense_SelfTest.c **** *  - CapSense_CheckBaselineDuplication()
 341:Generated_Source\PSoC4/CapSense_SelfTest.c **** *  - CapSense_CheckSensorShort()
 342:Generated_Source\PSoC4/CapSense_SelfTest.c **** *  - CapSense_CheckSns2SnsShort()
 343:Generated_Source\PSoC4/CapSense_SelfTest.c **** *  - CapSense_GetSensorCapacitance()
 344:Generated_Source\PSoC4/CapSense_SelfTest.c **** *  - CapSense_GetShieldCapacitance()
 345:Generated_Source\PSoC4/CapSense_SelfTest.c **** *  - CapSense_GetExtCapCapacitance()
 346:Generated_Source\PSoC4/CapSense_SelfTest.c **** *  - CapSense_GetVdda()
 347:Generated_Source\PSoC4/CapSense_SelfTest.c **** *
 348:Generated_Source\PSoC4/CapSense_SelfTest.c **** *  Refer to these functions for detail information on the corresponding test.
 349:Generated_Source\PSoC4/CapSense_SelfTest.c **** *
 350:Generated_Source\PSoC4/CapSense_SelfTest.c **** * \param testEnMask
 351:Generated_Source\PSoC4/CapSense_SelfTest.c **** *  Specifies the tests to be executed. Each bit corresponds to one test. It is
 352:Generated_Source\PSoC4/CapSense_SelfTest.c **** *  possible to launch the function with any combination of the available tests.
 353:Generated_Source\PSoC4/CapSense_SelfTest.c **** *  - CapSense_TST_GLOBAL_CRC       - Verifies the RAM structure CRC of global parameters
 354:Generated_Source\PSoC4/CapSense_SelfTest.c **** *  - CapSense_TST_WDGT_CRC         - Verifies the RAM widget structure CRC for all the widgets
 355:Generated_Source\PSoC4/CapSense_SelfTest.c **** *  - CapSense_TST_BSLN_DUPLICATION - Verifies the baseline consistency of all the sensors (inverse 
 356:Generated_Source\PSoC4/CapSense_SelfTest.c **** *  - CapSense_TST_SNS_SHORT        - Checks all the sensors for a short to GND or VDD
 357:Generated_Source\PSoC4/CapSense_SelfTest.c **** *  - CapSense_TST_SNS2SNS_SHORT    - Checks all the sensors for a short to other sensors
 358:Generated_Source\PSoC4/CapSense_SelfTest.c **** *  - CapSense_TST_SNS_CAP          - Measures all the sensors capacitance
 359:Generated_Source\PSoC4/CapSense_SelfTest.c **** *  - CapSense_TST_SH_CAP           - Measures the shield capacitance
 360:Generated_Source\PSoC4/CapSense_SelfTest.c **** *  - CapSense_TST_EXTERNAL_CAP     - Measures the capacitance of the available external capacitors
 361:Generated_Source\PSoC4/CapSense_SelfTest.c **** *  - CapSense_TST_VDDA             - Measures the Vdda voltage
 362:Generated_Source\PSoC4/CapSense_SelfTest.c **** *  - CapSense_TST_RUN_SELF_TEST_MASK - Executes all available tests.
 363:Generated_Source\PSoC4/CapSense_SelfTest.c **** *
 364:Generated_Source\PSoC4/CapSense_SelfTest.c **** * \return
 365:Generated_Source\PSoC4/CapSense_SelfTest.c **** *  Returns a bit-mask with a status of execution of the specified tests:
 366:Generated_Source\PSoC4/CapSense_SelfTest.c **** *  - CY_RET_SUCCESS - All the tests passed.
 367:Generated_Source\PSoC4/CapSense_SelfTest.c **** *  - CapSense_TST_NOT_EXECUTED - The previously triggered scanning is not
 368:Generated_Source\PSoC4/CapSense_SelfTest.c **** *    completed.
 369:Generated_Source\PSoC4/CapSense_SelfTest.c **** *  - CapSense_TST_BAD_PARAM - A non-defined test was requested in the
 370:Generated_Source\PSoC4/CapSense_SelfTest.c **** *    testEnMask parameter.
 371:Generated_Source\PSoC4/CapSense_SelfTest.c **** *  - The bit-mask of the failed tests.
 372:Generated_Source\PSoC4/CapSense_SelfTest.c **** *
 373:Generated_Source\PSoC4/CapSense_SelfTest.c **** *******************************************************************************/
ARM GAS  C:\Users\220036~1\AppData\Local\Temp\ccGySGhB.s 			page 8


 374:Generated_Source\PSoC4/CapSense_SelfTest.c **** uint32 CapSense_RunSelfTest(uint32 testEnMask)
 375:Generated_Source\PSoC4/CapSense_SelfTest.c **** {
 376:Generated_Source\PSoC4/CapSense_SelfTest.c ****     uint32 result = CYRET_SUCCESS;
 377:Generated_Source\PSoC4/CapSense_SelfTest.c **** 
 378:Generated_Source\PSoC4/CapSense_SelfTest.c ****     if(CapSense_NOT_BUSY != CapSense_IsBusy())
 379:Generated_Source\PSoC4/CapSense_SelfTest.c ****     {
 380:Generated_Source\PSoC4/CapSense_SelfTest.c ****         result = CapSense_TST_NOT_EXECUTED;
 381:Generated_Source\PSoC4/CapSense_SelfTest.c ****     }
 382:Generated_Source\PSoC4/CapSense_SelfTest.c ****     else
 383:Generated_Source\PSoC4/CapSense_SelfTest.c ****     {
 384:Generated_Source\PSoC4/CapSense_SelfTest.c ****         if (0u == (testEnMask & (~CapSense_TST_RUN_SELF_TEST_MASK)))
 385:Generated_Source\PSoC4/CapSense_SelfTest.c ****         {
 386:Generated_Source\PSoC4/CapSense_SelfTest.c ****             #if (CapSense_ENABLE == CapSense_TST_GLOBAL_CRC_EN)
 387:Generated_Source\PSoC4/CapSense_SelfTest.c ****                 if (0u != (CapSense_TST_GLOBAL_CRC & testEnMask))
 388:Generated_Source\PSoC4/CapSense_SelfTest.c ****                 {
 389:Generated_Source\PSoC4/CapSense_SelfTest.c ****                     result |= CapSense_CheckGlobalCRC();
 390:Generated_Source\PSoC4/CapSense_SelfTest.c ****                 }
 391:Generated_Source\PSoC4/CapSense_SelfTest.c ****             #endif /* (CapSense_ENABLE == CapSense_TST_GLOBAL_CRC_EN) */
 392:Generated_Source\PSoC4/CapSense_SelfTest.c **** 
 393:Generated_Source\PSoC4/CapSense_SelfTest.c ****             #if (CapSense_ENABLE == CapSense_TST_WDGT_CRC_EN)
 394:Generated_Source\PSoC4/CapSense_SelfTest.c ****                 if (0u != (CapSense_TST_WDGT_CRC & testEnMask))
 395:Generated_Source\PSoC4/CapSense_SelfTest.c ****                 {
 396:Generated_Source\PSoC4/CapSense_SelfTest.c ****                     result |= CapSense_CheckAllWidgetCRC();
 397:Generated_Source\PSoC4/CapSense_SelfTest.c ****                 }
 398:Generated_Source\PSoC4/CapSense_SelfTest.c ****             #endif /* (CapSense_ENABLE == CapSense_TST_WDGT_CRC_EN) */
 399:Generated_Source\PSoC4/CapSense_SelfTest.c **** 
 400:Generated_Source\PSoC4/CapSense_SelfTest.c ****             #if (CapSense_ENABLE == CapSense_TST_BSLN_DUPLICATION_EN)
 401:Generated_Source\PSoC4/CapSense_SelfTest.c ****                 if (0u != (CapSense_TST_BSLN_DUPLICATION & testEnMask))
 402:Generated_Source\PSoC4/CapSense_SelfTest.c ****                 {
 403:Generated_Source\PSoC4/CapSense_SelfTest.c ****                     result |= CapSense_CheckAllBaselineDuplication();
 404:Generated_Source\PSoC4/CapSense_SelfTest.c ****                 }
 405:Generated_Source\PSoC4/CapSense_SelfTest.c ****             #endif /* (CapSense_ENABLE == CapSense_TST_BSLN_DUPLICATION_EN) */
 406:Generated_Source\PSoC4/CapSense_SelfTest.c **** 
 407:Generated_Source\PSoC4/CapSense_SelfTest.c ****             /* All the next tests are hardware dependent, so requesting to switch the sense method 
 408:Generated_Source\PSoC4/CapSense_SelfTest.c ****             CapSense_SsSwitchSensingMode(CapSense_SENSE_METHOD_BIST_E);
 409:Generated_Source\PSoC4/CapSense_SelfTest.c **** 
 410:Generated_Source\PSoC4/CapSense_SelfTest.c ****             #if (CapSense_ENABLE == CapSense_TST_SNS_SHORT_EN)
 411:Generated_Source\PSoC4/CapSense_SelfTest.c ****                 if (0u != (CapSense_TST_SNS_SHORT & testEnMask))
 412:Generated_Source\PSoC4/CapSense_SelfTest.c ****                 {
 413:Generated_Source\PSoC4/CapSense_SelfTest.c ****                     result |= CapSense_CheckAllSensorShort();
 414:Generated_Source\PSoC4/CapSense_SelfTest.c ****                 }
 415:Generated_Source\PSoC4/CapSense_SelfTest.c ****             #endif /* (CapSense_ENABLE == CapSense_TST_SNS_SHORT_EN) */
 416:Generated_Source\PSoC4/CapSense_SelfTest.c **** 
 417:Generated_Source\PSoC4/CapSense_SelfTest.c ****             #if (CapSense_ENABLE == CapSense_TST_SNS2SNS_SHORT_EN)
 418:Generated_Source\PSoC4/CapSense_SelfTest.c ****                 if (0u != (CapSense_TST_SNS2SNS_SHORT & testEnMask))
 419:Generated_Source\PSoC4/CapSense_SelfTest.c ****                 {
 420:Generated_Source\PSoC4/CapSense_SelfTest.c ****                     result |= CapSense_CheckAllSns2SnsShort();
 421:Generated_Source\PSoC4/CapSense_SelfTest.c ****                 }
 422:Generated_Source\PSoC4/CapSense_SelfTest.c ****             #endif /* (CapSense_ENABLE == CapSense_TST_SNS2SNS_SHORT_EN) */
 423:Generated_Source\PSoC4/CapSense_SelfTest.c **** 
 424:Generated_Source\PSoC4/CapSense_SelfTest.c ****             #if (CapSense_ENABLE == CapSense_TST_SNS_CAP_EN)
 425:Generated_Source\PSoC4/CapSense_SelfTest.c ****                 if (0u != (CapSense_TST_SNS_CAP & testEnMask))
 426:Generated_Source\PSoC4/CapSense_SelfTest.c ****                 {
 427:Generated_Source\PSoC4/CapSense_SelfTest.c ****                     result |= CapSense_MeasureAllSensorCapacitance();
 428:Generated_Source\PSoC4/CapSense_SelfTest.c ****                 }
 429:Generated_Source\PSoC4/CapSense_SelfTest.c ****             #endif /* (CapSense_ENABLE == CapSense_TST_SNS_CAP_EN) */
 430:Generated_Source\PSoC4/CapSense_SelfTest.c **** 
ARM GAS  C:\Users\220036~1\AppData\Local\Temp\ccGySGhB.s 			page 9


 431:Generated_Source\PSoC4/CapSense_SelfTest.c ****             #if (CapSense_ENABLE == CapSense_TST_SH_CAP_EN)
 432:Generated_Source\PSoC4/CapSense_SelfTest.c ****                 if (0u != (CapSense_TST_SH_CAP & testEnMask))
 433:Generated_Source\PSoC4/CapSense_SelfTest.c ****                 {
 434:Generated_Source\PSoC4/CapSense_SelfTest.c ****                     (void)CapSense_GetShieldCapacitance();
 435:Generated_Source\PSoC4/CapSense_SelfTest.c ****                 }
 436:Generated_Source\PSoC4/CapSense_SelfTest.c ****             #endif /* (CapSense_ENABLE == CapSense_TST_SH_CAP_EN) */
 437:Generated_Source\PSoC4/CapSense_SelfTest.c **** 
 438:Generated_Source\PSoC4/CapSense_SelfTest.c ****             #if (CapSense_ENABLE == CapSense_TST_EXTERNAL_CAP_EN)
 439:Generated_Source\PSoC4/CapSense_SelfTest.c ****                 if (0u != (CapSense_TST_EXTERNAL_CAP & testEnMask))
 440:Generated_Source\PSoC4/CapSense_SelfTest.c ****                 {
 441:Generated_Source\PSoC4/CapSense_SelfTest.c ****                     result |= CapSense_MeasureAllExtCapCapacitance();
 442:Generated_Source\PSoC4/CapSense_SelfTest.c ****                 }
 443:Generated_Source\PSoC4/CapSense_SelfTest.c ****             #endif /* (CapSense_ENABLE == CapSense_TST_EXTERNAL_CAP_EN) */
 444:Generated_Source\PSoC4/CapSense_SelfTest.c **** 
 445:Generated_Source\PSoC4/CapSense_SelfTest.c ****             #if ((CapSense_ENABLE == CapSense_TST_VDDA_EN) &&\
 446:Generated_Source\PSoC4/CapSense_SelfTest.c ****                  (CapSense_ENABLE == CapSense_CSDV2))
 447:Generated_Source\PSoC4/CapSense_SelfTest.c ****                 if (0u != (CapSense_TST_VDDA & testEnMask))
 448:Generated_Source\PSoC4/CapSense_SelfTest.c ****                 {
 449:Generated_Source\PSoC4/CapSense_SelfTest.c ****                     result |= CapSense_GetVdda();
 450:Generated_Source\PSoC4/CapSense_SelfTest.c ****                 }
 451:Generated_Source\PSoC4/CapSense_SelfTest.c ****             #endif /* ((CapSense_ENABLE == CapSense_TST_VDDA_EN) &&\
 452:Generated_Source\PSoC4/CapSense_SelfTest.c ****                        (CapSense_ENABLE == CapSense_CSDV2)) */
 453:Generated_Source\PSoC4/CapSense_SelfTest.c ****         }
 454:Generated_Source\PSoC4/CapSense_SelfTest.c ****         else
 455:Generated_Source\PSoC4/CapSense_SelfTest.c ****         {
 456:Generated_Source\PSoC4/CapSense_SelfTest.c ****             result |= CapSense_TST_BAD_PARAM;
 457:Generated_Source\PSoC4/CapSense_SelfTest.c ****         }
 458:Generated_Source\PSoC4/CapSense_SelfTest.c ****     }
 459:Generated_Source\PSoC4/CapSense_SelfTest.c **** 
 460:Generated_Source\PSoC4/CapSense_SelfTest.c ****     return result;
 461:Generated_Source\PSoC4/CapSense_SelfTest.c **** }
 462:Generated_Source\PSoC4/CapSense_SelfTest.c **** 
 463:Generated_Source\PSoC4/CapSense_SelfTest.c **** #if (CapSense_ENABLE == CapSense_TST_GLOBAL_CRC_EN)
 464:Generated_Source\PSoC4/CapSense_SelfTest.c **** 
 465:Generated_Source\PSoC4/CapSense_SelfTest.c **** /*******************************************************************************
 466:Generated_Source\PSoC4/CapSense_SelfTest.c **** * Function Name: CapSense_CheckGlobalCRC
 467:Generated_Source\PSoC4/CapSense_SelfTest.c **** ****************************************************************************//**
 468:Generated_Source\PSoC4/CapSense_SelfTest.c **** *
 469:Generated_Source\PSoC4/CapSense_SelfTest.c **** * \brief
 470:Generated_Source\PSoC4/CapSense_SelfTest.c **** *  Checks the stored CRC of the CapSense_RAM_STRUCT data structure.
 471:Generated_Source\PSoC4/CapSense_SelfTest.c **** *
 472:Generated_Source\PSoC4/CapSense_SelfTest.c **** * \details
 473:Generated_Source\PSoC4/CapSense_SelfTest.c **** *  This function validates the data integrity of the
 474:Generated_Source\PSoC4/CapSense_SelfTest.c **** *  CapSense_RAM_STRUCT data structure by calculating the CRC and
 475:Generated_Source\PSoC4/CapSense_SelfTest.c **** *  comparing it with the stored CRC value (i.e. CapSense_GLB_CRC_VALUE).
 476:Generated_Source\PSoC4/CapSense_SelfTest.c **** *
 477:Generated_Source\PSoC4/CapSense_SelfTest.c **** *  If the stored and calculated CRC values differ, the calculated CRC
 478:Generated_Source\PSoC4/CapSense_SelfTest.c **** *  is stored to the CapSense_GLB_CRC_CALC_VALUE register and
 479:Generated_Source\PSoC4/CapSense_SelfTest.c **** *  the CapSense_TST_GLOBAL_CRC bit is set in the
 480:Generated_Source\PSoC4/CapSense_SelfTest.c **** *  CapSense_TEST_RESULT_MASK_VALUE register. The function never
 481:Generated_Source\PSoC4/CapSense_SelfTest.c **** *  clears the CapSense_TST_GLOBAL_CRC bit.
 482:Generated_Source\PSoC4/CapSense_SelfTest.c **** *
 483:Generated_Source\PSoC4/CapSense_SelfTest.c **** *  It is recommended to use the CapSense_SetParam() function to
 484:Generated_Source\PSoC4/CapSense_SelfTest.c **** *  change a value of CapSense_RAM_STRUCT data structure register/elements
 485:Generated_Source\PSoC4/CapSense_SelfTest.c **** *  as CRC is updated by the CapSense_SetParam() function.
 486:Generated_Source\PSoC4/CapSense_SelfTest.c **** *
 487:Generated_Source\PSoC4/CapSense_SelfTest.c **** *  This test also can be initiated by using CapSense_RunSelfTest()
ARM GAS  C:\Users\220036~1\AppData\Local\Temp\ccGySGhB.s 			page 10


 488:Generated_Source\PSoC4/CapSense_SelfTest.c **** *  function with the CapSense_TST_GLOBAL_CRC mask input.
 489:Generated_Source\PSoC4/CapSense_SelfTest.c **** *
 490:Generated_Source\PSoC4/CapSense_SelfTest.c **** * \return
 491:Generated_Source\PSoC4/CapSense_SelfTest.c **** *  Returns a status of the executed test:
 492:Generated_Source\PSoC4/CapSense_SelfTest.c **** *  - CY_RET_SUCCESS - The stored CRC matches the calculated CRC
 493:Generated_Source\PSoC4/CapSense_SelfTest.c **** *  - CapSense_TST_GLOBAL_CRC - The stored CRC is wrong.
 494:Generated_Source\PSoC4/CapSense_SelfTest.c **** *
 495:Generated_Source\PSoC4/CapSense_SelfTest.c **** *******************************************************************************/
 496:Generated_Source\PSoC4/CapSense_SelfTest.c **** uint32 CapSense_CheckGlobalCRC(void)
 497:Generated_Source\PSoC4/CapSense_SelfTest.c **** {
 498:Generated_Source\PSoC4/CapSense_SelfTest.c ****     uint32 result = CapSense_TST_GLOBAL_CRC;
 499:Generated_Source\PSoC4/CapSense_SelfTest.c ****     uint16 crcValue = CapSense_DsCalculateCrc16((uint8 *)&CapSense_dsRam +
 500:Generated_Source\PSoC4/CapSense_SelfTest.c ****                                     CapSense_GLOBAL_CRC_AREA_START,
 501:Generated_Source\PSoC4/CapSense_SelfTest.c ****                                     CapSense_GLOBAL_CRC_AREA_SIZE);
 502:Generated_Source\PSoC4/CapSense_SelfTest.c ****     if (CapSense_dsRam.glbCrc == crcValue)
 503:Generated_Source\PSoC4/CapSense_SelfTest.c ****     {
 504:Generated_Source\PSoC4/CapSense_SelfTest.c ****         result = CYRET_SUCCESS;
 505:Generated_Source\PSoC4/CapSense_SelfTest.c ****     }
 506:Generated_Source\PSoC4/CapSense_SelfTest.c ****     else
 507:Generated_Source\PSoC4/CapSense_SelfTest.c ****     {
 508:Generated_Source\PSoC4/CapSense_SelfTest.c ****         CapSense_dsRam.selfTest.glbCrcCalc = crcValue;
 509:Generated_Source\PSoC4/CapSense_SelfTest.c ****         CapSense_dsRam.selfTest.testResultMask |= CapSense_TST_GLOBAL_CRC;
 510:Generated_Source\PSoC4/CapSense_SelfTest.c ****     }
 511:Generated_Source\PSoC4/CapSense_SelfTest.c ****     return result;
 512:Generated_Source\PSoC4/CapSense_SelfTest.c **** }
 513:Generated_Source\PSoC4/CapSense_SelfTest.c **** 
 514:Generated_Source\PSoC4/CapSense_SelfTest.c **** /*******************************************************************************
 515:Generated_Source\PSoC4/CapSense_SelfTest.c **** * Function Name: CapSense_DsUpdateGlobalCrc
 516:Generated_Source\PSoC4/CapSense_SelfTest.c **** ****************************************************************************//**
 517:Generated_Source\PSoC4/CapSense_SelfTest.c **** *
 518:Generated_Source\PSoC4/CapSense_SelfTest.c **** * \brief
 519:Generated_Source\PSoC4/CapSense_SelfTest.c **** *   Recalculates the CRC for the global Component data (certain registers)
 520:Generated_Source\PSoC4/CapSense_SelfTest.c **** *   and writes it to the Data Structure.
 521:Generated_Source\PSoC4/CapSense_SelfTest.c **** *
 522:Generated_Source\PSoC4/CapSense_SelfTest.c **** * \details
 523:Generated_Source\PSoC4/CapSense_SelfTest.c **** *  Uses the function CapSense_DsCalculateCrc16.
 524:Generated_Source\PSoC4/CapSense_SelfTest.c **** *
 525:Generated_Source\PSoC4/CapSense_SelfTest.c **** *******************************************************************************/
 526:Generated_Source\PSoC4/CapSense_SelfTest.c **** void CapSense_DsUpdateGlobalCrc(void)
 527:Generated_Source\PSoC4/CapSense_SelfTest.c **** {
 528:Generated_Source\PSoC4/CapSense_SelfTest.c ****     CapSense_dsRam.glbCrc = CapSense_DsCalculateCrc16((uint8 *)&CapSense_dsRam +
 529:Generated_Source\PSoC4/CapSense_SelfTest.c ****                                                         CapSense_GLOBAL_CRC_AREA_START,
 530:Generated_Source\PSoC4/CapSense_SelfTest.c ****                                                         CapSense_GLOBAL_CRC_AREA_SIZE);
 531:Generated_Source\PSoC4/CapSense_SelfTest.c **** }
 532:Generated_Source\PSoC4/CapSense_SelfTest.c **** #endif /*(CapSense_ENABLE == CapSense_TST_GLOBAL_CRC_EN) */
 533:Generated_Source\PSoC4/CapSense_SelfTest.c **** 
 534:Generated_Source\PSoC4/CapSense_SelfTest.c **** #if (CapSense_ENABLE == CapSense_TST_WDGT_CRC_EN)
 535:Generated_Source\PSoC4/CapSense_SelfTest.c **** 
 536:Generated_Source\PSoC4/CapSense_SelfTest.c **** /*******************************************************************************
 537:Generated_Source\PSoC4/CapSense_SelfTest.c **** * Function Name: CapSense_CheckWidgetCRC
 538:Generated_Source\PSoC4/CapSense_SelfTest.c **** ****************************************************************************//**
 539:Generated_Source\PSoC4/CapSense_SelfTest.c **** *
 540:Generated_Source\PSoC4/CapSense_SelfTest.c **** * \brief
 541:Generated_Source\PSoC4/CapSense_SelfTest.c **** *  Checks the stored CRC of the CapSense_RAM_WD_BASE_STRUCT data
 542:Generated_Source\PSoC4/CapSense_SelfTest.c **** *  structure of the specified widget.
 543:Generated_Source\PSoC4/CapSense_SelfTest.c **** *
 544:Generated_Source\PSoC4/CapSense_SelfTest.c **** * \details
ARM GAS  C:\Users\220036~1\AppData\Local\Temp\ccGySGhB.s 			page 11


 545:Generated_Source\PSoC4/CapSense_SelfTest.c **** *  This function validates the data integrity of the
 546:Generated_Source\PSoC4/CapSense_SelfTest.c **** *  CapSense_RAM_WD_BASE_STRUCT data structure of the specified widget
 547:Generated_Source\PSoC4/CapSense_SelfTest.c **** *  by calculating the CRC and comparing it with the stored CRC value
 548:Generated_Source\PSoC4/CapSense_SelfTest.c **** *  (i.e. CapSense_<WidgetName>_CRC_VALUE).
 549:Generated_Source\PSoC4/CapSense_SelfTest.c **** *
 550:Generated_Source\PSoC4/CapSense_SelfTest.c **** *  If the stored and calculated CRC values differ:
 551:Generated_Source\PSoC4/CapSense_SelfTest.c **** *  1. The calculated CRC is stored to the CapSense_WDGT_CRC_CALC_VALUE register
 552:Generated_Source\PSoC4/CapSense_SelfTest.c **** *  2. The widget ID is stored to the CapSense_WDGT_CRC_ID_VALUE register
 553:Generated_Source\PSoC4/CapSense_SelfTest.c **** *  3. The CapSense_TST_WDGT_CRC bit is set in the
 554:Generated_Source\PSoC4/CapSense_SelfTest.c **** *     CapSense_TEST_RESULT_MASK_VALUE register.
 555:Generated_Source\PSoC4/CapSense_SelfTest.c **** *
 556:Generated_Source\PSoC4/CapSense_SelfTest.c **** *  The function never clears the CapSense_TST_WDGT_CRC bit.
 557:Generated_Source\PSoC4/CapSense_SelfTest.c **** *  If the CapSense_TST_WDGT_CRC bit is set, the CapSense_WDGT_CRC_CALC_VALUE
 558:Generated_Source\PSoC4/CapSense_SelfTest.c **** *  and CapSense_WDGT_CRC_ID_VALUE registers are not updated.
 559:Generated_Source\PSoC4/CapSense_SelfTest.c **** *
 560:Generated_Source\PSoC4/CapSense_SelfTest.c **** *  It is recommended to use the CapSense_SetParam() function to change
 561:Generated_Source\PSoC4/CapSense_SelfTest.c **** *  a value of CapSense_RAM_WD_BASE_STRUCT data structure register/elements
 562:Generated_Source\PSoC4/CapSense_SelfTest.c **** *  as the CRC is updated by CapSense_SetParam() function.
 563:Generated_Source\PSoC4/CapSense_SelfTest.c **** *
 564:Generated_Source\PSoC4/CapSense_SelfTest.c **** *  This test can be initiated by CapSense_RunSelfTest() function with
 565:Generated_Source\PSoC4/CapSense_SelfTest.c **** *  the CapSense_TST_WDGT_CRC mask as an input.
 566:Generated_Source\PSoC4/CapSense_SelfTest.c **** *
 567:Generated_Source\PSoC4/CapSense_SelfTest.c **** *  The function updates the wdgtWorking register
 568:Generated_Source\PSoC4/CapSense_SelfTest.c **** *  CapSense_WDGT_WORKING<Number>_VALUE by clearing the widget-corresponding bit.
 569:Generated_Source\PSoC4/CapSense_SelfTest.c **** *  Those non-working widgets are skipped by the high-level API.
 570:Generated_Source\PSoC4/CapSense_SelfTest.c **** *  Restoring a widget to its working state should be done by the application level.
 571:Generated_Source\PSoC4/CapSense_SelfTest.c **** *
 572:Generated_Source\PSoC4/CapSense_SelfTest.c **** * \param widgetId
 573:Generated_Source\PSoC4/CapSense_SelfTest.c **** *  Specifies the ID number of the widget to be processed.
 574:Generated_Source\PSoC4/CapSense_SelfTest.c **** *  A macro for the widget ID can be found in the CapSense Configuration
 575:Generated_Source\PSoC4/CapSense_SelfTest.c **** *  header file defined as CapSense_<WidgetName>_WDGT_ID.
 576:Generated_Source\PSoC4/CapSense_SelfTest.c **** *
 577:Generated_Source\PSoC4/CapSense_SelfTest.c **** * \return
 578:Generated_Source\PSoC4/CapSense_SelfTest.c **** *  Returns a status of the test execution:
 579:Generated_Source\PSoC4/CapSense_SelfTest.c **** *  - CY_RET_SUCCESS - The stored CRC matches the calculated CRC.
 580:Generated_Source\PSoC4/CapSense_SelfTest.c **** *  - CapSense_TST_WDGT_CRC - The widget CRC is wrong.
 581:Generated_Source\PSoC4/CapSense_SelfTest.c **** *  - CapSense_TST_BAD_PARAM - The input parameter is invalid.
 582:Generated_Source\PSoC4/CapSense_SelfTest.c **** *
 583:Generated_Source\PSoC4/CapSense_SelfTest.c **** *******************************************************************************/
 584:Generated_Source\PSoC4/CapSense_SelfTest.c **** uint32 CapSense_CheckWidgetCRC(uint32 widgetId)
 585:Generated_Source\PSoC4/CapSense_SelfTest.c **** {
 586:Generated_Source\PSoC4/CapSense_SelfTest.c ****     uint32 result = CapSense_TST_WDGT_CRC;
 587:Generated_Source\PSoC4/CapSense_SelfTest.c ****     uint16 crcValue = 0u;
 588:Generated_Source\PSoC4/CapSense_SelfTest.c ****     CapSense_RAM_WD_BASE_STRUCT *ptrWdgt;
 589:Generated_Source\PSoC4/CapSense_SelfTest.c **** 
 590:Generated_Source\PSoC4/CapSense_SelfTest.c ****     if (CapSense_TOTAL_WIDGETS > widgetId)
 591:Generated_Source\PSoC4/CapSense_SelfTest.c ****     {
 592:Generated_Source\PSoC4/CapSense_SelfTest.c ****         /* Get pointer to RAM object data */
 593:Generated_Source\PSoC4/CapSense_SelfTest.c ****         ptrWdgt = (CapSense_RAM_WD_BASE_STRUCT *)CapSense_dsFlash.wdgtArray[widgetId].ptr2WdgtRam;
 594:Generated_Source\PSoC4/CapSense_SelfTest.c ****         crcValue = CapSense_DsCalculateCrc16((uint8 *)ptrWdgt +
 595:Generated_Source\PSoC4/CapSense_SelfTest.c ****                                     CapSense_WIDGET_CRC_AREA_START,
 596:Generated_Source\PSoC4/CapSense_SelfTest.c ****                                     CapSense_WIDGET_CRC_AREA_SIZE);
 597:Generated_Source\PSoC4/CapSense_SelfTest.c ****         if ((ptrWdgt->crc) != crcValue)
 598:Generated_Source\PSoC4/CapSense_SelfTest.c ****         {
 599:Generated_Source\PSoC4/CapSense_SelfTest.c ****             /* Write to self-test data structure wdgtId of the first bad tested widget */
 600:Generated_Source\PSoC4/CapSense_SelfTest.c ****             if (0Lu == (CapSense_dsRam.selfTest.testResultMask &
 601:Generated_Source\PSoC4/CapSense_SelfTest.c ****                        CapSense_TST_WDGT_CRC))
ARM GAS  C:\Users\220036~1\AppData\Local\Temp\ccGySGhB.s 			page 12


 602:Generated_Source\PSoC4/CapSense_SelfTest.c ****             {
 603:Generated_Source\PSoC4/CapSense_SelfTest.c ****                 CapSense_dsRam.selfTest.wdgtCrcCalc = crcValue;
 604:Generated_Source\PSoC4/CapSense_SelfTest.c ****                 CapSense_dsRam.selfTest.wdgtCrcId = (uint8)widgetId;
 605:Generated_Source\PSoC4/CapSense_SelfTest.c ****                 CapSense_dsRam.selfTest.testResultMask |= CapSense_TST_WDGT_CRC;
 606:Generated_Source\PSoC4/CapSense_SelfTest.c ****             }
 607:Generated_Source\PSoC4/CapSense_SelfTest.c ****             else
 608:Generated_Source\PSoC4/CapSense_SelfTest.c ****             {
 609:Generated_Source\PSoC4/CapSense_SelfTest.c ****             }
 610:Generated_Source\PSoC4/CapSense_SelfTest.c ****             CapSense_dsRam.wdgtWorking[CapSense_GET_WDGT_STATUS_INDEX(widgetId)] &=
 611:Generated_Source\PSoC4/CapSense_SelfTest.c ****                                              ~(CapSense_GET_WDGT_STATUS_MASK(widgetId));
 612:Generated_Source\PSoC4/CapSense_SelfTest.c ****         }
 613:Generated_Source\PSoC4/CapSense_SelfTest.c ****         else
 614:Generated_Source\PSoC4/CapSense_SelfTest.c ****         {
 615:Generated_Source\PSoC4/CapSense_SelfTest.c ****             result = CYRET_SUCCESS;
 616:Generated_Source\PSoC4/CapSense_SelfTest.c ****         }
 617:Generated_Source\PSoC4/CapSense_SelfTest.c ****     }
 618:Generated_Source\PSoC4/CapSense_SelfTest.c ****     else
 619:Generated_Source\PSoC4/CapSense_SelfTest.c ****     {
 620:Generated_Source\PSoC4/CapSense_SelfTest.c ****         result = CapSense_TST_BAD_PARAM;
 621:Generated_Source\PSoC4/CapSense_SelfTest.c ****     }
 622:Generated_Source\PSoC4/CapSense_SelfTest.c ****     return result;
 623:Generated_Source\PSoC4/CapSense_SelfTest.c **** }
 624:Generated_Source\PSoC4/CapSense_SelfTest.c **** 
 625:Generated_Source\PSoC4/CapSense_SelfTest.c **** /*******************************************************************************
 626:Generated_Source\PSoC4/CapSense_SelfTest.c **** * Function Name: CapSense_CheckAllWidgetCRC
 627:Generated_Source\PSoC4/CapSense_SelfTest.c **** ****************************************************************************//**
 628:Generated_Source\PSoC4/CapSense_SelfTest.c **** *
 629:Generated_Source\PSoC4/CapSense_SelfTest.c **** * \brief
 630:Generated_Source\PSoC4/CapSense_SelfTest.c **** *  The internal fuction that checks CRC of all widget structures.
 631:Generated_Source\PSoC4/CapSense_SelfTest.c **** *
 632:Generated_Source\PSoC4/CapSense_SelfTest.c **** * \details
 633:Generated_Source\PSoC4/CapSense_SelfTest.c **** *  The function calculates CRC of all widget structures and compare it
 634:Generated_Source\PSoC4/CapSense_SelfTest.c **** *  to the stored CRCs.
 635:Generated_Source\PSoC4/CapSense_SelfTest.c **** *  In case of failed comparison the function updates
 636:Generated_Source\PSoC4/CapSense_SelfTest.c **** *  testResultMask and returns the status.
 637:Generated_Source\PSoC4/CapSense_SelfTest.c **** *  The function use CapSense_CheckWidgetCRC.
 638:Generated_Source\PSoC4/CapSense_SelfTest.c **** *
 639:Generated_Source\PSoC4/CapSense_SelfTest.c **** * \return
 640:Generated_Source\PSoC4/CapSense_SelfTest.c **** *  Returns the status of the test processing:
 641:Generated_Source\PSoC4/CapSense_SelfTest.c **** *  - CYRET_SUCCESS if all widget CRC are OK;
 642:Generated_Source\PSoC4/CapSense_SelfTest.c **** *  - CapSense_TST_WDGT_CRC if any widget CRC is wrong.
 643:Generated_Source\PSoC4/CapSense_SelfTest.c **** *  - CapSense_TST_NOT_EXECUTED if any widget is unavailable.
 644:Generated_Source\PSoC4/CapSense_SelfTest.c **** *
 645:Generated_Source\PSoC4/CapSense_SelfTest.c **** *******************************************************************************/
 646:Generated_Source\PSoC4/CapSense_SelfTest.c **** static uint32 CapSense_CheckAllWidgetCRC(void)
 647:Generated_Source\PSoC4/CapSense_SelfTest.c **** {
 648:Generated_Source\PSoC4/CapSense_SelfTest.c ****     uint32 result = CYRET_SUCCESS;
 649:Generated_Source\PSoC4/CapSense_SelfTest.c ****     uint32 wdgtIndex = 0u;
 650:Generated_Source\PSoC4/CapSense_SelfTest.c **** 
 651:Generated_Source\PSoC4/CapSense_SelfTest.c ****     for (wdgtIndex = 0u;
 652:Generated_Source\PSoC4/CapSense_SelfTest.c ****          wdgtIndex < CapSense_TOTAL_WIDGETS;
 653:Generated_Source\PSoC4/CapSense_SelfTest.c ****          wdgtIndex++)
 654:Generated_Source\PSoC4/CapSense_SelfTest.c ****     {
 655:Generated_Source\PSoC4/CapSense_SelfTest.c ****         if (0u != (CapSense_CheckWidgetCRC(wdgtIndex)))
 656:Generated_Source\PSoC4/CapSense_SelfTest.c ****         {
 657:Generated_Source\PSoC4/CapSense_SelfTest.c ****             result |= CapSense_TST_WDGT_CRC;
 658:Generated_Source\PSoC4/CapSense_SelfTest.c ****         }
ARM GAS  C:\Users\220036~1\AppData\Local\Temp\ccGySGhB.s 			page 13


 659:Generated_Source\PSoC4/CapSense_SelfTest.c ****     }
 660:Generated_Source\PSoC4/CapSense_SelfTest.c ****     return result;
 661:Generated_Source\PSoC4/CapSense_SelfTest.c **** }
 662:Generated_Source\PSoC4/CapSense_SelfTest.c **** 
 663:Generated_Source\PSoC4/CapSense_SelfTest.c **** /*******************************************************************************
 664:Generated_Source\PSoC4/CapSense_SelfTest.c **** * Function Name: CapSense_DsUpdateWidgetCrc
 665:Generated_Source\PSoC4/CapSense_SelfTest.c **** ****************************************************************************//**
 666:Generated_Source\PSoC4/CapSense_SelfTest.c **** *
 667:Generated_Source\PSoC4/CapSense_SelfTest.c **** * \brief
 668:Generated_Source\PSoC4/CapSense_SelfTest.c **** *   Recalculates the CRC for the specified widgetId and
 669:Generated_Source\PSoC4/CapSense_SelfTest.c **** *   writes it to the Data Structure.
 670:Generated_Source\PSoC4/CapSense_SelfTest.c **** *
 671:Generated_Source\PSoC4/CapSense_SelfTest.c **** * \details
 672:Generated_Source\PSoC4/CapSense_SelfTest.c **** *  The maximum size of the RAM Widget Object is 192 bits. So, the best suitable
 673:Generated_Source\PSoC4/CapSense_SelfTest.c **** *  CRC polynomial is 0xAC9A that has hamming distance 5 for the data up to 241 bits.
 674:Generated_Source\PSoC4/CapSense_SelfTest.c **** *
 675:Generated_Source\PSoC4/CapSense_SelfTest.c **** *  Reference:  "P. Koopman, T. Chakravarthy,
 676:Generated_Source\PSoC4/CapSense_SelfTest.c **** *  "Cyclic Redundancy Code (CRC) Polynomial Selection for Embedded Networks",
 677:Generated_Source\PSoC4/CapSense_SelfTest.c **** *  The International Conference on Dependable Systems and Networks, DSN-2004"
 678:Generated_Source\PSoC4/CapSense_SelfTest.c **** *
 679:Generated_Source\PSoC4/CapSense_SelfTest.c **** * \param widgetId  The widget index number.
 680:Generated_Source\PSoC4/CapSense_SelfTest.c **** *
 681:Generated_Source\PSoC4/CapSense_SelfTest.c **** *******************************************************************************/
 682:Generated_Source\PSoC4/CapSense_SelfTest.c **** void CapSense_DsUpdateWidgetCrc(uint32 widgetId)
 683:Generated_Source\PSoC4/CapSense_SelfTest.c **** {
 684:Generated_Source\PSoC4/CapSense_SelfTest.c ****     uint32 len;
 685:Generated_Source\PSoC4/CapSense_SelfTest.c ****     uint8 *ptrData;
 686:Generated_Source\PSoC4/CapSense_SelfTest.c ****     CapSense_RAM_WD_BASE_STRUCT *ptrWdgt;
 687:Generated_Source\PSoC4/CapSense_SelfTest.c **** 
 688:Generated_Source\PSoC4/CapSense_SelfTest.c ****     if (widgetId < CapSense_TOTAL_WIDGETS)
 689:Generated_Source\PSoC4/CapSense_SelfTest.c ****     {
 690:Generated_Source\PSoC4/CapSense_SelfTest.c ****         /* Get pointer to RAM object data */
 691:Generated_Source\PSoC4/CapSense_SelfTest.c ****         ptrWdgt = (CapSense_RAM_WD_BASE_STRUCT *)CapSense_dsFlash.wdgtArray[widgetId].ptr2WdgtRam;
 692:Generated_Source\PSoC4/CapSense_SelfTest.c ****         ptrData = (uint8 *)CapSense_dsFlash.wdgtArray[widgetId].ptr2WdgtRam;
 693:Generated_Source\PSoC4/CapSense_SelfTest.c ****         len = (uint32)CapSense_WIDGET_CRC_AREA_SIZE;
 694:Generated_Source\PSoC4/CapSense_SelfTest.c **** 
 695:Generated_Source\PSoC4/CapSense_SelfTest.c ****         /* Skip CRC in RAM object structure for CRC calculation */
 696:Generated_Source\PSoC4/CapSense_SelfTest.c ****         ptrData += CapSense_WIDGET_CRC_AREA_START;
 697:Generated_Source\PSoC4/CapSense_SelfTest.c **** 
 698:Generated_Source\PSoC4/CapSense_SelfTest.c ****         ptrWdgt->crc = CapSense_DsCalculateCrc16(ptrData, len);
 699:Generated_Source\PSoC4/CapSense_SelfTest.c ****     }
 700:Generated_Source\PSoC4/CapSense_SelfTest.c **** }
 701:Generated_Source\PSoC4/CapSense_SelfTest.c **** #endif /* (CapSense_ENABLE == CapSense_TST_WDGT_CRC_EN) */
 702:Generated_Source\PSoC4/CapSense_SelfTest.c **** 
 703:Generated_Source\PSoC4/CapSense_SelfTest.c **** #if (CapSense_ENABLE == CapSense_TST_CRC_GROUP_EN)
 704:Generated_Source\PSoC4/CapSense_SelfTest.c **** 
 705:Generated_Source\PSoC4/CapSense_SelfTest.c **** /*******************************************************************************
 706:Generated_Source\PSoC4/CapSense_SelfTest.c **** * Function Name: DsCalculateCrc16
 707:Generated_Source\PSoC4/CapSense_SelfTest.c **** ****************************************************************************//**
 708:Generated_Source\PSoC4/CapSense_SelfTest.c **** *
 709:Generated_Source\PSoC4/CapSense_SelfTest.c **** * \brief
 710:Generated_Source\PSoC4/CapSense_SelfTest.c **** *   Calculates CRC for the specified buffer and length. CRC Poly: 0xAC9A
 711:Generated_Source\PSoC4/CapSense_SelfTest.c **** *
 712:Generated_Source\PSoC4/CapSense_SelfTest.c **** * \details
 713:Generated_Source\PSoC4/CapSense_SelfTest.c **** *  This API is used for the CRC protection of the RAM Widget Object.
 714:Generated_Source\PSoC4/CapSense_SelfTest.c **** *  The maximum size of the RAM Widget Object is 192 bits. So, the best suitable
 715:Generated_Source\PSoC4/CapSense_SelfTest.c **** *  CRC polynomial is 0xAC9A. It has a Hamming distance 5 for data words up to 241 bits.
ARM GAS  C:\Users\220036~1\AppData\Local\Temp\ccGySGhB.s 			page 14


 716:Generated_Source\PSoC4/CapSense_SelfTest.c **** *
 717:Generated_Source\PSoC4/CapSense_SelfTest.c **** *  Reference:  "P. Koopman, T. Chakravarthy,
 718:Generated_Source\PSoC4/CapSense_SelfTest.c **** *  "Cyclic Redundancy Code (CRC) Polynomial Selection for Embedded Networks",
 719:Generated_Source\PSoC4/CapSense_SelfTest.c **** *  The International Conference on Dependable Systems and Networks, DSN-2004"
 720:Generated_Source\PSoC4/CapSense_SelfTest.c **** *
 721:Generated_Source\PSoC4/CapSense_SelfTest.c **** * \param ptrData The pointer to the data.
 722:Generated_Source\PSoC4/CapSense_SelfTest.c **** * \param len     The length of the data in bytes.
 723:Generated_Source\PSoC4/CapSense_SelfTest.c **** *
 724:Generated_Source\PSoC4/CapSense_SelfTest.c **** * \return A calculated CRC-16 value.
 725:Generated_Source\PSoC4/CapSense_SelfTest.c **** *
 726:Generated_Source\PSoC4/CapSense_SelfTest.c **** *******************************************************************************/
 727:Generated_Source\PSoC4/CapSense_SelfTest.c **** static uint16 CapSense_DsCalculateCrc16(uint8 *ptrData, uint32 len)
 728:Generated_Source\PSoC4/CapSense_SelfTest.c **** {
  27              		.loc 1 728 0
  28              		.cfi_startproc
  29              		@ args = 0, pretend = 0, frame = 32
  30              		@ frame_needed = 0, uses_anonymous_args = 0
  31              	.LVL0:
  32 0000 70B5     		push	{r4, r5, r6, lr}
  33              		.cfi_def_cfa_offset 16
  34              		.cfi_offset 4, -16
  35              		.cfi_offset 5, -12
  36              		.cfi_offset 6, -8
  37              		.cfi_offset 14, -4
  38 0002 88B0     		sub	sp, sp, #32
  39              		.cfi_def_cfa_offset 48
  40 0004 0400     		movs	r4, r0
  41 0006 0D00     		movs	r5, r1
  42              	.LVL1:
 729:Generated_Source\PSoC4/CapSense_SelfTest.c ****     uint32 idx;
 730:Generated_Source\PSoC4/CapSense_SelfTest.c ****     uint32 actualCrc = 0Lu;
 731:Generated_Source\PSoC4/CapSense_SelfTest.c ****     const uint16 crcTable[] =
  43              		.loc 1 731 0
  44 0008 2022     		movs	r2, #32
  45 000a 1049     		ldr	r1, .L4
  46              	.LVL2:
  47 000c 6846     		mov	r0, sp
  48              	.LVL3:
  49 000e FFF7FEFF 		bl	memcpy
  50              	.LVL4:
 730:Generated_Source\PSoC4/CapSense_SelfTest.c ****     const uint16 crcTable[] =
  51              		.loc 1 730 0
  52 0012 0020     		movs	r0, #0
 732:Generated_Source\PSoC4/CapSense_SelfTest.c ****     {
 733:Generated_Source\PSoC4/CapSense_SelfTest.c ****         0x0000u, 0xAC9Au, 0xF5AEu, 0x5934u, 0x47C6u, 0xEB5Cu, 0xB268u, 0x1EF2u,
 734:Generated_Source\PSoC4/CapSense_SelfTest.c ****         0x8F8Cu, 0x2316u, 0x7A22u, 0xD6B8u, 0xC84Au, 0x64D0u, 0x3DE4u, 0x917Eu
 735:Generated_Source\PSoC4/CapSense_SelfTest.c ****     };
 736:Generated_Source\PSoC4/CapSense_SelfTest.c **** 
 737:Generated_Source\PSoC4/CapSense_SelfTest.c ****     for (;len-- > 0u;)
  53              		.loc 1 737 0
  54 0014 13E0     		b	.L2
  55              	.LVL5:
  56              	.L3:
 738:Generated_Source\PSoC4/CapSense_SelfTest.c ****     {
 739:Generated_Source\PSoC4/CapSense_SelfTest.c ****         /* Process HI Nibble */
 740:Generated_Source\PSoC4/CapSense_SelfTest.c ****         idx = ((actualCrc >> 12u) ^ (((uint32)*ptrData) >> 4u)) & 0xFLu;
  57              		.loc 1 740 0
ARM GAS  C:\Users\220036~1\AppData\Local\Temp\ccGySGhB.s 			page 15


  58 0016 050B     		lsrs	r5, r0, #12
  59 0018 2278     		ldrb	r2, [r4]
  60 001a 1309     		lsrs	r3, r2, #4
  61 001c 6B40     		eors	r3, r5
  62 001e 0F25     		movs	r5, #15
  63 0020 2B40     		ands	r3, r5
  64              	.LVL6:
 741:Generated_Source\PSoC4/CapSense_SelfTest.c ****         actualCrc = crcTable[idx] ^ (actualCrc << 4u);
  65              		.loc 1 741 0
  66 0022 5B00     		lsls	r3, r3, #1
  67              	.LVL7:
  68 0024 6E46     		mov	r6, sp
  69 0026 9B5B     		ldrh	r3, [r3, r6]
  70 0028 0001     		lsls	r0, r0, #4
  71              	.LVL8:
  72 002a 4340     		eors	r3, r0
  73              	.LVL9:
 742:Generated_Source\PSoC4/CapSense_SelfTest.c **** 
 743:Generated_Source\PSoC4/CapSense_SelfTest.c ****         /* Process LO Nibble */
 744:Generated_Source\PSoC4/CapSense_SelfTest.c ****         idx = ((actualCrc >> 12u) ^ (uint32)*ptrData) & 0xFLu;
  74              		.loc 1 744 0
  75 002c 180B     		lsrs	r0, r3, #12
  76 002e 4240     		eors	r2, r0
  77 0030 2A40     		ands	r2, r5
  78              	.LVL10:
 745:Generated_Source\PSoC4/CapSense_SelfTest.c ****         actualCrc = crcTable[idx] ^ (actualCrc << 4u);
  79              		.loc 1 745 0
  80 0032 5200     		lsls	r2, r2, #1
  81              	.LVL11:
  82 0034 905B     		ldrh	r0, [r2, r6]
  83              	.LVL12:
  84 0036 1B01     		lsls	r3, r3, #4
  85              	.LVL13:
  86 0038 5840     		eors	r0, r3
  87              	.LVL14:
 746:Generated_Source\PSoC4/CapSense_SelfTest.c **** 
 747:Generated_Source\PSoC4/CapSense_SelfTest.c ****         ptrData++;
  88              		.loc 1 747 0
  89 003a 0134     		adds	r4, r4, #1
  90              	.LVL15:
 737:Generated_Source\PSoC4/CapSense_SelfTest.c ****     {
  91              		.loc 1 737 0
  92 003c 0D00     		movs	r5, r1
  93              	.LVL16:
  94              	.L2:
  95 003e 691E     		subs	r1, r5, #1
  96              	.LVL17:
  97 0040 002D     		cmp	r5, #0
  98 0042 E8D1     		bne	.L3
 748:Generated_Source\PSoC4/CapSense_SelfTest.c ****     }
 749:Generated_Source\PSoC4/CapSense_SelfTest.c **** 
 750:Generated_Source\PSoC4/CapSense_SelfTest.c ****     return (uint16)actualCrc;
  99              		.loc 1 750 0
 100 0044 80B2     		uxth	r0, r0
 101              	.LVL18:
 751:Generated_Source\PSoC4/CapSense_SelfTest.c **** }
 102              		.loc 1 751 0
ARM GAS  C:\Users\220036~1\AppData\Local\Temp\ccGySGhB.s 			page 16


 103 0046 08B0     		add	sp, sp, #32
 104              		@ sp needed
 105              	.LVL19:
 106 0048 70BD     		pop	{r4, r5, r6, pc}
 107              	.L5:
 108 004a C046     		.align	2
 109              	.L4:
 110 004c 20000000 		.word	.LANCHOR0
 111              		.cfi_endproc
 112              	.LFE7:
 113              		.size	CapSense_DsCalculateCrc16, .-CapSense_DsCalculateCrc16
 114              		.section	.text.CapSense_UpdateTestResultSnsShort,"ax",%progbits
 115              		.align	2
 116              		.code	16
 117              		.thumb_func
 118              		.type	CapSense_UpdateTestResultSnsShort, %function
 119              	CapSense_UpdateTestResultSnsShort:
 120              	.LFB14:
 752:Generated_Source\PSoC4/CapSense_SelfTest.c **** #endif /* (CapSense_ENABLE == CapSense_TST_CRC_GROUP_EN) */
 753:Generated_Source\PSoC4/CapSense_SelfTest.c **** 
 754:Generated_Source\PSoC4/CapSense_SelfTest.c **** #if (CapSense_ENABLE == CapSense_TST_BSLN_DUPLICATION_EN)
 755:Generated_Source\PSoC4/CapSense_SelfTest.c **** /*******************************************************************************
 756:Generated_Source\PSoC4/CapSense_SelfTest.c **** * Function Name: CapSense_CheckBaselineDuplication
 757:Generated_Source\PSoC4/CapSense_SelfTest.c **** ****************************************************************************//**
 758:Generated_Source\PSoC4/CapSense_SelfTest.c **** *
 759:Generated_Source\PSoC4/CapSense_SelfTest.c **** * \brief
 760:Generated_Source\PSoC4/CapSense_SelfTest.c **** *  Checks that the baseline of the specified widget/sensor is not corrupted by
 761:Generated_Source\PSoC4/CapSense_SelfTest.c **** *  comparing it with a baseline inverse copy.
 762:Generated_Source\PSoC4/CapSense_SelfTest.c **** *
 763:Generated_Source\PSoC4/CapSense_SelfTest.c **** * \details
 764:Generated_Source\PSoC4/CapSense_SelfTest.c **** *  This function validates the integrity of baseline of sensor by comparing
 765:Generated_Source\PSoC4/CapSense_SelfTest.c **** *  the conformity of the baseline and its inversion.
 766:Generated_Source\PSoC4/CapSense_SelfTest.c **** *
 767:Generated_Source\PSoC4/CapSense_SelfTest.c **** *  If the baseline does not match its inverse copy:
 768:Generated_Source\PSoC4/CapSense_SelfTest.c **** *  1. The widget ID is stored to the CapSense_INV_BSLN_WDGT_ID_VALUE register
 769:Generated_Source\PSoC4/CapSense_SelfTest.c **** *  2. The sensor ID is stored to the CapSense_INV_BSLN_SNS_ID_VALUE register
 770:Generated_Source\PSoC4/CapSense_SelfTest.c **** *  3. The CapSense_TST_BSLN_DUPLICATION bit is set in the
 771:Generated_Source\PSoC4/CapSense_SelfTest.c **** *     CapSense_TEST_RESULT_MASK_VALUE register.
 772:Generated_Source\PSoC4/CapSense_SelfTest.c **** *
 773:Generated_Source\PSoC4/CapSense_SelfTest.c **** *  The function never clears the CapSense_TST_BSLN_DUPLICATION bit.
 774:Generated_Source\PSoC4/CapSense_SelfTest.c **** *  If the CapSense_TST_BSLN_DUPLICATION bit is set, the CapSense_INV_BSLN_WDGT_ID_VALUE
 775:Generated_Source\PSoC4/CapSense_SelfTest.c **** *  and CapSense_INV_BSLN_SNS_ID_VALUE registers are not updated.
 776:Generated_Source\PSoC4/CapSense_SelfTest.c **** *
 777:Generated_Source\PSoC4/CapSense_SelfTest.c **** *  It is possible to execute a test for all the widgets using CapSense_RunSelfTest() function
 778:Generated_Source\PSoC4/CapSense_SelfTest.c **** *  with the CapSense_TST_BSLN_DUPLICATION mask.
 779:Generated_Source\PSoC4/CapSense_SelfTest.c **** *  In this case, the CapSense_INV_BSLN_WDGT_ID_VALUE and
 780:Generated_Source\PSoC4/CapSense_SelfTest.c **** *  CapSense_INV_BSLN_SNS_ID_VALUE registers contain the widget and
 781:Generated_Source\PSoC4/CapSense_SelfTest.c **** *  sensor ID of the first detected fail.
 782:Generated_Source\PSoC4/CapSense_SelfTest.c **** *
 783:Generated_Source\PSoC4/CapSense_SelfTest.c **** *  The function updates the wdgtWorking register CapSense_WDGT_WORKING<Number>_VALUE
 784:Generated_Source\PSoC4/CapSense_SelfTest.c **** *  by clearing the widget-corresponding bit. Those non-working widgets are skipped by
 785:Generated_Source\PSoC4/CapSense_SelfTest.c **** *  the high-level API. Restoring a widget to its working state should be done by the application le
 786:Generated_Source\PSoC4/CapSense_SelfTest.c **** *
 787:Generated_Source\PSoC4/CapSense_SelfTest.c **** *  The test is integrated into the CapSense Component. All CapSense
 788:Generated_Source\PSoC4/CapSense_SelfTest.c **** *  processing functions like CapSense_ProcessAllWidgets()
 789:Generated_Source\PSoC4/CapSense_SelfTest.c **** *  or CapSense_UpdateSensorBaseline() automatically verify the baseline
 790:Generated_Source\PSoC4/CapSense_SelfTest.c **** *  value before using it and update its inverse copy after processing.
ARM GAS  C:\Users\220036~1\AppData\Local\Temp\ccGySGhB.s 			page 17


 791:Generated_Source\PSoC4/CapSense_SelfTest.c **** *  If fail is detected during a baseline update a CYRET_BAD_DATA result
 792:Generated_Source\PSoC4/CapSense_SelfTest.c **** *  is returned. The baseline initialization functions do not verify the
 793:Generated_Source\PSoC4/CapSense_SelfTest.c **** *  baseline and update the baseline inverse copy.
 794:Generated_Source\PSoC4/CapSense_SelfTest.c **** *
 795:Generated_Source\PSoC4/CapSense_SelfTest.c **** * \param widgetId
 796:Generated_Source\PSoC4/CapSense_SelfTest.c **** *  Specifies the ID number of the widget to be processed.
 797:Generated_Source\PSoC4/CapSense_SelfTest.c **** *  A macro for the widget ID can be found in the
 798:Generated_Source\PSoC4/CapSense_SelfTest.c **** *  CapSense Configuration header file defined as
 799:Generated_Source\PSoC4/CapSense_SelfTest.c **** *  CapSense_<WidgetName>_WDGT_ID.
 800:Generated_Source\PSoC4/CapSense_SelfTest.c **** *
 801:Generated_Source\PSoC4/CapSense_SelfTest.c **** * \param sensorId
 802:Generated_Source\PSoC4/CapSense_SelfTest.c **** *  Specifies the ID number of the sensor within the widget.
 803:Generated_Source\PSoC4/CapSense_SelfTest.c **** *  A macro for the sensor ID within the specified widget can be found in
 804:Generated_Source\PSoC4/CapSense_SelfTest.c **** *  the CapSense Configuration header file defined as
 805:Generated_Source\PSoC4/CapSense_SelfTest.c **** *  CapSense_<WidgetName>_SNS<SensorNumber>_ID.
 806:Generated_Source\PSoC4/CapSense_SelfTest.c **** *
 807:Generated_Source\PSoC4/CapSense_SelfTest.c **** * \return
 808:Generated_Source\PSoC4/CapSense_SelfTest.c **** *  Returns the status of the test execution:
 809:Generated_Source\PSoC4/CapSense_SelfTest.c **** *  - CY_RET_SUCCESS - The baseline matches its inverse copy.
 810:Generated_Source\PSoC4/CapSense_SelfTest.c **** *  - CapSense_TST_BSLN_DUPLICATION - The test failed.
 811:Generated_Source\PSoC4/CapSense_SelfTest.c **** *  - CapSense_TST_BAD_PARAM - The input parameters are invalid.
 812:Generated_Source\PSoC4/CapSense_SelfTest.c **** *
 813:Generated_Source\PSoC4/CapSense_SelfTest.c **** *******************************************************************************/
 814:Generated_Source\PSoC4/CapSense_SelfTest.c **** uint32 CapSense_CheckBaselineDuplication(uint32 widgetId, uint32 sensorId)
 815:Generated_Source\PSoC4/CapSense_SelfTest.c **** {
 816:Generated_Source\PSoC4/CapSense_SelfTest.c ****     uint32 result = CYRET_SUCCESS;
 817:Generated_Source\PSoC4/CapSense_SelfTest.c ****     uint32 freqChannel;
 818:Generated_Source\PSoC4/CapSense_SelfTest.c ****     CapSense_RAM_SNS_STRUCT *ptrSensor = NULL;
 819:Generated_Source\PSoC4/CapSense_SelfTest.c ****     CapSense_FLASH_WD_STRUCT const *ptrWidget = NULL;
 820:Generated_Source\PSoC4/CapSense_SelfTest.c **** 
 821:Generated_Source\PSoC4/CapSense_SelfTest.c ****     if ((CapSense_TOTAL_WIDGETS > widgetId) && ((CapSense_GET_SENSOR_COUNT(widgetId)) > sensorId))
 822:Generated_Source\PSoC4/CapSense_SelfTest.c ****     {
 823:Generated_Source\PSoC4/CapSense_SelfTest.c ****         ptrWidget = &CapSense_dsFlash.wdgtArray[widgetId];
 824:Generated_Source\PSoC4/CapSense_SelfTest.c ****         /* Find pointer to specified sensor object */
 825:Generated_Source\PSoC4/CapSense_SelfTest.c ****         ptrSensor = ptrWidget->ptr2SnsRam;
 826:Generated_Source\PSoC4/CapSense_SelfTest.c ****         ptrSensor = &ptrSensor[sensorId];
 827:Generated_Source\PSoC4/CapSense_SelfTest.c ****         /* Check baseline inversion of every channel in sensor */
 828:Generated_Source\PSoC4/CapSense_SelfTest.c ****         for(freqChannel = 0u; freqChannel < CapSense_NUM_SCAN_FREQS; freqChannel++)
 829:Generated_Source\PSoC4/CapSense_SelfTest.c ****         {
 830:Generated_Source\PSoC4/CapSense_SelfTest.c ****             if (ptrSensor->bsln[freqChannel] != ((uint16) ~(ptrSensor->bslnInv[freqChannel])))
 831:Generated_Source\PSoC4/CapSense_SelfTest.c ****             {
 832:Generated_Source\PSoC4/CapSense_SelfTest.c ****                 CapSense_UpdateTestResultBaselineDuplication(widgetId, sensorId);
 833:Generated_Source\PSoC4/CapSense_SelfTest.c ****                 result |= CapSense_TST_BSLN_DUPLICATION;
 834:Generated_Source\PSoC4/CapSense_SelfTest.c ****             }
 835:Generated_Source\PSoC4/CapSense_SelfTest.c ****         }
 836:Generated_Source\PSoC4/CapSense_SelfTest.c ****     }
 837:Generated_Source\PSoC4/CapSense_SelfTest.c ****     else
 838:Generated_Source\PSoC4/CapSense_SelfTest.c ****     {
 839:Generated_Source\PSoC4/CapSense_SelfTest.c ****         result |= CapSense_TST_BAD_PARAM;
 840:Generated_Source\PSoC4/CapSense_SelfTest.c ****     }
 841:Generated_Source\PSoC4/CapSense_SelfTest.c ****     return result;
 842:Generated_Source\PSoC4/CapSense_SelfTest.c **** }
 843:Generated_Source\PSoC4/CapSense_SelfTest.c **** 
 844:Generated_Source\PSoC4/CapSense_SelfTest.c **** /*******************************************************************************
 845:Generated_Source\PSoC4/CapSense_SelfTest.c **** * Function Name: CapSense_CheckAllBaselineDuplication
 846:Generated_Source\PSoC4/CapSense_SelfTest.c **** ****************************************************************************//**
 847:Generated_Source\PSoC4/CapSense_SelfTest.c **** *
ARM GAS  C:\Users\220036~1\AppData\Local\Temp\ccGySGhB.s 			page 18


 848:Generated_Source\PSoC4/CapSense_SelfTest.c **** * \brief
 849:Generated_Source\PSoC4/CapSense_SelfTest.c **** *  The internal fuction that checks baseline duplication of all the sensors.
 850:Generated_Source\PSoC4/CapSense_SelfTest.c **** *
 851:Generated_Source\PSoC4/CapSense_SelfTest.c **** * \details
 852:Generated_Source\PSoC4/CapSense_SelfTest.c **** *  The function checks baseline duplication of all the sensors by using
 853:Generated_Source\PSoC4/CapSense_SelfTest.c **** *  CapSense_CheckBaselineDuplication() function.
 854:Generated_Source\PSoC4/CapSense_SelfTest.c **** *
 855:Generated_Source\PSoC4/CapSense_SelfTest.c **** * \return
 856:Generated_Source\PSoC4/CapSense_SelfTest.c **** *  Returns the status of the test processing:
 857:Generated_Source\PSoC4/CapSense_SelfTest.c **** *    - CYRET_SUCCESS if the test is successfully completed;
 858:Generated_Source\PSoC4/CapSense_SelfTest.c **** *    - CapSense_TST_BSLN_DUPLICATION if any sensor baseline duplication
 859:Generated_Source\PSoC4/CapSense_SelfTest.c ****        is wrong;
 860:Generated_Source\PSoC4/CapSense_SelfTest.c **** *******************************************************************************/
 861:Generated_Source\PSoC4/CapSense_SelfTest.c **** static uint32 CapSense_CheckAllBaselineDuplication(void)
 862:Generated_Source\PSoC4/CapSense_SelfTest.c **** {
 863:Generated_Source\PSoC4/CapSense_SelfTest.c ****     uint32 result = CYRET_SUCCESS;
 864:Generated_Source\PSoC4/CapSense_SelfTest.c ****     uint32 wdgtIndex;
 865:Generated_Source\PSoC4/CapSense_SelfTest.c ****     uint32 snsIndex;
 866:Generated_Source\PSoC4/CapSense_SelfTest.c **** 
 867:Generated_Source\PSoC4/CapSense_SelfTest.c ****     for (wdgtIndex = 0u; wdgtIndex < CapSense_TOTAL_WIDGETS; wdgtIndex++)
 868:Generated_Source\PSoC4/CapSense_SelfTest.c ****     {
 869:Generated_Source\PSoC4/CapSense_SelfTest.c ****         for (snsIndex = 0u; snsIndex < (CapSense_GET_SENSOR_COUNT(wdgtIndex)); snsIndex++)
 870:Generated_Source\PSoC4/CapSense_SelfTest.c ****         {
 871:Generated_Source\PSoC4/CapSense_SelfTest.c ****             if (CYRET_SUCCESS != CapSense_CheckBaselineDuplication(wdgtIndex, snsIndex))
 872:Generated_Source\PSoC4/CapSense_SelfTest.c ****             {
 873:Generated_Source\PSoC4/CapSense_SelfTest.c ****                 result |= CapSense_TST_BSLN_DUPLICATION;
 874:Generated_Source\PSoC4/CapSense_SelfTest.c ****                 break;
 875:Generated_Source\PSoC4/CapSense_SelfTest.c ****             }
 876:Generated_Source\PSoC4/CapSense_SelfTest.c ****         }
 877:Generated_Source\PSoC4/CapSense_SelfTest.c ****     }
 878:Generated_Source\PSoC4/CapSense_SelfTest.c ****     return result;
 879:Generated_Source\PSoC4/CapSense_SelfTest.c **** }
 880:Generated_Source\PSoC4/CapSense_SelfTest.c **** 
 881:Generated_Source\PSoC4/CapSense_SelfTest.c **** /*******************************************************************************
 882:Generated_Source\PSoC4/CapSense_SelfTest.c **** * Function Name: CapSense_UpdateTestResultBaselineDuplication
 883:Generated_Source\PSoC4/CapSense_SelfTest.c **** ****************************************************************************//**
 884:Generated_Source\PSoC4/CapSense_SelfTest.c **** *
 885:Generated_Source\PSoC4/CapSense_SelfTest.c **** * \brief
 886:Generated_Source\PSoC4/CapSense_SelfTest.c **** *  The internal fuction that updates SefTest data structure and
 887:Generated_Source\PSoC4/CapSense_SelfTest.c **** *  widgetWorking register.
 888:Generated_Source\PSoC4/CapSense_SelfTest.c **** *
 889:Generated_Source\PSoC4/CapSense_SelfTest.c **** * \details
 890:Generated_Source\PSoC4/CapSense_SelfTest.c **** *  The function resets a corresponding bit in widgetWorking register,
 891:Generated_Source\PSoC4/CapSense_SelfTest.c **** *  checks TestResultMask for CapSense_TST_BSLN_DUPLICATION
 892:Generated_Source\PSoC4/CapSense_SelfTest.c **** *  bit and if it was not setted to 1 sets it and memorizes wdgtId and snsId
 893:Generated_Source\PSoC4/CapSense_SelfTest.c **** *  in registers invBslnWdgtId and invBslnSnsId of the SefTest data structure.
 894:Generated_Source\PSoC4/CapSense_SelfTest.c **** *
 895:Generated_Source\PSoC4/CapSense_SelfTest.c **** * \param widgetId
 896:Generated_Source\PSoC4/CapSense_SelfTest.c **** *  Specifies the ID number of the widget to be processed.
 897:Generated_Source\PSoC4/CapSense_SelfTest.c **** *
 898:Generated_Source\PSoC4/CapSense_SelfTest.c **** * \param sensorId
 899:Generated_Source\PSoC4/CapSense_SelfTest.c **** *  Specifies the ID number of the sensor within the widget which
 900:Generated_Source\PSoC4/CapSense_SelfTest.c **** *  will be processed.
 901:Generated_Source\PSoC4/CapSense_SelfTest.c **** *
 902:Generated_Source\PSoC4/CapSense_SelfTest.c **** *******************************************************************************/
 903:Generated_Source\PSoC4/CapSense_SelfTest.c **** void CapSense_UpdateTestResultBaselineDuplication(uint32 widgetId, uint32 sensorId)
 904:Generated_Source\PSoC4/CapSense_SelfTest.c **** {
ARM GAS  C:\Users\220036~1\AppData\Local\Temp\ccGySGhB.s 			page 19


 905:Generated_Source\PSoC4/CapSense_SelfTest.c ****     CapSense_dsRam.wdgtWorking[CapSense_GET_WDGT_STATUS_INDEX(widgetId)] &=
 906:Generated_Source\PSoC4/CapSense_SelfTest.c ****                                      ~(CapSense_GET_WDGT_STATUS_MASK(widgetId));
 907:Generated_Source\PSoC4/CapSense_SelfTest.c ****     /* Write to self-test data structure wdgtId and snsId of the first sensor with a damaged baseli
 908:Generated_Source\PSoC4/CapSense_SelfTest.c ****     if (0Lu == (CapSense_dsRam.selfTest.testResultMask &
 909:Generated_Source\PSoC4/CapSense_SelfTest.c ****                 CapSense_TST_BSLN_DUPLICATION))
 910:Generated_Source\PSoC4/CapSense_SelfTest.c ****     {
 911:Generated_Source\PSoC4/CapSense_SelfTest.c ****         CapSense_dsRam.selfTest.testResultMask |= CapSense_TST_BSLN_DUPLICATION;
 912:Generated_Source\PSoC4/CapSense_SelfTest.c ****         CapSense_dsRam.selfTest.invBslnWdgtId = (uint8)widgetId;
 913:Generated_Source\PSoC4/CapSense_SelfTest.c ****         CapSense_dsRam.selfTest.invBslnSnsId = (uint8)sensorId;
 914:Generated_Source\PSoC4/CapSense_SelfTest.c ****     }
 915:Generated_Source\PSoC4/CapSense_SelfTest.c **** }
 916:Generated_Source\PSoC4/CapSense_SelfTest.c **** #endif /*(CapSense_ENABLE == CapSense_TST_BSLN_DUPLICATION_EN)*/
 917:Generated_Source\PSoC4/CapSense_SelfTest.c **** 
 918:Generated_Source\PSoC4/CapSense_SelfTest.c **** #if (CapSense_ENABLE == CapSense_TST_BSLN_RAW_OUT_RANGE_EN)
 919:Generated_Source\PSoC4/CapSense_SelfTest.c **** 
 920:Generated_Source\PSoC4/CapSense_SelfTest.c **** /*******************************************************************************
 921:Generated_Source\PSoC4/CapSense_SelfTest.c **** * Function Name: CapSense_CheckBaselineRawcountRange
 922:Generated_Source\PSoC4/CapSense_SelfTest.c **** ****************************************************************************//**
 923:Generated_Source\PSoC4/CapSense_SelfTest.c **** *
 924:Generated_Source\PSoC4/CapSense_SelfTest.c **** * \brief
 925:Generated_Source\PSoC4/CapSense_SelfTest.c **** *  Checks that raw count and baseline of the specified widget/sensor are
 926:Generated_Source\PSoC4/CapSense_SelfTest.c **** *  within the specified range.
 927:Generated_Source\PSoC4/CapSense_SelfTest.c **** *
 928:Generated_Source\PSoC4/CapSense_SelfTest.c **** * \details
 929:Generated_Source\PSoC4/CapSense_SelfTest.c **** *  The baseline and raw count shall be within specific range (based on
 930:Generated_Source\PSoC4/CapSense_SelfTest.c **** *  calibration target) for good units. The function checks whether or not
 931:Generated_Source\PSoC4/CapSense_SelfTest.c **** *  the baseline and raw count are within the limits defined by the user in the
 932:Generated_Source\PSoC4/CapSense_SelfTest.c **** *  ranges function argument. If baseline or raw count are out of limits this
 933:Generated_Source\PSoC4/CapSense_SelfTest.c **** *  function sets the CapSense_TST_BSLN_RAW_OUT_RANGE bit in the
 934:Generated_Source\PSoC4/CapSense_SelfTest.c **** *  CapSense_TEST_RESULT_MASK_VALUE register.
 935:Generated_Source\PSoC4/CapSense_SelfTest.c **** *
 936:Generated_Source\PSoC4/CapSense_SelfTest.c **** *  Unlike other tests, this test does not update
 937:Generated_Source\PSoC4/CapSense_SelfTest.c **** *  CapSense_WDGT_WORKING<Number>_VALUE register and is not available in
 938:Generated_Source\PSoC4/CapSense_SelfTest.c **** *  the CapSense_RunSelfTest() function.
 939:Generated_Source\PSoC4/CapSense_SelfTest.c **** *
 940:Generated_Source\PSoC4/CapSense_SelfTest.c **** *  Use this function to verify the uniformity of sensors, for example, at
 941:Generated_Source\PSoC4/CapSense_SelfTest.c **** *  mass-production or during an operation phase.
 942:Generated_Source\PSoC4/CapSense_SelfTest.c **** *
 943:Generated_Source\PSoC4/CapSense_SelfTest.c **** * \param widgetId
 944:Generated_Source\PSoC4/CapSense_SelfTest.c **** *  Specifies the ID number of the widget.
 945:Generated_Source\PSoC4/CapSense_SelfTest.c **** *  A macro for the widget ID can be found in the
 946:Generated_Source\PSoC4/CapSense_SelfTest.c **** *  CapSense Configuration header file defined as
 947:Generated_Source\PSoC4/CapSense_SelfTest.c **** *  CapSense_<WidgetName>_WDGT_ID.
 948:Generated_Source\PSoC4/CapSense_SelfTest.c **** *
 949:Generated_Source\PSoC4/CapSense_SelfTest.c **** * \param sensorId
 950:Generated_Source\PSoC4/CapSense_SelfTest.c **** *  Specifies the ID number of the sensor within the widget.
 951:Generated_Source\PSoC4/CapSense_SelfTest.c **** *  A macro for the sensor ID within the specified widget can be found in
 952:Generated_Source\PSoC4/CapSense_SelfTest.c **** *  the CapSense Configuration header file defined as
 953:Generated_Source\PSoC4/CapSense_SelfTest.c **** *  CapSense_<WidgetName>_SNS<SensorNumber>_ID.
 954:Generated_Source\PSoC4/CapSense_SelfTest.c **** *
 955:Generated_Source\PSoC4/CapSense_SelfTest.c **** * \param *ranges
 956:Generated_Source\PSoC4/CapSense_SelfTest.c **** *  Specifies the pointer to the CapSense_BSLN_RAW_RANGE_STRUCT structure
 957:Generated_Source\PSoC4/CapSense_SelfTest.c **** *  with valid ranges for the raw count and baseline.
 958:Generated_Source\PSoC4/CapSense_SelfTest.c **** *
 959:Generated_Source\PSoC4/CapSense_SelfTest.c **** * \return
 960:Generated_Source\PSoC4/CapSense_SelfTest.c **** *  Returns a status of the test execution:
 961:Generated_Source\PSoC4/CapSense_SelfTest.c **** *  - CY_RET_SUCCESS - The raw count and baseline are within the specified range
ARM GAS  C:\Users\220036~1\AppData\Local\Temp\ccGySGhB.s 			page 20


 962:Generated_Source\PSoC4/CapSense_SelfTest.c **** *  - CapSense_TST_BSLN_RAW_OUT_RANGE - The test failed and baseline or
 963:Generated_Source\PSoC4/CapSense_SelfTest.c ****      raw count or both are out of the specified limit.
 964:Generated_Source\PSoC4/CapSense_SelfTest.c **** *  - CapSense_TST_BAD_PARAM - The input parameters are invalid.
 965:Generated_Source\PSoC4/CapSense_SelfTest.c **** *
 966:Generated_Source\PSoC4/CapSense_SelfTest.c **** *******************************************************************************/
 967:Generated_Source\PSoC4/CapSense_SelfTest.c **** uint32 CapSense_CheckBaselineRawcountRange(uint32 widgetId, uint32 sensorId,CapSense_BSLN_RAW_RANGE
 968:Generated_Source\PSoC4/CapSense_SelfTest.c **** {
 969:Generated_Source\PSoC4/CapSense_SelfTest.c ****     uint32 result = CYRET_SUCCESS;
 970:Generated_Source\PSoC4/CapSense_SelfTest.c ****     uint32 freqChannel;
 971:Generated_Source\PSoC4/CapSense_SelfTest.c ****     CapSense_RAM_SNS_STRUCT *ptrSensor = NULL;
 972:Generated_Source\PSoC4/CapSense_SelfTest.c ****     CapSense_FLASH_WD_STRUCT const *ptrWidget = NULL;
 973:Generated_Source\PSoC4/CapSense_SelfTest.c **** 
 974:Generated_Source\PSoC4/CapSense_SelfTest.c **** 
 975:Generated_Source\PSoC4/CapSense_SelfTest.c ****     if ((CapSense_TOTAL_WIDGETS > widgetId) &&
 976:Generated_Source\PSoC4/CapSense_SelfTest.c ****        ((CapSense_GET_SENSOR_COUNT(widgetId)) > sensorId))
 977:Generated_Source\PSoC4/CapSense_SelfTest.c ****     {
 978:Generated_Source\PSoC4/CapSense_SelfTest.c ****         ptrWidget = &CapSense_dsFlash.wdgtArray[widgetId];
 979:Generated_Source\PSoC4/CapSense_SelfTest.c ****         /* Find pointer to specified sensor object */
 980:Generated_Source\PSoC4/CapSense_SelfTest.c ****         ptrSensor = ptrWidget->ptr2SnsRam;
 981:Generated_Source\PSoC4/CapSense_SelfTest.c ****         ptrSensor = &ptrSensor[sensorId];
 982:Generated_Source\PSoC4/CapSense_SelfTest.c **** 
 983:Generated_Source\PSoC4/CapSense_SelfTest.c ****         #if(CapSense_ENABLE == CapSense_MULTI_FREQ_SCAN_EN)
 984:Generated_Source\PSoC4/CapSense_SelfTest.c ****         /* Check baseline and rawcont of every channel in sensor */
 985:Generated_Source\PSoC4/CapSense_SelfTest.c ****             for(freqChannel = 0u;
 986:Generated_Source\PSoC4/CapSense_SelfTest.c ****                 freqChannel < CapSense_NUM_SCAN_FREQS;
 987:Generated_Source\PSoC4/CapSense_SelfTest.c ****                 freqChannel++)
 988:Generated_Source\PSoC4/CapSense_SelfTest.c ****             {
 989:Generated_Source\PSoC4/CapSense_SelfTest.c ****         #else
 990:Generated_Source\PSoC4/CapSense_SelfTest.c ****             freqChannel = 0u;
 991:Generated_Source\PSoC4/CapSense_SelfTest.c ****         #endif /* (CapSense_ENABLE == CapSense_MULTI_FREQ_SCAN_EN) */
 992:Generated_Source\PSoC4/CapSense_SelfTest.c **** 
 993:Generated_Source\PSoC4/CapSense_SelfTest.c ****                 if ((ptrSensor->bsln[freqChannel] > ranges->bslnHiLim) ||
 994:Generated_Source\PSoC4/CapSense_SelfTest.c ****                     (ptrSensor->bsln[freqChannel] < ranges->bslnLoLim) ||
 995:Generated_Source\PSoC4/CapSense_SelfTest.c ****                     (ptrSensor->raw[freqChannel]  > ranges->rawHiLim)  ||
 996:Generated_Source\PSoC4/CapSense_SelfTest.c ****                     (ptrSensor->raw[freqChannel]  < ranges->rawLoLim))
 997:Generated_Source\PSoC4/CapSense_SelfTest.c ****                 {
 998:Generated_Source\PSoC4/CapSense_SelfTest.c ****                     CapSense_dsRam.selfTest.testResultMask |= CapSense_TST_BSLN_RAW_OUT_RANGE;
 999:Generated_Source\PSoC4/CapSense_SelfTest.c ****                     result = CapSense_TST_BSLN_RAW_OUT_RANGE;
1000:Generated_Source\PSoC4/CapSense_SelfTest.c ****                 }
1001:Generated_Source\PSoC4/CapSense_SelfTest.c **** 
1002:Generated_Source\PSoC4/CapSense_SelfTest.c ****         #if(CapSense_ENABLE == CapSense_MULTI_FREQ_SCAN_EN)
1003:Generated_Source\PSoC4/CapSense_SelfTest.c ****             }
1004:Generated_Source\PSoC4/CapSense_SelfTest.c ****         #endif /* (CapSense_ENABLE == CapSense_MULTI_FREQ_SCAN_EN) */
1005:Generated_Source\PSoC4/CapSense_SelfTest.c **** 
1006:Generated_Source\PSoC4/CapSense_SelfTest.c ****     }
1007:Generated_Source\PSoC4/CapSense_SelfTest.c ****     else
1008:Generated_Source\PSoC4/CapSense_SelfTest.c ****     {
1009:Generated_Source\PSoC4/CapSense_SelfTest.c ****         result |= CapSense_TST_BAD_PARAM;
1010:Generated_Source\PSoC4/CapSense_SelfTest.c ****     }
1011:Generated_Source\PSoC4/CapSense_SelfTest.c ****     return result;
1012:Generated_Source\PSoC4/CapSense_SelfTest.c **** }
1013:Generated_Source\PSoC4/CapSense_SelfTest.c **** #endif /* (CapSense_ENABLE == CapSense_TST_BSLN_RAW_OUT_RANGE_EN) */
1014:Generated_Source\PSoC4/CapSense_SelfTest.c **** 
1015:Generated_Source\PSoC4/CapSense_SelfTest.c **** #if (CapSense_ENABLE == CapSense_TST_SNS_SHORT_EN)
1016:Generated_Source\PSoC4/CapSense_SelfTest.c **** 
1017:Generated_Source\PSoC4/CapSense_SelfTest.c **** /*******************************************************************************
1018:Generated_Source\PSoC4/CapSense_SelfTest.c **** * Function Name: CapSense_CheckSensorShort
ARM GAS  C:\Users\220036~1\AppData\Local\Temp\ccGySGhB.s 			page 21


1019:Generated_Source\PSoC4/CapSense_SelfTest.c **** ****************************************************************************//**
1020:Generated_Source\PSoC4/CapSense_SelfTest.c **** *
1021:Generated_Source\PSoC4/CapSense_SelfTest.c **** * \brief
1022:Generated_Source\PSoC4/CapSense_SelfTest.c **** *  Checks the specified widget/sensor for shorts to GND or VDD.
1023:Generated_Source\PSoC4/CapSense_SelfTest.c **** *
1024:Generated_Source\PSoC4/CapSense_SelfTest.c **** * \details
1025:Generated_Source\PSoC4/CapSense_SelfTest.c **** *  The function performs test to check for a short to GND or VDD on
1026:Generated_Source\PSoC4/CapSense_SelfTest.c **** *  the specified sensor. The resistance of electrical short must be
1027:Generated_Source\PSoC4/CapSense_SelfTest.c **** *  less than 1100 Ohm including series resistors on sensor for the short to
1028:Generated_Source\PSoC4/CapSense_SelfTest.c **** *  be detected. The CapSense_GetSensorCapacitance() function can be
1029:Generated_Source\PSoC4/CapSense_SelfTest.c **** *  used to check an electrical short with resistance higher than 1100 Ohm or
1030:Generated_Source\PSoC4/CapSense_SelfTest.c **** *  when the specified ganged sensor consists of two or more electrodes.
1031:Generated_Source\PSoC4/CapSense_SelfTest.c **** *
1032:Generated_Source\PSoC4/CapSense_SelfTest.c **** *  This function performs the following tasks:
1033:Generated_Source\PSoC4/CapSense_SelfTest.c **** *  - If a short is detected, the widget ID is stored to the
1034:Generated_Source\PSoC4/CapSense_SelfTest.c **** *    CapSense_SHORTED_WDGT_ID_VALUE register.
1035:Generated_Source\PSoC4/CapSense_SelfTest.c **** *  - If a short is detected, the sensor ID is stored to the
1036:Generated_Source\PSoC4/CapSense_SelfTest.c **** *    CapSense_SHORTED_SNS_ID_VALUE register.
1037:Generated_Source\PSoC4/CapSense_SelfTest.c **** *  - If a short is detected, the CapSense_TST_SNS_SHORT bit is
1038:Generated_Source\PSoC4/CapSense_SelfTest.c **** *    set in the CapSense_TEST_RESULT_MASK_VALUE register.
1039:Generated_Source\PSoC4/CapSense_SelfTest.c **** *  - If a short is detected, the bit corresponding to the specified widget
1040:Generated_Source\PSoC4/CapSense_SelfTest.c **** *    (CapSense_WDGT_WORKING<Number>_VALUE) is cleared in the
1041:Generated_Source\PSoC4/CapSense_SelfTest.c **** *    wdgtWorking register to indicate fault with the widget. Once the bit
1042:Generated_Source\PSoC4/CapSense_SelfTest.c **** *    is cleared, the widget is treated as non-working widget by the
1043:Generated_Source\PSoC4/CapSense_SelfTest.c **** *    high-level functions and further processing are skipped. Restoring
1044:Generated_Source\PSoC4/CapSense_SelfTest.c **** *    the bit corresponding the widget can be done by application layer
1045:Generated_Source\PSoC4/CapSense_SelfTest.c **** *    to restore the operation of the high-level functions.
1046:Generated_Source\PSoC4/CapSense_SelfTest.c **** *  - If CapSense_TST_SNS_SHORT is already set due to previously
1047:Generated_Source\PSoC4/CapSense_SelfTest.c **** *    detected fault on any of the sensor, the CapSense_TST_SNS_SHORT
1048:Generated_Source\PSoC4/CapSense_SelfTest.c **** *    register is not cleared by this function and
1049:Generated_Source\PSoC4/CapSense_SelfTest.c **** *    CapSense_SHORTED_WDGT_ID_VALUE and
1050:Generated_Source\PSoC4/CapSense_SelfTest.c **** *    CapSense_SHORTED_SNS_ID_VALUE registers are not updated.
1051:Generated_Source\PSoC4/CapSense_SelfTest.c **** *    For this reason, remember to read details of defective sensor and clear
1052:Generated_Source\PSoC4/CapSense_SelfTest.c **** *    CapSense_TST_SNS_SHORT prior to calling this function on the
1053:Generated_Source\PSoC4/CapSense_SelfTest.c **** *    same or different sensor.
1054:Generated_Source\PSoC4/CapSense_SelfTest.c **** *
1055:Generated_Source\PSoC4/CapSense_SelfTest.c **** *  This function performs the test on one specific sensor. The
1056:Generated_Source\PSoC4/CapSense_SelfTest.c **** *  CapSense_RunSelfTest() function with the
1057:Generated_Source\PSoC4/CapSense_SelfTest.c **** *  CapSense_TST_SNS_SHORT mask, performs the short test on all
1058:Generated_Source\PSoC4/CapSense_SelfTest.c **** *  the widgets and sensors in the Component. In this case,
1059:Generated_Source\PSoC4/CapSense_SelfTest.c **** *  CapSense_SHORTED_WDGT_ID_VALUE and
1060:Generated_Source\PSoC4/CapSense_SelfTest.c **** *  CapSense_SHORTED_SNS_ID_VALUE registers stores the widget and sensor
1061:Generated_Source\PSoC4/CapSense_SelfTest.c **** *  ID of the first faulty sensor.
1062:Generated_Source\PSoC4/CapSense_SelfTest.c **** *
1063:Generated_Source\PSoC4/CapSense_SelfTest.c **** * \param widgetId
1064:Generated_Source\PSoC4/CapSense_SelfTest.c **** *  Specifies the ID number of the widget to be processed.
1065:Generated_Source\PSoC4/CapSense_SelfTest.c **** *  A macro for the widget ID can be found in the
1066:Generated_Source\PSoC4/CapSense_SelfTest.c **** *  CapSense Configuration header file defined as
1067:Generated_Source\PSoC4/CapSense_SelfTest.c **** *  CapSense_<WidgetName>_WDGT_ID.
1068:Generated_Source\PSoC4/CapSense_SelfTest.c **** *
1069:Generated_Source\PSoC4/CapSense_SelfTest.c **** * \param sensorId
1070:Generated_Source\PSoC4/CapSense_SelfTest.c **** *  Specifies the ID number of the sensor within the widget.
1071:Generated_Source\PSoC4/CapSense_SelfTest.c **** *  A macro for the sensor ID within the specified widget can be found in
1072:Generated_Source\PSoC4/CapSense_SelfTest.c **** *  the CapSense Configuration header file defined as
1073:Generated_Source\PSoC4/CapSense_SelfTest.c **** *  CapSense_<WidgetName>_SNS<SensorNumber>_ID.
1074:Generated_Source\PSoC4/CapSense_SelfTest.c **** *
1075:Generated_Source\PSoC4/CapSense_SelfTest.c **** * \return
ARM GAS  C:\Users\220036~1\AppData\Local\Temp\ccGySGhB.s 			page 22


1076:Generated_Source\PSoC4/CapSense_SelfTest.c **** *  Returns a status of the test execution:
1077:Generated_Source\PSoC4/CapSense_SelfTest.c **** *  - CY_RET_SUCCESS - The sensor of the widget does not have a short to VDD or
1078:Generated_Source\PSoC4/CapSense_SelfTest.c **** *    GND and is in working condition.
1079:Generated_Source\PSoC4/CapSense_SelfTest.c **** *  - CapSense_TST_SNS_SHORT - A short is detected on the specified sensor.
1080:Generated_Source\PSoC4/CapSense_SelfTest.c **** *  - CapSense_TST_BAD_PARAM - The input parameters are invalid.
1081:Generated_Source\PSoC4/CapSense_SelfTest.c **** *
1082:Generated_Source\PSoC4/CapSense_SelfTest.c **** *******************************************************************************/
1083:Generated_Source\PSoC4/CapSense_SelfTest.c **** uint32 CapSense_CheckSensorShort(uint32 widgetId, uint32 sensorId)
1084:Generated_Source\PSoC4/CapSense_SelfTest.c **** {
1085:Generated_Source\PSoC4/CapSense_SelfTest.c ****     uint32 result = CYRET_SUCCESS;
1086:Generated_Source\PSoC4/CapSense_SelfTest.c **** 
1087:Generated_Source\PSoC4/CapSense_SelfTest.c ****     if ((CapSense_TOTAL_WIDGETS > widgetId) && ((CapSense_GET_SENSOR_COUNT(widgetId)) > sensorId))
1088:Generated_Source\PSoC4/CapSense_SelfTest.c ****     {
1089:Generated_Source\PSoC4/CapSense_SelfTest.c ****         /* Release previously captured HW resources by other mode and capture them for BIST */
1090:Generated_Source\PSoC4/CapSense_SelfTest.c ****         CapSense_SsSwitchSensingMode(CapSense_SENSE_METHOD_BIST_E);
1091:Generated_Source\PSoC4/CapSense_SelfTest.c ****         /* Switch HW resource configuration to sensor short test */
1092:Generated_Source\PSoC4/CapSense_SelfTest.c ****         CapSense_BistSwitchHwConfig(CapSense_BIST_HW_SNS_SHORT_E);
1093:Generated_Source\PSoC4/CapSense_SelfTest.c ****         /* Execute the test */
1094:Generated_Source\PSoC4/CapSense_SelfTest.c ****         result = CapSense_ExecuteSnsShort(widgetId, sensorId);
1095:Generated_Source\PSoC4/CapSense_SelfTest.c ****     }
1096:Generated_Source\PSoC4/CapSense_SelfTest.c ****     else
1097:Generated_Source\PSoC4/CapSense_SelfTest.c ****     {
1098:Generated_Source\PSoC4/CapSense_SelfTest.c ****         result = CapSense_TST_BAD_PARAM;
1099:Generated_Source\PSoC4/CapSense_SelfTest.c ****     }
1100:Generated_Source\PSoC4/CapSense_SelfTest.c ****     return result;
1101:Generated_Source\PSoC4/CapSense_SelfTest.c **** }
1102:Generated_Source\PSoC4/CapSense_SelfTest.c **** 
1103:Generated_Source\PSoC4/CapSense_SelfTest.c **** /*******************************************************************************
1104:Generated_Source\PSoC4/CapSense_SelfTest.c **** * Function Name: CapSense_CheckAllSensorShort
1105:Generated_Source\PSoC4/CapSense_SelfTest.c **** ****************************************************************************//**
1106:Generated_Source\PSoC4/CapSense_SelfTest.c **** *
1107:Generated_Source\PSoC4/CapSense_SelfTest.c **** * \brief
1108:Generated_Source\PSoC4/CapSense_SelfTest.c **** *  The internal fuction that checks all the sensors short to GND or VDD.
1109:Generated_Source\PSoC4/CapSense_SelfTest.c **** *
1110:Generated_Source\PSoC4/CapSense_SelfTest.c **** * \details
1111:Generated_Source\PSoC4/CapSense_SelfTest.c **** *  The fuction that checks for shorts on Vdd/GND of all sensor (not
1112:Generated_Source\PSoC4/CapSense_SelfTest.c **** *  electrode) by using CapSense_ExecuteSnsShort. The function returns
1113:Generated_Source\PSoC4/CapSense_SelfTest.c **** *  the status and updates testResultMask and  wdgtWorking register
1114:Generated_Source\PSoC4/CapSense_SelfTest.c **** *  in a case of any shorts detection.
1115:Generated_Source\PSoC4/CapSense_SelfTest.c **** *
1116:Generated_Source\PSoC4/CapSense_SelfTest.c **** * \return
1117:Generated_Source\PSoC4/CapSense_SelfTest.c **** *  Returns the status of the test processing:
1118:Generated_Source\PSoC4/CapSense_SelfTest.c **** *  - CYRET_SUCCESS if test passed successfully;
1119:Generated_Source\PSoC4/CapSense_SelfTest.c **** *  - CapSense_TST_SNS_SHORT if any sensor of any widget is
1120:Generated_Source\PSoC4/CapSense_SelfTest.c **** *    shorted to Vdd or GND.
1121:Generated_Source\PSoC4/CapSense_SelfTest.c **** *
1122:Generated_Source\PSoC4/CapSense_SelfTest.c **** *******************************************************************************/
1123:Generated_Source\PSoC4/CapSense_SelfTest.c **** static uint32 CapSense_CheckAllSensorShort(void)
1124:Generated_Source\PSoC4/CapSense_SelfTest.c **** {
1125:Generated_Source\PSoC4/CapSense_SelfTest.c ****     uint32 wdgtIndex;
1126:Generated_Source\PSoC4/CapSense_SelfTest.c ****     uint32 snsIndex;
1127:Generated_Source\PSoC4/CapSense_SelfTest.c ****     uint32 result = CYRET_SUCCESS;
1128:Generated_Source\PSoC4/CapSense_SelfTest.c ****     uint32 resultWidget = CYRET_SUCCESS;
1129:Generated_Source\PSoC4/CapSense_SelfTest.c **** 
1130:Generated_Source\PSoC4/CapSense_SelfTest.c ****     /* Releasing of previously captured HW resources by other mode was done in RunSelfTest function
1131:Generated_Source\PSoC4/CapSense_SelfTest.c ****     /* Switch HW resource configuration to sensor short test */
1132:Generated_Source\PSoC4/CapSense_SelfTest.c ****     CapSense_BistSwitchHwConfig(CapSense_BIST_HW_SNS_SHORT_E);
ARM GAS  C:\Users\220036~1\AppData\Local\Temp\ccGySGhB.s 			page 23


1133:Generated_Source\PSoC4/CapSense_SelfTest.c ****     /* Execute the test */
1134:Generated_Source\PSoC4/CapSense_SelfTest.c ****     for (wdgtIndex = 0u; wdgtIndex < CapSense_TOTAL_WIDGETS; wdgtIndex++)
1135:Generated_Source\PSoC4/CapSense_SelfTest.c ****     {
1136:Generated_Source\PSoC4/CapSense_SelfTest.c ****         resultWidget = CYRET_SUCCESS;
1137:Generated_Source\PSoC4/CapSense_SelfTest.c ****         for (snsIndex = 0u; snsIndex < (CapSense_GET_SENSOR_COUNT(wdgtIndex)); snsIndex++)
1138:Generated_Source\PSoC4/CapSense_SelfTest.c ****         {
1139:Generated_Source\PSoC4/CapSense_SelfTest.c ****             resultWidget = CapSense_ExecuteSnsShort(wdgtIndex, snsIndex);
1140:Generated_Source\PSoC4/CapSense_SelfTest.c ****             if (CYRET_SUCCESS != resultWidget)
1141:Generated_Source\PSoC4/CapSense_SelfTest.c ****             {
1142:Generated_Source\PSoC4/CapSense_SelfTest.c ****                 break;
1143:Generated_Source\PSoC4/CapSense_SelfTest.c ****             }
1144:Generated_Source\PSoC4/CapSense_SelfTest.c ****         }
1145:Generated_Source\PSoC4/CapSense_SelfTest.c ****         result |= resultWidget;
1146:Generated_Source\PSoC4/CapSense_SelfTest.c ****     }
1147:Generated_Source\PSoC4/CapSense_SelfTest.c ****     return result;
1148:Generated_Source\PSoC4/CapSense_SelfTest.c **** }
1149:Generated_Source\PSoC4/CapSense_SelfTest.c **** 
1150:Generated_Source\PSoC4/CapSense_SelfTest.c **** /*******************************************************************************
1151:Generated_Source\PSoC4/CapSense_SelfTest.c **** * Function Name: CapSense_UpdateTestResultSnsShort
1152:Generated_Source\PSoC4/CapSense_SelfTest.c **** ****************************************************************************//**
1153:Generated_Source\PSoC4/CapSense_SelfTest.c **** * \brief
1154:Generated_Source\PSoC4/CapSense_SelfTest.c **** *  The internal fuction that updates SefTest data structure and
1155:Generated_Source\PSoC4/CapSense_SelfTest.c **** *  widgetWorking register.
1156:Generated_Source\PSoC4/CapSense_SelfTest.c **** *
1157:Generated_Source\PSoC4/CapSense_SelfTest.c **** * \details
1158:Generated_Source\PSoC4/CapSense_SelfTest.c **** *  The function resets a corresponding bit in widgetWorking register,
1159:Generated_Source\PSoC4/CapSense_SelfTest.c **** *  checks TestResultMask for CapSense_TST_SNS_SHORT bit and if
1160:Generated_Source\PSoC4/CapSense_SelfTest.c **** *  it was not setted to 1 sets it and memorizes wdgtId and snsId
1161:Generated_Source\PSoC4/CapSense_SelfTest.c **** *  in corresponding registers of the SefTest data structure.
1162:Generated_Source\PSoC4/CapSense_SelfTest.c **** *
1163:Generated_Source\PSoC4/CapSense_SelfTest.c **** * \param wdgtId
1164:Generated_Source\PSoC4/CapSense_SelfTest.c **** *  Specifies the ID number of the widget to be processed.
1165:Generated_Source\PSoC4/CapSense_SelfTest.c **** *
1166:Generated_Source\PSoC4/CapSense_SelfTest.c **** * \param snsId
1167:Generated_Source\PSoC4/CapSense_SelfTest.c **** *  Specifies the ID number of the sensor within the widget which
1168:Generated_Source\PSoC4/CapSense_SelfTest.c **** *  will be processed.
1169:Generated_Source\PSoC4/CapSense_SelfTest.c **** *******************************************************************************/
1170:Generated_Source\PSoC4/CapSense_SelfTest.c **** static void CapSense_UpdateTestResultSnsShort(uint32 wdgtId, uint32 snsId)
1171:Generated_Source\PSoC4/CapSense_SelfTest.c **** {
 121              		.loc 1 1171 0
 122              		.cfi_startproc
 123              		@ args = 0, pretend = 0, frame = 0
 124              		@ frame_needed = 0, uses_anonymous_args = 0
 125              	.LVL20:
 126 0000 30B5     		push	{r4, r5, lr}
 127              		.cfi_def_cfa_offset 12
 128              		.cfi_offset 4, -12
 129              		.cfi_offset 5, -8
 130              		.cfi_offset 14, -4
1172:Generated_Source\PSoC4/CapSense_SelfTest.c ****     CapSense_dsRam.wdgtWorking[CapSense_GET_WDGT_STATUS_INDEX(wdgtId)] &=
 131              		.loc 1 1172 0
 132 0002 4309     		lsrs	r3, r0, #5
1173:Generated_Source\PSoC4/CapSense_SelfTest.c ****                                      ~(CapSense_GET_WDGT_STATUS_MASK(wdgtId));
 133              		.loc 1 1173 0
 134 0004 1F24     		movs	r4, #31
 135 0006 0440     		ands	r4, r0
 136 0008 0122     		movs	r2, #1
ARM GAS  C:\Users\220036~1\AppData\Local\Temp\ccGySGhB.s 			page 24


 137 000a A240     		lsls	r2, r2, r4
1172:Generated_Source\PSoC4/CapSense_SelfTest.c ****     CapSense_dsRam.wdgtWorking[CapSense_GET_WDGT_STATUS_INDEX(wdgtId)] &=
 138              		.loc 1 1172 0
 139 000c 094C     		ldr	r4, .L8
 140 000e 0433     		adds	r3, r3, #4
 141 0010 9B00     		lsls	r3, r3, #2
 142 0012 E318     		adds	r3, r4, r3
 143 0014 5D68     		ldr	r5, [r3, #4]
 144 0016 9543     		bics	r5, r2
 145 0018 5D60     		str	r5, [r3, #4]
1174:Generated_Source\PSoC4/CapSense_SelfTest.c ****     if (0Lu == (CapSense_dsRam.selfTest.testResultMask & CapSense_TST_SNS_SHORT))
 146              		.loc 1 1174 0
 147 001a E36D     		ldr	r3, [r4, #92]
 148 001c DA05     		lsls	r2, r3, #23
 149 001e 08D4     		bmi	.L6
1175:Generated_Source\PSoC4/CapSense_SelfTest.c ****     {
1176:Generated_Source\PSoC4/CapSense_SelfTest.c ****         /* Write to self-test data structure wdgtId and snsId of the first shorted sensor */
1177:Generated_Source\PSoC4/CapSense_SelfTest.c ****         CapSense_dsRam.selfTest.testResultMask |= CapSense_TST_SNS_SHORT;
 150              		.loc 1 1177 0
 151 0020 2200     		movs	r2, r4
 152 0022 8024     		movs	r4, #128
 153 0024 6400     		lsls	r4, r4, #1
 154 0026 2343     		orrs	r3, r4
 155 0028 D365     		str	r3, [r2, #92]
1178:Generated_Source\PSoC4/CapSense_SelfTest.c ****         CapSense_dsRam.selfTest.shortedWdgtId = (uint8)wdgtId;
 156              		.loc 1 1178 0
 157 002a 6F23     		movs	r3, #111
 158 002c D054     		strb	r0, [r2, r3]
1179:Generated_Source\PSoC4/CapSense_SelfTest.c ****         CapSense_dsRam.selfTest.shortedSnsId = (uint8)snsId;
 159              		.loc 1 1179 0
 160 002e 0133     		adds	r3, r3, #1
 161 0030 D154     		strb	r1, [r2, r3]
 162              	.L6:
1180:Generated_Source\PSoC4/CapSense_SelfTest.c ****     }
1181:Generated_Source\PSoC4/CapSense_SelfTest.c **** }
 163              		.loc 1 1181 0
 164              		@ sp needed
 165 0032 30BD     		pop	{r4, r5, pc}
 166              	.L9:
 167              		.align	2
 168              	.L8:
 169 0034 00000000 		.word	CapSense_dsRam
 170              		.cfi_endproc
 171              	.LFE14:
 172              		.size	CapSense_UpdateTestResultSnsShort, .-CapSense_UpdateTestResultSnsShort
 173              		.section	.text.CapSense_UpdateTestResultSns2SnsShort,"ax",%progbits
 174              		.align	2
 175              		.code	16
 176              		.thumb_func
 177              		.type	CapSense_UpdateTestResultSns2SnsShort, %function
 178              	CapSense_UpdateTestResultSns2SnsShort:
 179              	.LFB19:
1182:Generated_Source\PSoC4/CapSense_SelfTest.c **** 
1183:Generated_Source\PSoC4/CapSense_SelfTest.c **** /*******************************************************************************
1184:Generated_Source\PSoC4/CapSense_SelfTest.c **** * Function Name: CapSense_ExecuteSnsShort
1185:Generated_Source\PSoC4/CapSense_SelfTest.c **** ****************************************************************************//**
1186:Generated_Source\PSoC4/CapSense_SelfTest.c **** *
ARM GAS  C:\Users\220036~1\AppData\Local\Temp\ccGySGhB.s 			page 25


1187:Generated_Source\PSoC4/CapSense_SelfTest.c **** * \brief
1188:Generated_Source\PSoC4/CapSense_SelfTest.c **** *  The internal fuction that checks one sensor for shorts on GND/VDD.
1189:Generated_Source\PSoC4/CapSense_SelfTest.c **** *
1190:Generated_Source\PSoC4/CapSense_SelfTest.c **** * \details
1191:Generated_Source\PSoC4/CapSense_SelfTest.c **** *  The function that checks for shorts on GND/VDD of a certain sensor for CSD
1192:Generated_Source\PSoC4/CapSense_SelfTest.c **** *  widgets or of Rx and Tx electrodes of a certain sensor for CSX widgets.
1193:Generated_Source\PSoC4/CapSense_SelfTest.c **** *  The function uses CapSense_ExecuteSnsShortExt.
1194:Generated_Source\PSoC4/CapSense_SelfTest.c **** *  In a case of a shorts detection the function returns failed result.
1195:Generated_Source\PSoC4/CapSense_SelfTest.c **** *
1196:Generated_Source\PSoC4/CapSense_SelfTest.c **** * \param wdgtId
1197:Generated_Source\PSoC4/CapSense_SelfTest.c **** *  Specifies the ID number of the widget to be processed.
1198:Generated_Source\PSoC4/CapSense_SelfTest.c **** *
1199:Generated_Source\PSoC4/CapSense_SelfTest.c **** * \param snsId
1200:Generated_Source\PSoC4/CapSense_SelfTest.c **** *  Specifies the ID number of the sensor within the widget to be processed.
1201:Generated_Source\PSoC4/CapSense_SelfTest.c **** *
1202:Generated_Source\PSoC4/CapSense_SelfTest.c **** * \return
1203:Generated_Source\PSoC4/CapSense_SelfTest.c **** *  Returns the status of the test processing:
1204:Generated_Source\PSoC4/CapSense_SelfTest.c **** *  - CYRET_SUCCESS if any sensor's electrode of the widget isn't shorted to VDD or GND;
1205:Generated_Source\PSoC4/CapSense_SelfTest.c **** *  - CapSense_TST_SNS_SHORT if the sensor is shorted to VDD or GND;
1206:Generated_Source\PSoC4/CapSense_SelfTest.c **** *
1207:Generated_Source\PSoC4/CapSense_SelfTest.c **** *******************************************************************************/
1208:Generated_Source\PSoC4/CapSense_SelfTest.c **** static uint32 CapSense_ExecuteSnsShort(uint32 wdgtId, uint32 snsId)
1209:Generated_Source\PSoC4/CapSense_SelfTest.c **** {
1210:Generated_Source\PSoC4/CapSense_SelfTest.c ****     uint32 ioSnsId;
1211:Generated_Source\PSoC4/CapSense_SelfTest.c ****     uint32 result = CYRET_SUCCESS;
1212:Generated_Source\PSoC4/CapSense_SelfTest.c **** 
1213:Generated_Source\PSoC4/CapSense_SelfTest.c ****     #if (CapSense_ENABLE == CapSense_CSD_CSX_EN)
1214:Generated_Source\PSoC4/CapSense_SelfTest.c ****         /* For CSX widgets get an index of Rx electrode, for CSD widgets an electrode index is the 
1215:Generated_Source\PSoC4/CapSense_SelfTest.c ****         if (CapSense_SENSE_METHOD_CSX_E == CapSense_GET_SENSE_METHOD(&CapSense_dsFlash.wdgtArray[wd
1216:Generated_Source\PSoC4/CapSense_SelfTest.c ****         {
1217:Generated_Source\PSoC4/CapSense_SelfTest.c ****             ioSnsId = snsId / CapSense_dsFlash.wdgtArray[wdgtId].numRows;
1218:Generated_Source\PSoC4/CapSense_SelfTest.c ****         }
1219:Generated_Source\PSoC4/CapSense_SelfTest.c ****         else
1220:Generated_Source\PSoC4/CapSense_SelfTest.c ****         {
1221:Generated_Source\PSoC4/CapSense_SelfTest.c ****             ioSnsId = snsId;
1222:Generated_Source\PSoC4/CapSense_SelfTest.c ****         }
1223:Generated_Source\PSoC4/CapSense_SelfTest.c ****     #elif (CapSense_ENABLE == CapSense_CSX_EN)
1224:Generated_Source\PSoC4/CapSense_SelfTest.c ****         ioSnsId = snsId / CapSense_dsFlash.wdgtArray[wdgtId].numRows;
1225:Generated_Source\PSoC4/CapSense_SelfTest.c ****     #else
1226:Generated_Source\PSoC4/CapSense_SelfTest.c ****         ioSnsId = snsId;
1227:Generated_Source\PSoC4/CapSense_SelfTest.c ****     #endif
1228:Generated_Source\PSoC4/CapSense_SelfTest.c **** 
1229:Generated_Source\PSoC4/CapSense_SelfTest.c ****     result = CapSense_ExecuteSnsShortExt(wdgtId, ioSnsId);
1230:Generated_Source\PSoC4/CapSense_SelfTest.c **** 
1231:Generated_Source\PSoC4/CapSense_SelfTest.c ****     /* For CSX widgets, get an index of a Tx electrode and repeat the test */
1232:Generated_Source\PSoC4/CapSense_SelfTest.c ****     #if (CapSense_ENABLE == CapSense_CSX_EN)
1233:Generated_Source\PSoC4/CapSense_SelfTest.c ****         if (CYRET_SUCCESS == result)
1234:Generated_Source\PSoC4/CapSense_SelfTest.c ****         {
1235:Generated_Source\PSoC4/CapSense_SelfTest.c ****             if (CapSense_SENSE_METHOD_CSX_E == CapSense_GET_SENSE_METHOD(&CapSense_dsFlash.wdgtArra
1236:Generated_Source\PSoC4/CapSense_SelfTest.c ****             {
1237:Generated_Source\PSoC4/CapSense_SelfTest.c ****                 ioSnsId = (uint32)(snsId % CapSense_dsFlash.wdgtArray[wdgtId].numRows) +
1238:Generated_Source\PSoC4/CapSense_SelfTest.c ****                     (uint32)CapSense_dsFlash.wdgtArray[wdgtId].numCols;
1239:Generated_Source\PSoC4/CapSense_SelfTest.c ****                 result = CapSense_ExecuteSnsShortExt(wdgtId, ioSnsId);
1240:Generated_Source\PSoC4/CapSense_SelfTest.c ****             }
1241:Generated_Source\PSoC4/CapSense_SelfTest.c ****         }
1242:Generated_Source\PSoC4/CapSense_SelfTest.c ****     #endif /* (CapSense_ENABLE == CapSense_CSX_EN) */
1243:Generated_Source\PSoC4/CapSense_SelfTest.c **** 
ARM GAS  C:\Users\220036~1\AppData\Local\Temp\ccGySGhB.s 			page 26


1244:Generated_Source\PSoC4/CapSense_SelfTest.c ****     if (CYRET_SUCCESS != result)
1245:Generated_Source\PSoC4/CapSense_SelfTest.c ****     {
1246:Generated_Source\PSoC4/CapSense_SelfTest.c ****         CapSense_UpdateTestResultSnsShort(wdgtId, snsId);
1247:Generated_Source\PSoC4/CapSense_SelfTest.c ****     }
1248:Generated_Source\PSoC4/CapSense_SelfTest.c ****     return result;
1249:Generated_Source\PSoC4/CapSense_SelfTest.c **** }
1250:Generated_Source\PSoC4/CapSense_SelfTest.c **** 
1251:Generated_Source\PSoC4/CapSense_SelfTest.c **** /*******************************************************************************
1252:Generated_Source\PSoC4/CapSense_SelfTest.c **** * Function Name: CapSense_ExecuteSnsShortExt
1253:Generated_Source\PSoC4/CapSense_SelfTest.c **** ****************************************************************************//**
1254:Generated_Source\PSoC4/CapSense_SelfTest.c **** *
1255:Generated_Source\PSoC4/CapSense_SelfTest.c **** * \brief
1256:Generated_Source\PSoC4/CapSense_SelfTest.c **** *  The internal fuction that checks one sensor for shorts on GND/VDD.
1257:Generated_Source\PSoC4/CapSense_SelfTest.c **** *
1258:Generated_Source\PSoC4/CapSense_SelfTest.c **** * \details
1259:Generated_Source\PSoC4/CapSense_SelfTest.c **** *  The function that checks for shorts on GND/VDD of a certain sensor (electrode)
1260:Generated_Source\PSoC4/CapSense_SelfTest.c **** *  for CSD widgets or of Rx or Tx electrode of a certain sensor for CSX widgets.
1261:Generated_Source\PSoC4/CapSense_SelfTest.c **** *  In a case of a shorts detection the function returns failed result.
1262:Generated_Source\PSoC4/CapSense_SelfTest.c **** *  The function proceeds ganged sensors (electrodes).
1263:Generated_Source\PSoC4/CapSense_SelfTest.c **** *
1264:Generated_Source\PSoC4/CapSense_SelfTest.c **** * \param wdgtId
1265:Generated_Source\PSoC4/CapSense_SelfTest.c **** *  Specifies the ID number of the widget to be processed.
1266:Generated_Source\PSoC4/CapSense_SelfTest.c **** *
1267:Generated_Source\PSoC4/CapSense_SelfTest.c **** * \param snsId
1268:Generated_Source\PSoC4/CapSense_SelfTest.c **** *  Specifies the ID number of the sensor (electrode) within the widget to be processed.
1269:Generated_Source\PSoC4/CapSense_SelfTest.c **** *
1270:Generated_Source\PSoC4/CapSense_SelfTest.c **** * \return
1271:Generated_Source\PSoC4/CapSense_SelfTest.c **** *  Returns the status of the test processing:
1272:Generated_Source\PSoC4/CapSense_SelfTest.c **** *  - CYRET_SUCCESS if the electrode of the widget isn't shorted to VDD or GND;
1273:Generated_Source\PSoC4/CapSense_SelfTest.c **** *  - CapSense_TST_SNS_SHORT if the sensor or Rx or Tx electrode
1274:Generated_Source\PSoC4/CapSense_SelfTest.c **** *    is shorted to VDD or GND.
1275:Generated_Source\PSoC4/CapSense_SelfTest.c **** *
1276:Generated_Source\PSoC4/CapSense_SelfTest.c **** *******************************************************************************/
1277:Generated_Source\PSoC4/CapSense_SelfTest.c **** static uint32 CapSense_ExecuteSnsShortExt(uint32 wdgtId, uint32 ioSnsId)
1278:Generated_Source\PSoC4/CapSense_SelfTest.c **** {
1279:Generated_Source\PSoC4/CapSense_SelfTest.c ****     uint32 eltdNum;
1280:Generated_Source\PSoC4/CapSense_SelfTest.c ****     uint32 eltdIndex;
1281:Generated_Source\PSoC4/CapSense_SelfTest.c ****     uint32 result = CYRET_SUCCESS;
1282:Generated_Source\PSoC4/CapSense_SelfTest.c ****     CapSense_FLASH_IO_STRUCT const *ioPtr;
1283:Generated_Source\PSoC4/CapSense_SelfTest.c ****     CapSense_FLASH_SNS_STRUCT const *curFlashSnsPtr;
1284:Generated_Source\PSoC4/CapSense_SelfTest.c **** 
1285:Generated_Source\PSoC4/CapSense_SelfTest.c ****     /* Check ganged sns flag */
1286:Generated_Source\PSoC4/CapSense_SelfTest.c ****     if (CapSense_GANGED_SNS_MASK == (CapSense_dsFlash.wdgtArray[wdgtId].staticConfig & CapSense_GAN
1287:Generated_Source\PSoC4/CapSense_SelfTest.c ****     {
1288:Generated_Source\PSoC4/CapSense_SelfTest.c ****         curFlashSnsPtr = (CapSense_FLASH_SNS_STRUCT const *)CapSense_dsFlash.wdgtArray[wdgtId].ptr2
1289:Generated_Source\PSoC4/CapSense_SelfTest.c ****         curFlashSnsPtr += ioSnsId;
1290:Generated_Source\PSoC4/CapSense_SelfTest.c ****         ioPtr = &CapSense_ioList[curFlashSnsPtr->firstPinId];
1291:Generated_Source\PSoC4/CapSense_SelfTest.c ****         eltdNum = curFlashSnsPtr->numPins;
1292:Generated_Source\PSoC4/CapSense_SelfTest.c ****     }
1293:Generated_Source\PSoC4/CapSense_SelfTest.c ****     else
1294:Generated_Source\PSoC4/CapSense_SelfTest.c ****     {
1295:Generated_Source\PSoC4/CapSense_SelfTest.c ****         ioPtr = (CapSense_FLASH_IO_STRUCT const *)CapSense_dsFlash.wdgtArray[wdgtId].ptr2SnsFlash +
1296:Generated_Source\PSoC4/CapSense_SelfTest.c ****         eltdNum = 1u;
1297:Generated_Source\PSoC4/CapSense_SelfTest.c ****     }
1298:Generated_Source\PSoC4/CapSense_SelfTest.c **** 
1299:Generated_Source\PSoC4/CapSense_SelfTest.c ****     /* Loop through all electrodes of specified sensor */
1300:Generated_Source\PSoC4/CapSense_SelfTest.c ****     for (eltdIndex = 0u; eltdIndex < eltdNum; eltdIndex++)
ARM GAS  C:\Users\220036~1\AppData\Local\Temp\ccGySGhB.s 			page 27


1301:Generated_Source\PSoC4/CapSense_SelfTest.c ****     {
1302:Generated_Source\PSoC4/CapSense_SelfTest.c ****         /* Set electrode to pull up drive mode and check that electrode state is logical 1 */
1303:Generated_Source\PSoC4/CapSense_SelfTest.c ****         CapSense_SetElectrodeDr(ioPtr, CapSense_TST_DR_PIN2VDD);
1304:Generated_Source\PSoC4/CapSense_SelfTest.c ****         CapSense_SetElectrodePc(ioPtr, CapSense_TST_PC_PULLUP);
1305:Generated_Source\PSoC4/CapSense_SelfTest.c ****         if (0uL == CapSense_ReadElectrodeState(ioPtr))
1306:Generated_Source\PSoC4/CapSense_SelfTest.c ****         {
1307:Generated_Source\PSoC4/CapSense_SelfTest.c ****             result = CapSense_TST_SNS_SHORT;
1308:Generated_Source\PSoC4/CapSense_SelfTest.c ****         }
1309:Generated_Source\PSoC4/CapSense_SelfTest.c ****         /* Set electrode to pull down drive mode and check that electrode state is logical 0 */
1310:Generated_Source\PSoC4/CapSense_SelfTest.c ****         CapSense_SetElectrodeDr(ioPtr, CapSense_TST_DR_PIN2GND);
1311:Generated_Source\PSoC4/CapSense_SelfTest.c ****         CapSense_SetElectrodePc(ioPtr, CapSense_TST_PC_PULLDOWN);
1312:Generated_Source\PSoC4/CapSense_SelfTest.c ****         if (0uL != CapSense_ReadElectrodeState(ioPtr))
1313:Generated_Source\PSoC4/CapSense_SelfTest.c ****         {
1314:Generated_Source\PSoC4/CapSense_SelfTest.c ****             result = CapSense_TST_SNS_SHORT;
1315:Generated_Source\PSoC4/CapSense_SelfTest.c ****         }
1316:Generated_Source\PSoC4/CapSense_SelfTest.c ****         /* Revert electrode to default drive mode */
1317:Generated_Source\PSoC4/CapSense_SelfTest.c ****         CapSense_SetElectrodePc(ioPtr, CapSense_TST_PC_HIGHZA);
1318:Generated_Source\PSoC4/CapSense_SelfTest.c **** 
1319:Generated_Source\PSoC4/CapSense_SelfTest.c ****         if (CapSense_TST_SNS_SHORT == result)
1320:Generated_Source\PSoC4/CapSense_SelfTest.c ****         {
1321:Generated_Source\PSoC4/CapSense_SelfTest.c ****             break;
1322:Generated_Source\PSoC4/CapSense_SelfTest.c ****         }
1323:Generated_Source\PSoC4/CapSense_SelfTest.c **** 
1324:Generated_Source\PSoC4/CapSense_SelfTest.c ****         /* Get the next electrode */
1325:Generated_Source\PSoC4/CapSense_SelfTest.c ****         ioPtr++;
1326:Generated_Source\PSoC4/CapSense_SelfTest.c ****     }
1327:Generated_Source\PSoC4/CapSense_SelfTest.c ****     return result;
1328:Generated_Source\PSoC4/CapSense_SelfTest.c **** }
1329:Generated_Source\PSoC4/CapSense_SelfTest.c **** #endif /* (CapSense_ENABLE == CapSense_TST_SNS_SHORT_EN) */
1330:Generated_Source\PSoC4/CapSense_SelfTest.c **** 
1331:Generated_Source\PSoC4/CapSense_SelfTest.c **** #if (CapSense_ENABLE == CapSense_TST_SNS2SNS_SHORT_EN)
1332:Generated_Source\PSoC4/CapSense_SelfTest.c **** /*******************************************************************************
1333:Generated_Source\PSoC4/CapSense_SelfTest.c **** * Function Name: CapSense_CheckSns2SnsShort
1334:Generated_Source\PSoC4/CapSense_SelfTest.c **** ****************************************************************************//**
1335:Generated_Source\PSoC4/CapSense_SelfTest.c **** *
1336:Generated_Source\PSoC4/CapSense_SelfTest.c **** * \brief
1337:Generated_Source\PSoC4/CapSense_SelfTest.c **** *  Checks the specified widget/sensor for shorts to any other CapSense
1338:Generated_Source\PSoC4/CapSense_SelfTest.c **** *  sensors.
1339:Generated_Source\PSoC4/CapSense_SelfTest.c **** *
1340:Generated_Source\PSoC4/CapSense_SelfTest.c **** * \details
1341:Generated_Source\PSoC4/CapSense_SelfTest.c **** *  The function performs the test on the specified sensor to check for a short
1342:Generated_Source\PSoC4/CapSense_SelfTest.c **** *  to other sensors in the Component. The resistance of an electrical short
1343:Generated_Source\PSoC4/CapSense_SelfTest.c **** *  must be less than 1100 Ohm including the series resistors on the sensor for
1344:Generated_Source\PSoC4/CapSense_SelfTest.c **** *  the short to be detected. The CapSense_GetSensorCapacitance()
1345:Generated_Source\PSoC4/CapSense_SelfTest.c **** *  function can be used to check the electrical short with the resistance
1346:Generated_Source\PSoC4/CapSense_SelfTest.c **** *  higher than 1100 Ohm or when the specified ganged sensor consists of two or
1347:Generated_Source\PSoC4/CapSense_SelfTest.c **** *  more electrodes.
1348:Generated_Source\PSoC4/CapSense_SelfTest.c **** *
1349:Generated_Source\PSoC4/CapSense_SelfTest.c **** *  This function performs the following tasks:
1350:Generated_Source\PSoC4/CapSense_SelfTest.c **** *  - If a short is detected, widget ID is stored to the
1351:Generated_Source\PSoC4/CapSense_SelfTest.c **** *    CapSense_P2P_WDGT_ID_VALUE register.
1352:Generated_Source\PSoC4/CapSense_SelfTest.c **** *  - If a short is detected, sensor ID is stored to the
1353:Generated_Source\PSoC4/CapSense_SelfTest.c **** *    CapSense_P2P_SNS_ID_VALUE register.
1354:Generated_Source\PSoC4/CapSense_SelfTest.c **** *  - If a short is detected, CapSense_TST_SNS2SNS_SHORT bit is set
1355:Generated_Source\PSoC4/CapSense_SelfTest.c **** *    in the CapSense_TEST_RESULT_MASK_VALUE register.
1356:Generated_Source\PSoC4/CapSense_SelfTest.c **** *  - If a short is detected, the bit corresponding to widget
1357:Generated_Source\PSoC4/CapSense_SelfTest.c **** *    (CapSense_WDGT_WORKING<Number>_VALUE) is cleared in the
ARM GAS  C:\Users\220036~1\AppData\Local\Temp\ccGySGhB.s 			page 28


1358:Generated_Source\PSoC4/CapSense_SelfTest.c **** *    wdgtWorking register to indicate fault with widget. Once the bit is
1359:Generated_Source\PSoC4/CapSense_SelfTest.c **** *    cleared, the widget is treated as a non-working widget by the high-level
1360:Generated_Source\PSoC4/CapSense_SelfTest.c **** *    functions and further processing are skipped. Restoring the bit
1361:Generated_Source\PSoC4/CapSense_SelfTest.c **** *    corresponding to the widget can be done by application layer to restore
1362:Generated_Source\PSoC4/CapSense_SelfTest.c **** *    the operation of high-level functions.
1363:Generated_Source\PSoC4/CapSense_SelfTest.c **** *  - If CapSense_TST_SNS2SNS_SHORT is already set due to the
1364:Generated_Source\PSoC4/CapSense_SelfTest.c **** *    previously detected fault on any of the sensor, the
1365:Generated_Source\PSoC4/CapSense_SelfTest.c **** *    CapSense_TST_SNS2SNS_SHORT register is not cleared by this
1366:Generated_Source\PSoC4/CapSense_SelfTest.c **** *    function and CapSense_P2P_WDGT_ID_VALUE and
1367:Generated_Source\PSoC4/CapSense_SelfTest.c **** *    CapSense_P2P_SNS_ID_VALUE registers are not updated.
1368:Generated_Source\PSoC4/CapSense_SelfTest.c **** *    For this reason, remember to read details of defective sensor and clear
1369:Generated_Source\PSoC4/CapSense_SelfTest.c **** *    CapSense_TST_SNS2SNS_SHORT prior to calling this function on the
1370:Generated_Source\PSoC4/CapSense_SelfTest.c **** *    same or different sensor.
1371:Generated_Source\PSoC4/CapSense_SelfTest.c **** *
1372:Generated_Source\PSoC4/CapSense_SelfTest.c **** *  This function performs the test on one specific sensor.
1373:Generated_Source\PSoC4/CapSense_SelfTest.c **** *  The CapSense_RunSelfTest() function with the
1374:Generated_Source\PSoC4/CapSense_SelfTest.c **** *  CapSense_TST_SNS2SNS_SHORT mask performs the short test on all the
1375:Generated_Source\PSoC4/CapSense_SelfTest.c **** *  widgets and sensors in the Component. In this case,
1376:Generated_Source\PSoC4/CapSense_SelfTest.c **** *  CapSense_P2P_WDGT_ID_VALUE and
1377:Generated_Source\PSoC4/CapSense_SelfTest.c **** *  CapSense_P2P_SNS_ID_VALUE registers store the widget and sensor ID
1378:Generated_Source\PSoC4/CapSense_SelfTest.c **** *  of the first faulty sensor.
1379:Generated_Source\PSoC4/CapSense_SelfTest.c **** *
1380:Generated_Source\PSoC4/CapSense_SelfTest.c **** * \param widgetId
1381:Generated_Source\PSoC4/CapSense_SelfTest.c **** *  Specifies the ID number of the widget to be processed.
1382:Generated_Source\PSoC4/CapSense_SelfTest.c **** *  A macro for the widget ID can be found in the
1383:Generated_Source\PSoC4/CapSense_SelfTest.c **** *  CapSense Configuration header file defined as
1384:Generated_Source\PSoC4/CapSense_SelfTest.c **** *  CapSense_<WidgetName>_WDGT_ID.
1385:Generated_Source\PSoC4/CapSense_SelfTest.c **** *
1386:Generated_Source\PSoC4/CapSense_SelfTest.c **** * \param sensorId
1387:Generated_Source\PSoC4/CapSense_SelfTest.c **** *  Specifies the ID number of the sensor within the widget.
1388:Generated_Source\PSoC4/CapSense_SelfTest.c **** *  A macro for the sensor ID within the specified widget can be found in
1389:Generated_Source\PSoC4/CapSense_SelfTest.c **** *  the CapSense Configuration header file defined as
1390:Generated_Source\PSoC4/CapSense_SelfTest.c **** *  CapSense_<WidgetName>_SNS<SensorNumber>_ID.
1391:Generated_Source\PSoC4/CapSense_SelfTest.c **** *
1392:Generated_Source\PSoC4/CapSense_SelfTest.c **** * \return
1393:Generated_Source\PSoC4/CapSense_SelfTest.c **** *  Returns a status of the test execution:
1394:Generated_Source\PSoC4/CapSense_SelfTest.c **** *  - CY_RET_SUCCESS - The sensor is not shorted to any other sensor is in
1395:Generated_Source\PSoC4/CapSense_SelfTest.c **** *    working condition.
1396:Generated_Source\PSoC4/CapSense_SelfTest.c **** *  - CapSense_TST_SNS2SNS_SHORT - A short is detected with one or
1397:Generated_Source\PSoC4/CapSense_SelfTest.c **** *    more sensors in the Component.
1398:Generated_Source\PSoC4/CapSense_SelfTest.c **** *  - CapSense_TST_BAD_PARAM - The input parameters are invalid.
1399:Generated_Source\PSoC4/CapSense_SelfTest.c **** *
1400:Generated_Source\PSoC4/CapSense_SelfTest.c **** *******************************************************************************/
1401:Generated_Source\PSoC4/CapSense_SelfTest.c **** uint32 CapSense_CheckSns2SnsShort(uint32 widgetId, uint32 sensorId)
1402:Generated_Source\PSoC4/CapSense_SelfTest.c **** {
1403:Generated_Source\PSoC4/CapSense_SelfTest.c ****     uint32 result = CYRET_SUCCESS;
1404:Generated_Source\PSoC4/CapSense_SelfTest.c **** 
1405:Generated_Source\PSoC4/CapSense_SelfTest.c ****     if ((CapSense_TOTAL_WIDGETS > widgetId) && ((CapSense_GET_SENSOR_COUNT(widgetId)) > sensorId))
1406:Generated_Source\PSoC4/CapSense_SelfTest.c ****     {
1407:Generated_Source\PSoC4/CapSense_SelfTest.c ****         /* Release previously captured HW resources by other mode and capture them for BIST */
1408:Generated_Source\PSoC4/CapSense_SelfTest.c ****         CapSense_SsSwitchSensingMode(CapSense_SENSE_METHOD_BIST_E);
1409:Generated_Source\PSoC4/CapSense_SelfTest.c ****         /* Switch HW resource configuration to sensor to sensor short test */
1410:Generated_Source\PSoC4/CapSense_SelfTest.c ****         CapSense_BistSwitchHwConfig(CapSense_BIST_HW_S2S_SHORT_E);
1411:Generated_Source\PSoC4/CapSense_SelfTest.c ****         /* Execute the test */
1412:Generated_Source\PSoC4/CapSense_SelfTest.c ****         result = CapSense_ExecuteSns2SnsShort(widgetId, sensorId);
1413:Generated_Source\PSoC4/CapSense_SelfTest.c ****     }
1414:Generated_Source\PSoC4/CapSense_SelfTest.c ****     else
ARM GAS  C:\Users\220036~1\AppData\Local\Temp\ccGySGhB.s 			page 29


1415:Generated_Source\PSoC4/CapSense_SelfTest.c ****     {
1416:Generated_Source\PSoC4/CapSense_SelfTest.c ****         result |= CapSense_TST_BAD_PARAM;
1417:Generated_Source\PSoC4/CapSense_SelfTest.c ****     }
1418:Generated_Source\PSoC4/CapSense_SelfTest.c ****     return result;
1419:Generated_Source\PSoC4/CapSense_SelfTest.c **** }
1420:Generated_Source\PSoC4/CapSense_SelfTest.c **** 
1421:Generated_Source\PSoC4/CapSense_SelfTest.c **** /*******************************************************************************
1422:Generated_Source\PSoC4/CapSense_SelfTest.c **** * Function Name: CapSense_CheckAllSns2SnsShort
1423:Generated_Source\PSoC4/CapSense_SelfTest.c **** ****************************************************************************//**
1424:Generated_Source\PSoC4/CapSense_SelfTest.c **** *
1425:Generated_Source\PSoC4/CapSense_SelfTest.c **** * \brief
1426:Generated_Source\PSoC4/CapSense_SelfTest.c **** *  The internal fuction that checks for shorts between all of
1427:Generated_Source\PSoC4/CapSense_SelfTest.c **** *  CapSense sensors.
1428:Generated_Source\PSoC4/CapSense_SelfTest.c **** *
1429:Generated_Source\PSoC4/CapSense_SelfTest.c **** * \details
1430:Generated_Source\PSoC4/CapSense_SelfTest.c **** *  The function checks for all sensor shorts between them by using
1431:Generated_Source\PSoC4/CapSense_SelfTest.c **** *  CapSense_ExecuteSns2SnsShort.
1432:Generated_Source\PSoC4/CapSense_SelfTest.c **** *  The function returns the status and updates testResultMask and
1433:Generated_Source\PSoC4/CapSense_SelfTest.c **** *  wdgtWorking register in a case of any shorts detection.
1434:Generated_Source\PSoC4/CapSense_SelfTest.c **** *
1435:Generated_Source\PSoC4/CapSense_SelfTest.c **** * \return
1436:Generated_Source\PSoC4/CapSense_SelfTest.c **** *  Returns the status of the test processing:
1437:Generated_Source\PSoC4/CapSense_SelfTest.c **** *  - CYRET_SUCCESS - All the sensors of all the widgets aren't shorted to
1438:Generated_Source\PSoC4/CapSense_SelfTest.c **** *    any other sensors.
1439:Generated_Source\PSoC4/CapSense_SelfTest.c **** *  - CapSense_TST_SNS_SHORT - Any sensor of any widget is
1440:Generated_Source\PSoC4/CapSense_SelfTest.c **** *    shorted on any other sensor.
1441:Generated_Source\PSoC4/CapSense_SelfTest.c **** *
1442:Generated_Source\PSoC4/CapSense_SelfTest.c **** *******************************************************************************/
1443:Generated_Source\PSoC4/CapSense_SelfTest.c **** static uint32 CapSense_CheckAllSns2SnsShort(void)
1444:Generated_Source\PSoC4/CapSense_SelfTest.c **** {
1445:Generated_Source\PSoC4/CapSense_SelfTest.c ****     uint32 wdgtIndex;
1446:Generated_Source\PSoC4/CapSense_SelfTest.c ****     uint32 snsIndex;
1447:Generated_Source\PSoC4/CapSense_SelfTest.c ****     uint32 result = CYRET_SUCCESS;
1448:Generated_Source\PSoC4/CapSense_SelfTest.c ****     uint32 resultWidget = CYRET_SUCCESS;
1449:Generated_Source\PSoC4/CapSense_SelfTest.c **** 
1450:Generated_Source\PSoC4/CapSense_SelfTest.c ****     /* Releasing of previously captured HW resources by other mode was done in RunSelfTest function
1451:Generated_Source\PSoC4/CapSense_SelfTest.c ****     /* Switch HW resource configuration to sensor to sensor to sensor short test */
1452:Generated_Source\PSoC4/CapSense_SelfTest.c ****     CapSense_BistSwitchHwConfig(CapSense_BIST_HW_S2S_SHORT_E);
1453:Generated_Source\PSoC4/CapSense_SelfTest.c **** 
1454:Generated_Source\PSoC4/CapSense_SelfTest.c ****     /* Execute the test */
1455:Generated_Source\PSoC4/CapSense_SelfTest.c ****     for (wdgtIndex = 0uL; wdgtIndex < CapSense_TOTAL_WIDGETS; wdgtIndex++)
1456:Generated_Source\PSoC4/CapSense_SelfTest.c ****     {
1457:Generated_Source\PSoC4/CapSense_SelfTest.c ****         resultWidget = CYRET_SUCCESS;
1458:Generated_Source\PSoC4/CapSense_SelfTest.c ****         for (snsIndex = 0u; snsIndex < (CapSense_GET_SENSOR_COUNT(wdgtIndex)); snsIndex++)
1459:Generated_Source\PSoC4/CapSense_SelfTest.c ****         {
1460:Generated_Source\PSoC4/CapSense_SelfTest.c ****             resultWidget = CapSense_ExecuteSns2SnsShort(wdgtIndex, snsIndex);
1461:Generated_Source\PSoC4/CapSense_SelfTest.c ****             if (CYRET_SUCCESS != resultWidget)
1462:Generated_Source\PSoC4/CapSense_SelfTest.c ****             {
1463:Generated_Source\PSoC4/CapSense_SelfTest.c ****                 break;
1464:Generated_Source\PSoC4/CapSense_SelfTest.c ****             }
1465:Generated_Source\PSoC4/CapSense_SelfTest.c ****         }
1466:Generated_Source\PSoC4/CapSense_SelfTest.c ****         result |= resultWidget;
1467:Generated_Source\PSoC4/CapSense_SelfTest.c ****     }
1468:Generated_Source\PSoC4/CapSense_SelfTest.c ****     return result;
1469:Generated_Source\PSoC4/CapSense_SelfTest.c **** }
1470:Generated_Source\PSoC4/CapSense_SelfTest.c **** 
1471:Generated_Source\PSoC4/CapSense_SelfTest.c **** /*******************************************************************************
ARM GAS  C:\Users\220036~1\AppData\Local\Temp\ccGySGhB.s 			page 30


1472:Generated_Source\PSoC4/CapSense_SelfTest.c **** * Function Name: CapSense_UpdateTestResultSns2SnsShort
1473:Generated_Source\PSoC4/CapSense_SelfTest.c **** ****************************************************************************//**
1474:Generated_Source\PSoC4/CapSense_SelfTest.c **** * \brief
1475:Generated_Source\PSoC4/CapSense_SelfTest.c **** *  The internal fuction that updates self-test data structure and
1476:Generated_Source\PSoC4/CapSense_SelfTest.c **** *  widgetWorking register.
1477:Generated_Source\PSoC4/CapSense_SelfTest.c **** *
1478:Generated_Source\PSoC4/CapSense_SelfTest.c **** * \details
1479:Generated_Source\PSoC4/CapSense_SelfTest.c **** *  The function resets a corresponding bit in widgetWorking register,
1480:Generated_Source\PSoC4/CapSense_SelfTest.c **** *  checks TestResultMask for CapSense_TST_SNS2SNS_SHORT bit and
1481:Generated_Source\PSoC4/CapSense_SelfTest.c **** *  if it was not setted to 1 sets it and memorizes wdgtId and snsId
1482:Generated_Source\PSoC4/CapSense_SelfTest.c **** *  in corresponding registers of the SefTest data structure.
1483:Generated_Source\PSoC4/CapSense_SelfTest.c **** *
1484:Generated_Source\PSoC4/CapSense_SelfTest.c **** * \param wdgtId
1485:Generated_Source\PSoC4/CapSense_SelfTest.c **** *  Specifies the ID number of the widget to be processed.
1486:Generated_Source\PSoC4/CapSense_SelfTest.c **** *
1487:Generated_Source\PSoC4/CapSense_SelfTest.c **** * \param snsId
1488:Generated_Source\PSoC4/CapSense_SelfTest.c **** *  Specifies the ID number of the sensor within the widget which
1489:Generated_Source\PSoC4/CapSense_SelfTest.c **** *  will be processed.
1490:Generated_Source\PSoC4/CapSense_SelfTest.c **** *******************************************************************************/
1491:Generated_Source\PSoC4/CapSense_SelfTest.c **** static void CapSense_UpdateTestResultSns2SnsShort(uint32 wdgtId, uint32 snsId)
1492:Generated_Source\PSoC4/CapSense_SelfTest.c **** {
 180              		.loc 1 1492 0
 181              		.cfi_startproc
 182              		@ args = 0, pretend = 0, frame = 0
 183              		@ frame_needed = 0, uses_anonymous_args = 0
 184              	.LVL21:
 185 0000 30B5     		push	{r4, r5, lr}
 186              		.cfi_def_cfa_offset 12
 187              		.cfi_offset 4, -12
 188              		.cfi_offset 5, -8
 189              		.cfi_offset 14, -4
1493:Generated_Source\PSoC4/CapSense_SelfTest.c ****     CapSense_dsRam.wdgtWorking[CapSense_GET_WDGT_STATUS_INDEX(wdgtId)] &=
 190              		.loc 1 1493 0
 191 0002 4309     		lsrs	r3, r0, #5
1494:Generated_Source\PSoC4/CapSense_SelfTest.c ****                                      ~(CapSense_GET_WDGT_STATUS_MASK(wdgtId));
 192              		.loc 1 1494 0
 193 0004 1F24     		movs	r4, #31
 194 0006 0440     		ands	r4, r0
 195 0008 0122     		movs	r2, #1
 196 000a A240     		lsls	r2, r2, r4
1493:Generated_Source\PSoC4/CapSense_SelfTest.c ****     CapSense_dsRam.wdgtWorking[CapSense_GET_WDGT_STATUS_INDEX(wdgtId)] &=
 197              		.loc 1 1493 0
 198 000c 094C     		ldr	r4, .L12
 199 000e 0433     		adds	r3, r3, #4
 200 0010 9B00     		lsls	r3, r3, #2
 201 0012 E318     		adds	r3, r4, r3
 202 0014 5D68     		ldr	r5, [r3, #4]
 203 0016 9543     		bics	r5, r2
 204 0018 5D60     		str	r5, [r3, #4]
1495:Generated_Source\PSoC4/CapSense_SelfTest.c ****     /* Write to self-test data structure wdgtId and snsId of the first shorted sensor2sensor */
1496:Generated_Source\PSoC4/CapSense_SelfTest.c ****     if (0uL == (CapSense_dsRam.selfTest.testResultMask & CapSense_TST_SNS2SNS_SHORT))
 205              		.loc 1 1496 0
 206 001a E36D     		ldr	r3, [r4, #92]
 207 001c 9A05     		lsls	r2, r3, #22
 208 001e 08D4     		bmi	.L10
1497:Generated_Source\PSoC4/CapSense_SelfTest.c ****     {
1498:Generated_Source\PSoC4/CapSense_SelfTest.c ****         CapSense_dsRam.selfTest.testResultMask |= CapSense_TST_SNS2SNS_SHORT;
ARM GAS  C:\Users\220036~1\AppData\Local\Temp\ccGySGhB.s 			page 31


 209              		.loc 1 1498 0
 210 0020 2200     		movs	r2, r4
 211 0022 8024     		movs	r4, #128
 212 0024 A400     		lsls	r4, r4, #2
 213 0026 2343     		orrs	r3, r4
 214 0028 D365     		str	r3, [r2, #92]
1499:Generated_Source\PSoC4/CapSense_SelfTest.c ****         CapSense_dsRam.selfTest.p2pWdgtId = (uint8)wdgtId;
 215              		.loc 1 1499 0
 216 002a 7123     		movs	r3, #113
 217 002c D054     		strb	r0, [r2, r3]
1500:Generated_Source\PSoC4/CapSense_SelfTest.c ****         CapSense_dsRam.selfTest.p2pSnsId = (uint8)snsId;
 218              		.loc 1 1500 0
 219 002e 0133     		adds	r3, r3, #1
 220 0030 D154     		strb	r1, [r2, r3]
 221              	.L10:
1501:Generated_Source\PSoC4/CapSense_SelfTest.c ****     }
1502:Generated_Source\PSoC4/CapSense_SelfTest.c **** }
 222              		.loc 1 1502 0
 223              		@ sp needed
 224 0032 30BD     		pop	{r4, r5, pc}
 225              	.L13:
 226              		.align	2
 227              	.L12:
 228 0034 00000000 		.word	CapSense_dsRam
 229              		.cfi_endproc
 230              	.LFE19:
 231              		.size	CapSense_UpdateTestResultSns2SnsShort, .-CapSense_UpdateTestResultSns2SnsShort
 232              		.section	.text.CapSense_BistEnableShieldElectrodes,"ax",%progbits
 233              		.align	2
 234              		.code	16
 235              		.thumb_func
 236              		.type	CapSense_BistEnableShieldElectrodes, %function
 237              	CapSense_BistEnableShieldElectrodes:
 238              	.LFB32:
1503:Generated_Source\PSoC4/CapSense_SelfTest.c **** 
1504:Generated_Source\PSoC4/CapSense_SelfTest.c **** /*******************************************************************************
1505:Generated_Source\PSoC4/CapSense_SelfTest.c **** * Function Name: CapSense_ExecuteSns2SnsShort
1506:Generated_Source\PSoC4/CapSense_SelfTest.c **** ****************************************************************************//**
1507:Generated_Source\PSoC4/CapSense_SelfTest.c **** *
1508:Generated_Source\PSoC4/CapSense_SelfTest.c **** * \brief
1509:Generated_Source\PSoC4/CapSense_SelfTest.c **** *  The internal fuction that checks one sensor for shorts to another sensor.
1510:Generated_Source\PSoC4/CapSense_SelfTest.c **** *
1511:Generated_Source\PSoC4/CapSense_SelfTest.c **** * \details
1512:Generated_Source\PSoC4/CapSense_SelfTest.c **** *  The function that checks for shorts to another sensor of a certain sensor
1513:Generated_Source\PSoC4/CapSense_SelfTest.c **** *  for CSD widgets or Rx and Tx electrodes of a certain sensor for CSX widgets.
1514:Generated_Source\PSoC4/CapSense_SelfTest.c **** *  The function uses CapSense_ExecuteSnsShortExt.
1515:Generated_Source\PSoC4/CapSense_SelfTest.c **** *  In a case of a shorts detection the function returns failed result.
1516:Generated_Source\PSoC4/CapSense_SelfTest.c **** *
1517:Generated_Source\PSoC4/CapSense_SelfTest.c **** * \param wdgtId
1518:Generated_Source\PSoC4/CapSense_SelfTest.c **** *  Specifies the ID number of the widget to be processed.
1519:Generated_Source\PSoC4/CapSense_SelfTest.c **** *
1520:Generated_Source\PSoC4/CapSense_SelfTest.c **** * \param snsId
1521:Generated_Source\PSoC4/CapSense_SelfTest.c **** *  Specifies the ID number of the sensor within the widget to be processed.
1522:Generated_Source\PSoC4/CapSense_SelfTest.c **** *
1523:Generated_Source\PSoC4/CapSense_SelfTest.c **** * \return
1524:Generated_Source\PSoC4/CapSense_SelfTest.c **** *  Returns the status of the test processing:
1525:Generated_Source\PSoC4/CapSense_SelfTest.c **** *  - CYRET_SUCCESS if the electrode of the widget isn't shorted to another sensor;
ARM GAS  C:\Users\220036~1\AppData\Local\Temp\ccGySGhB.s 			page 32


1526:Generated_Source\PSoC4/CapSense_SelfTest.c **** *  - CapSense_TST_SNS2SNS_SHORT if the sensor is shorted to another sensor.
1527:Generated_Source\PSoC4/CapSense_SelfTest.c **** *
1528:Generated_Source\PSoC4/CapSense_SelfTest.c **** *******************************************************************************/
1529:Generated_Source\PSoC4/CapSense_SelfTest.c **** static uint32 CapSense_ExecuteSns2SnsShort(uint32 wdgtId, uint32 snsId)
1530:Generated_Source\PSoC4/CapSense_SelfTest.c **** {
1531:Generated_Source\PSoC4/CapSense_SelfTest.c ****     uint32 ioSnsId;
1532:Generated_Source\PSoC4/CapSense_SelfTest.c ****     uint32 result = CYRET_SUCCESS;
1533:Generated_Source\PSoC4/CapSense_SelfTest.c **** 
1534:Generated_Source\PSoC4/CapSense_SelfTest.c ****     #if (CapSense_ENABLE == CapSense_CSD_CSX_EN)
1535:Generated_Source\PSoC4/CapSense_SelfTest.c ****         /* For CSX widgets get an index of Rx electrode, for CSD widgets an electrode index is the 
1536:Generated_Source\PSoC4/CapSense_SelfTest.c ****         if (CapSense_SENSE_METHOD_CSX_E == CapSense_GET_SENSE_METHOD(&CapSense_dsFlash.wdgtArray[wd
1537:Generated_Source\PSoC4/CapSense_SelfTest.c ****         {
1538:Generated_Source\PSoC4/CapSense_SelfTest.c ****             ioSnsId = snsId / CapSense_dsFlash.wdgtArray[wdgtId].numRows;
1539:Generated_Source\PSoC4/CapSense_SelfTest.c ****         }
1540:Generated_Source\PSoC4/CapSense_SelfTest.c ****         else
1541:Generated_Source\PSoC4/CapSense_SelfTest.c ****         {
1542:Generated_Source\PSoC4/CapSense_SelfTest.c ****             ioSnsId = snsId;
1543:Generated_Source\PSoC4/CapSense_SelfTest.c ****         }
1544:Generated_Source\PSoC4/CapSense_SelfTest.c ****     #elif (CapSense_ENABLE == CapSense_CSX_EN)
1545:Generated_Source\PSoC4/CapSense_SelfTest.c ****         ioSnsId = snsId / CapSense_dsFlash.wdgtArray[wdgtId].numRows;
1546:Generated_Source\PSoC4/CapSense_SelfTest.c ****     #else
1547:Generated_Source\PSoC4/CapSense_SelfTest.c ****         ioSnsId = snsId;
1548:Generated_Source\PSoC4/CapSense_SelfTest.c ****     #endif
1549:Generated_Source\PSoC4/CapSense_SelfTest.c **** 
1550:Generated_Source\PSoC4/CapSense_SelfTest.c ****     result = CapSense_ExecuteSns2SnsShortExt(wdgtId, ioSnsId);
1551:Generated_Source\PSoC4/CapSense_SelfTest.c **** 
1552:Generated_Source\PSoC4/CapSense_SelfTest.c ****     /* For CSX widgets get an index of Tx electrode and repeat the test */
1553:Generated_Source\PSoC4/CapSense_SelfTest.c ****     #if (CapSense_ENABLE == CapSense_CSX_EN)
1554:Generated_Source\PSoC4/CapSense_SelfTest.c ****         if (CYRET_SUCCESS == result)
1555:Generated_Source\PSoC4/CapSense_SelfTest.c ****         {
1556:Generated_Source\PSoC4/CapSense_SelfTest.c ****             if (CapSense_SENSE_METHOD_CSX_E == CapSense_GET_SENSE_METHOD(&CapSense_dsFlash.wdgtArra
1557:Generated_Source\PSoC4/CapSense_SelfTest.c ****             {
1558:Generated_Source\PSoC4/CapSense_SelfTest.c ****                 ioSnsId = (uint32)(snsId % CapSense_dsFlash.wdgtArray[wdgtId].numRows) +
1559:Generated_Source\PSoC4/CapSense_SelfTest.c ****                     (uint32)CapSense_dsFlash.wdgtArray[wdgtId].numCols;
1560:Generated_Source\PSoC4/CapSense_SelfTest.c ****                 result = CapSense_ExecuteSns2SnsShortExt(wdgtId, ioSnsId);
1561:Generated_Source\PSoC4/CapSense_SelfTest.c ****             }
1562:Generated_Source\PSoC4/CapSense_SelfTest.c ****         }
1563:Generated_Source\PSoC4/CapSense_SelfTest.c ****     #endif /* (CapSense_ENABLE == CapSense_CSX_EN) */
1564:Generated_Source\PSoC4/CapSense_SelfTest.c **** 
1565:Generated_Source\PSoC4/CapSense_SelfTest.c ****     if (CYRET_SUCCESS != result)
1566:Generated_Source\PSoC4/CapSense_SelfTest.c ****     {
1567:Generated_Source\PSoC4/CapSense_SelfTest.c ****         CapSense_UpdateTestResultSns2SnsShort(wdgtId, snsId);
1568:Generated_Source\PSoC4/CapSense_SelfTest.c ****     }
1569:Generated_Source\PSoC4/CapSense_SelfTest.c ****     return result;
1570:Generated_Source\PSoC4/CapSense_SelfTest.c **** }
1571:Generated_Source\PSoC4/CapSense_SelfTest.c **** 
1572:Generated_Source\PSoC4/CapSense_SelfTest.c **** /*******************************************************************************
1573:Generated_Source\PSoC4/CapSense_SelfTest.c **** * Function Name: CapSense_ExecuteSns2SnsShortExt
1574:Generated_Source\PSoC4/CapSense_SelfTest.c **** ****************************************************************************//**
1575:Generated_Source\PSoC4/CapSense_SelfTest.c **** *
1576:Generated_Source\PSoC4/CapSense_SelfTest.c **** * \brief
1577:Generated_Source\PSoC4/CapSense_SelfTest.c **** *  The internal fuction that checks one sensor for shorts to another sensor.
1578:Generated_Source\PSoC4/CapSense_SelfTest.c **** *
1579:Generated_Source\PSoC4/CapSense_SelfTest.c **** * \details
1580:Generated_Source\PSoC4/CapSense_SelfTest.c **** *  The function that checks for shorts to another sensor of a certain sensor(electrode)
1581:Generated_Source\PSoC4/CapSense_SelfTest.c **** *  for CSD widgets or of Rx or Tx electrode of a certain sensor for CSX widgets.
1582:Generated_Source\PSoC4/CapSense_SelfTest.c **** *  In a case of a shorts detection the function returns failed result.
ARM GAS  C:\Users\220036~1\AppData\Local\Temp\ccGySGhB.s 			page 33


1583:Generated_Source\PSoC4/CapSense_SelfTest.c **** *  The function proceeds ganged sensors(electrodes).
1584:Generated_Source\PSoC4/CapSense_SelfTest.c **** *
1585:Generated_Source\PSoC4/CapSense_SelfTest.c **** * \param wdgtId
1586:Generated_Source\PSoC4/CapSense_SelfTest.c **** *  Specifies the ID number of the widget to be processed.
1587:Generated_Source\PSoC4/CapSense_SelfTest.c **** *
1588:Generated_Source\PSoC4/CapSense_SelfTest.c **** * \param snsId
1589:Generated_Source\PSoC4/CapSense_SelfTest.c **** *  Specifies the ID number of the sensor within the widget to be processed.
1590:Generated_Source\PSoC4/CapSense_SelfTest.c **** *
1591:Generated_Source\PSoC4/CapSense_SelfTest.c **** * \return
1592:Generated_Source\PSoC4/CapSense_SelfTest.c **** *  Returns the status of the test processing:
1593:Generated_Source\PSoC4/CapSense_SelfTest.c **** *  - CYRET_SUCCESS if the electrode of the widget isn't shorted to another sensor;
1594:Generated_Source\PSoC4/CapSense_SelfTest.c **** *  - CapSense_TST_SNS2SNS_SHORT if the sensor or Rx or Tx electrode
1595:Generated_Source\PSoC4/CapSense_SelfTest.c **** *    is shorted to another sensor.
1596:Generated_Source\PSoC4/CapSense_SelfTest.c **** *
1597:Generated_Source\PSoC4/CapSense_SelfTest.c **** *******************************************************************************/
1598:Generated_Source\PSoC4/CapSense_SelfTest.c **** static uint32 CapSense_ExecuteSns2SnsShortExt(uint32 wdgtId, uint32 ioSnsId)
1599:Generated_Source\PSoC4/CapSense_SelfTest.c **** {
1600:Generated_Source\PSoC4/CapSense_SelfTest.c ****     uint32 eltdNum;
1601:Generated_Source\PSoC4/CapSense_SelfTest.c ****     uint32 eltdIndex;
1602:Generated_Source\PSoC4/CapSense_SelfTest.c ****     uint32 result = CYRET_SUCCESS;
1603:Generated_Source\PSoC4/CapSense_SelfTest.c ****     CapSense_FLASH_IO_STRUCT const *ioPtr;
1604:Generated_Source\PSoC4/CapSense_SelfTest.c ****     CapSense_FLASH_SNS_STRUCT const *curFlashSnsPtr;
1605:Generated_Source\PSoC4/CapSense_SelfTest.c **** 
1606:Generated_Source\PSoC4/CapSense_SelfTest.c ****     /* Check ganged sns flag */
1607:Generated_Source\PSoC4/CapSense_SelfTest.c ****     if (CapSense_GANGED_SNS_MASK == (CapSense_dsFlash.wdgtArray[wdgtId].staticConfig & CapSense_GAN
1608:Generated_Source\PSoC4/CapSense_SelfTest.c ****     {
1609:Generated_Source\PSoC4/CapSense_SelfTest.c ****         curFlashSnsPtr = (CapSense_FLASH_SNS_STRUCT const *)CapSense_dsFlash.wdgtArray[wdgtId].ptr2
1610:Generated_Source\PSoC4/CapSense_SelfTest.c ****         curFlashSnsPtr += ioSnsId;
1611:Generated_Source\PSoC4/CapSense_SelfTest.c ****         ioPtr = &CapSense_ioList[curFlashSnsPtr->firstPinId];
1612:Generated_Source\PSoC4/CapSense_SelfTest.c ****         eltdNum = curFlashSnsPtr->numPins;
1613:Generated_Source\PSoC4/CapSense_SelfTest.c ****     }
1614:Generated_Source\PSoC4/CapSense_SelfTest.c ****     else
1615:Generated_Source\PSoC4/CapSense_SelfTest.c ****     {
1616:Generated_Source\PSoC4/CapSense_SelfTest.c ****         ioPtr = (CapSense_FLASH_IO_STRUCT const *)CapSense_dsFlash.wdgtArray[wdgtId].ptr2SnsFlash +
1617:Generated_Source\PSoC4/CapSense_SelfTest.c ****         eltdNum = 1uL;
1618:Generated_Source\PSoC4/CapSense_SelfTest.c ****     }
1619:Generated_Source\PSoC4/CapSense_SelfTest.c **** 
1620:Generated_Source\PSoC4/CapSense_SelfTest.c ****     /* Loop through all electrodes of specified sensor and set pull up drive mode */
1621:Generated_Source\PSoC4/CapSense_SelfTest.c ****     for (eltdIndex = 0uL; eltdIndex < eltdNum; eltdIndex++)
1622:Generated_Source\PSoC4/CapSense_SelfTest.c ****     {
1623:Generated_Source\PSoC4/CapSense_SelfTest.c ****         /* Set electrode to pull up drive mode and check that electrode state is logical 1 */
1624:Generated_Source\PSoC4/CapSense_SelfTest.c ****         CapSense_SetElectrodeDr(ioPtr + eltdIndex, CapSense_TST_DR_PIN2VDD);
1625:Generated_Source\PSoC4/CapSense_SelfTest.c ****         CapSense_SetElectrodePc(ioPtr + eltdIndex, CapSense_TST_PC_PULLUP);
1626:Generated_Source\PSoC4/CapSense_SelfTest.c **** 
1627:Generated_Source\PSoC4/CapSense_SelfTest.c ****         if (0uL == CapSense_ReadElectrodeState(ioPtr + eltdIndex))
1628:Generated_Source\PSoC4/CapSense_SelfTest.c ****         {
1629:Generated_Source\PSoC4/CapSense_SelfTest.c ****             result = CapSense_TST_SNS2SNS_SHORT;
1630:Generated_Source\PSoC4/CapSense_SelfTest.c ****             break;
1631:Generated_Source\PSoC4/CapSense_SelfTest.c ****         }
1632:Generated_Source\PSoC4/CapSense_SelfTest.c **** 
1633:Generated_Source\PSoC4/CapSense_SelfTest.c ****         /* Revert electrode to default drive mode */
1634:Generated_Source\PSoC4/CapSense_SelfTest.c ****         CapSense_SetElectrodeDr(ioPtr + eltdIndex, CapSense_TST_DR_PIN2GND);
1635:Generated_Source\PSoC4/CapSense_SelfTest.c ****         CapSense_SetElectrodePc(ioPtr + eltdIndex, CapSense_TST_PC_STRONG);
1636:Generated_Source\PSoC4/CapSense_SelfTest.c ****     }
1637:Generated_Source\PSoC4/CapSense_SelfTest.c **** 
1638:Generated_Source\PSoC4/CapSense_SelfTest.c ****     return(result);
1639:Generated_Source\PSoC4/CapSense_SelfTest.c **** }
ARM GAS  C:\Users\220036~1\AppData\Local\Temp\ccGySGhB.s 			page 34


1640:Generated_Source\PSoC4/CapSense_SelfTest.c **** #endif /* (CapSense_ENABLE == CapSense_TST_SNS2SNS_SHORT_EN) */
1641:Generated_Source\PSoC4/CapSense_SelfTest.c **** 
1642:Generated_Source\PSoC4/CapSense_SelfTest.c **** #if (CapSense_ENABLE == CapSense_TST_SHORT_GROUP_EN)
1643:Generated_Source\PSoC4/CapSense_SelfTest.c **** 
1644:Generated_Source\PSoC4/CapSense_SelfTest.c **** /*******************************************************************************
1645:Generated_Source\PSoC4/CapSense_SelfTest.c **** * Function Name: CapSense_ReadElectrodeState
1646:Generated_Source\PSoC4/CapSense_SelfTest.c **** ****************************************************************************//**
1647:Generated_Source\PSoC4/CapSense_SelfTest.c **** *
1648:Generated_Source\PSoC4/CapSense_SelfTest.c **** * \brief
1649:Generated_Source\PSoC4/CapSense_SelfTest.c **** *  The internal function that reds a certain electrode state.
1650:Generated_Source\PSoC4/CapSense_SelfTest.c **** *
1651:Generated_Source\PSoC4/CapSense_SelfTest.c **** * \details
1652:Generated_Source\PSoC4/CapSense_SelfTest.c **** *  The function activates an input buffer for the specified electrode and reads
1653:Generated_Source\PSoC4/CapSense_SelfTest.c **** *  the correspondent input bit. After that it disables the input buffer.
1654:Generated_Source\PSoC4/CapSense_SelfTest.c **** *
1655:Generated_Source\PSoC4/CapSense_SelfTest.c **** * \param *ioPtr
1656:Generated_Source\PSoC4/CapSense_SelfTest.c **** *  A pointer to IO data structure of the specified electrode.
1657:Generated_Source\PSoC4/CapSense_SelfTest.c **** *
1658:Generated_Source\PSoC4/CapSense_SelfTest.c **** * \return
1659:Generated_Source\PSoC4/CapSense_SelfTest.c **** *  Returns the state of the input buffer of the electrode (0 or non 0).
1660:Generated_Source\PSoC4/CapSense_SelfTest.c **** *
1661:Generated_Source\PSoC4/CapSense_SelfTest.c **** *******************************************************************************/
1662:Generated_Source\PSoC4/CapSense_SelfTest.c **** static uint32 CapSense_ReadElectrodeState(CapSense_FLASH_IO_STRUCT const *ioPtr)
1663:Generated_Source\PSoC4/CapSense_SelfTest.c **** {
1664:Generated_Source\PSoC4/CapSense_SelfTest.c ****     uint32 newRegisterValue;
1665:Generated_Source\PSoC4/CapSense_SelfTest.c ****     uint8  interruptState;
1666:Generated_Source\PSoC4/CapSense_SelfTest.c ****     uint32 result;
1667:Generated_Source\PSoC4/CapSense_SelfTest.c **** 
1668:Generated_Source\PSoC4/CapSense_SelfTest.c ****     /* Enable the input buffer for the specified electrode */
1669:Generated_Source\PSoC4/CapSense_SelfTest.c ****     interruptState = CyEnterCriticalSection();
1670:Generated_Source\PSoC4/CapSense_SelfTest.c ****     newRegisterValue = CY_GET_REG32(ioPtr->pc2Ptr);
1671:Generated_Source\PSoC4/CapSense_SelfTest.c ****     newRegisterValue &= ~(ioPtr->mask);
1672:Generated_Source\PSoC4/CapSense_SelfTest.c ****     CY_SET_REG32(ioPtr->pc2Ptr, newRegisterValue);
1673:Generated_Source\PSoC4/CapSense_SelfTest.c ****     CyExitCriticalSection(interruptState);
1674:Generated_Source\PSoC4/CapSense_SelfTest.c **** 
1675:Generated_Source\PSoC4/CapSense_SelfTest.c ****     /* Read the bit from the IO pad state register (PS) */
1676:Generated_Source\PSoC4/CapSense_SelfTest.c ****     result = CY_GET_REG32(ioPtr->psPtr) & ioPtr->mask;
1677:Generated_Source\PSoC4/CapSense_SelfTest.c **** 
1678:Generated_Source\PSoC4/CapSense_SelfTest.c ****     /* Disable the input buffer for this pin (set PC2 bit to logic 1) */
1679:Generated_Source\PSoC4/CapSense_SelfTest.c ****     interruptState = CyEnterCriticalSection();
1680:Generated_Source\PSoC4/CapSense_SelfTest.c ****     newRegisterValue = CY_GET_REG32(ioPtr->pc2Ptr);
1681:Generated_Source\PSoC4/CapSense_SelfTest.c ****     newRegisterValue |= ioPtr->mask;
1682:Generated_Source\PSoC4/CapSense_SelfTest.c ****     CY_SET_REG32(ioPtr->pc2Ptr, newRegisterValue);
1683:Generated_Source\PSoC4/CapSense_SelfTest.c ****     CyExitCriticalSection(interruptState);
1684:Generated_Source\PSoC4/CapSense_SelfTest.c **** 
1685:Generated_Source\PSoC4/CapSense_SelfTest.c ****     return(result);
1686:Generated_Source\PSoC4/CapSense_SelfTest.c **** }
1687:Generated_Source\PSoC4/CapSense_SelfTest.c **** #endif /* (CapSense_ENABLE == CapSense_TST_SHORT_GROUP_EN) */
1688:Generated_Source\PSoC4/CapSense_SelfTest.c **** 
1689:Generated_Source\PSoC4/CapSense_SelfTest.c **** #if (CapSense_ENABLE == CapSense_TST_EXTERNAL_CAP_EN)
1690:Generated_Source\PSoC4/CapSense_SelfTest.c **** /*******************************************************************************
1691:Generated_Source\PSoC4/CapSense_SelfTest.c **** * Function Name: CapSense_GetExtCapCapacitance
1692:Generated_Source\PSoC4/CapSense_SelfTest.c **** ****************************************************************************//**
1693:Generated_Source\PSoC4/CapSense_SelfTest.c **** *
1694:Generated_Source\PSoC4/CapSense_SelfTest.c **** * \brief
1695:Generated_Source\PSoC4/CapSense_SelfTest.c **** *  Measures the capacitance of the specified external capacitor.
1696:Generated_Source\PSoC4/CapSense_SelfTest.c **** *
ARM GAS  C:\Users\220036~1\AppData\Local\Temp\ccGySGhB.s 			page 35


1697:Generated_Source\PSoC4/CapSense_SelfTest.c **** * \details
1698:Generated_Source\PSoC4/CapSense_SelfTest.c **** *  The function measures the capacitance of the specified external capacitor
1699:Generated_Source\PSoC4/CapSense_SelfTest.c **** *  such as Cmod and returns the result, alternatively the result is stored in
1700:Generated_Source\PSoC4/CapSense_SelfTest.c **** *  the CapSense_EXT_CAP<EXT_CAP_ID>_VALUE register in data structure.
1701:Generated_Source\PSoC4/CapSense_SelfTest.c **** *
1702:Generated_Source\PSoC4/CapSense_SelfTest.c **** *  The measurable capacitance range using this function is
1703:Generated_Source\PSoC4/CapSense_SelfTest.c **** *  from 200pF to 60,000pF with measurement accuracy of 10%.
1704:Generated_Source\PSoC4/CapSense_SelfTest.c **** *
1705:Generated_Source\PSoC4/CapSense_SelfTest.c **** *  This test can be executed for all the external capacitors at once using
1706:Generated_Source\PSoC4/CapSense_SelfTest.c **** *  the CapSense_RunSelfTest() function with the
1707:Generated_Source\PSoC4/CapSense_SelfTest.c **** *  CapSense_TST_EXTERNAL_CAP mask.
1708:Generated_Source\PSoC4/CapSense_SelfTest.c **** *
1709:Generated_Source\PSoC4/CapSense_SelfTest.c **** * \param extCapId
1710:Generated_Source\PSoC4/CapSense_SelfTest.c **** *  Specifies the ID number of the external capacitor to be measured:
1711:Generated_Source\PSoC4/CapSense_SelfTest.c **** *  - CapSense_TST_CMOD_ID - Cmod capacitor
1712:Generated_Source\PSoC4/CapSense_SelfTest.c **** *  - CapSense_TST_CSH_ID - Csh capacitor
1713:Generated_Source\PSoC4/CapSense_SelfTest.c **** *  - CapSense_TST_CINTA_ID - CintA capacitor
1714:Generated_Source\PSoC4/CapSense_SelfTest.c **** *  - CapSense_TST_CINTB_ID - CintB capacitor
1715:Generated_Source\PSoC4/CapSense_SelfTest.c **** *
1716:Generated_Source\PSoC4/CapSense_SelfTest.c **** * \return
1717:Generated_Source\PSoC4/CapSense_SelfTest.c **** *  Returns a status of the test execution:
1718:Generated_Source\PSoC4/CapSense_SelfTest.c **** *  - The capacitance (in pF) of the specified external capacitor
1719:Generated_Source\PSoC4/CapSense_SelfTest.c **** *  - CapSense_TST_BAD_PARAM if the input parameter is invalid.
1720:Generated_Source\PSoC4/CapSense_SelfTest.c **** *
1721:Generated_Source\PSoC4/CapSense_SelfTest.c **** *******************************************************************************/
1722:Generated_Source\PSoC4/CapSense_SelfTest.c **** uint32 CapSense_GetExtCapCapacitance(uint32 extCapId)
1723:Generated_Source\PSoC4/CapSense_SelfTest.c **** {
1724:Generated_Source\PSoC4/CapSense_SelfTest.c ****     uint32 result = CYRET_SUCCESS;
1725:Generated_Source\PSoC4/CapSense_SelfTest.c **** 
1726:Generated_Source\PSoC4/CapSense_SelfTest.c ****     if (CapSense_TST_EXT_CAPS_NUM > extCapId)
1727:Generated_Source\PSoC4/CapSense_SelfTest.c ****     {
1728:Generated_Source\PSoC4/CapSense_SelfTest.c ****         CapSense_SsSwitchSensingMode(CapSense_SENSE_METHOD_BIST_E);
1729:Generated_Source\PSoC4/CapSense_SelfTest.c ****         CapSense_BistSwitchHwConfig(CapSense_BIST_HW_EXT_CAP_E);
1730:Generated_Source\PSoC4/CapSense_SelfTest.c ****         CapSense_BistConfigClock((uint32)CapSense_TST_EXT_CAP_RESOLUTION);
1731:Generated_Source\PSoC4/CapSense_SelfTest.c ****         /* Set resolution to fixed value */
1732:Generated_Source\PSoC4/CapSense_SelfTest.c ****         CapSense_BistSetScanDuration();
1733:Generated_Source\PSoC4/CapSense_SelfTest.c ****         result = CapSense_MeasureExtCapCapacitance(extCapId);
1734:Generated_Source\PSoC4/CapSense_SelfTest.c ****     }
1735:Generated_Source\PSoC4/CapSense_SelfTest.c ****     else
1736:Generated_Source\PSoC4/CapSense_SelfTest.c ****     {
1737:Generated_Source\PSoC4/CapSense_SelfTest.c ****         result |= CapSense_TST_BAD_PARAM;
1738:Generated_Source\PSoC4/CapSense_SelfTest.c ****     }
1739:Generated_Source\PSoC4/CapSense_SelfTest.c ****     return result;
1740:Generated_Source\PSoC4/CapSense_SelfTest.c **** }
1741:Generated_Source\PSoC4/CapSense_SelfTest.c **** 
1742:Generated_Source\PSoC4/CapSense_SelfTest.c **** /*******************************************************************************
1743:Generated_Source\PSoC4/CapSense_SelfTest.c **** * Function Name: CapSense_MeasureExtCapCapacitance
1744:Generated_Source\PSoC4/CapSense_SelfTest.c **** ****************************************************************************//**
1745:Generated_Source\PSoC4/CapSense_SelfTest.c **** *
1746:Generated_Source\PSoC4/CapSense_SelfTest.c **** * \brief
1747:Generated_Source\PSoC4/CapSense_SelfTest.c **** *  The internal function that measures a capacitance of an external capacitor
1748:Generated_Source\PSoC4/CapSense_SelfTest.c **** *  when HW block is configured for an external capasitors measuring.
1749:Generated_Source\PSoC4/CapSense_SelfTest.c **** *
1750:Generated_Source\PSoC4/CapSense_SelfTest.c **** * \details
1751:Generated_Source\PSoC4/CapSense_SelfTest.c **** *  The function connect an external capacitor (Cmod, Csh, CintA/CintB)
1752:Generated_Source\PSoC4/CapSense_SelfTest.c **** *  to CSD block, defines a modclock frequency divider and an Idac code
1753:Generated_Source\PSoC4/CapSense_SelfTest.c **** *  and measures a capacitance in range of 0,5 to 5,0 nF.
ARM GAS  C:\Users\220036~1\AppData\Local\Temp\ccGySGhB.s 			page 36


1754:Generated_Source\PSoC4/CapSense_SelfTest.c **** *  If the result exceeds 75 % of a range high bound the function divides modClk,
1755:Generated_Source\PSoC4/CapSense_SelfTest.c **** *  multiply Idac code to the fixed value to wide a measurement range and performs
1756:Generated_Source\PSoC4/CapSense_SelfTest.c **** *  another measuring cycle for a capacitance in range of 5,0 to 60,0 nF.
1757:Generated_Source\PSoC4/CapSense_SelfTest.c **** *  After that the fuction disconnect the external capacitor, calculate a result
1758:Generated_Source\PSoC4/CapSense_SelfTest.c **** *  and stores it to a correspondent register of the self-test data structure.
1759:Generated_Source\PSoC4/CapSense_SelfTest.c **** *
1760:Generated_Source\PSoC4/CapSense_SelfTest.c **** * \param extCapId
1761:Generated_Source\PSoC4/CapSense_SelfTest.c **** *  An index of the external cap to measure.
1762:Generated_Source\PSoC4/CapSense_SelfTest.c **** *
1763:Generated_Source\PSoC4/CapSense_SelfTest.c **** * \return
1764:Generated_Source\PSoC4/CapSense_SelfTest.c **** *  - Cext of the external capacitor in pF units.
1765:Generated_Source\PSoC4/CapSense_SelfTest.c **** *
1766:Generated_Source\PSoC4/CapSense_SelfTest.c **** *******************************************************************************/
1767:Generated_Source\PSoC4/CapSense_SelfTest.c **** static uint32 CapSense_MeasureExtCapCapacitance(uint32 extCapId)
1768:Generated_Source\PSoC4/CapSense_SelfTest.c **** {
1769:Generated_Source\PSoC4/CapSense_SelfTest.c ****     uint32 modClkDivider;
1770:Generated_Source\PSoC4/CapSense_SelfTest.c ****     uint32 iDacVal;
1771:Generated_Source\PSoC4/CapSense_SelfTest.c ****     uint32 result = 0uL;
1772:Generated_Source\PSoC4/CapSense_SelfTest.c **** 
1773:Generated_Source\PSoC4/CapSense_SelfTest.c ****     /* Connect an extCap */
1774:Generated_Source\PSoC4/CapSense_SelfTest.c ****     CapSense_BistConnectExtCapacitor(extCapId);
1775:Generated_Source\PSoC4/CapSense_SelfTest.c ****      /* Set modClk and Idac to the fixed value for a fine scan */
1776:Generated_Source\PSoC4/CapSense_SelfTest.c ****     #if (CYDEV_BCLK__HFCLK__MHZ < CapSense_TST_EXT_CAP_MODCLK_MHZ)
1777:Generated_Source\PSoC4/CapSense_SelfTest.c ****         modClkDivider = 1uL;
1778:Generated_Source\PSoC4/CapSense_SelfTest.c ****     #else
1779:Generated_Source\PSoC4/CapSense_SelfTest.c ****         modClkDivider = CYDEV_BCLK__HFCLK__MHZ / CapSense_TST_EXT_CAP_MODCLK_MHZ;
1780:Generated_Source\PSoC4/CapSense_SelfTest.c ****     #endif /* (CYDEV_BCLK__HFCLK__MHZ < CapSense_TST_EXT_CAP_MODCLK_MHZ) */
1781:Generated_Source\PSoC4/CapSense_SelfTest.c **** 
1782:Generated_Source\PSoC4/CapSense_SelfTest.c ****     iDacVal = (((CapSense_TST_EXT_CAP_LOW_RANGE * CapSense_CSD_VREF_MV * CYDEV_BCLK__HFCLK__MHZ) /
1783:Generated_Source\PSoC4/CapSense_SelfTest.c ****               CapSense_TST_SNS_CAP_IDAC_GAIN) / modClkDivider) + 1uL;
1784:Generated_Source\PSoC4/CapSense_SelfTest.c ****     CapSense_GetExtCapCapacitanceExt(modClkDivider, iDacVal);
1785:Generated_Source\PSoC4/CapSense_SelfTest.c **** 
1786:Generated_Source\PSoC4/CapSense_SelfTest.c ****     /* For results more then 75 % of the resolution limit perform a second wide range scan */
1787:Generated_Source\PSoC4/CapSense_SelfTest.c ****     if (CapSense_TST_EXT_CAP_RESOLUTION_75 < CapSense_bistRawcount)
1788:Generated_Source\PSoC4/CapSense_SelfTest.c ****     {
1789:Generated_Source\PSoC4/CapSense_SelfTest.c ****          /* Divide modClk and Multiply Idac to the fixed value to wide a measurement range */
1790:Generated_Source\PSoC4/CapSense_SelfTest.c ****         modClkDivider <<= 2u;
1791:Generated_Source\PSoC4/CapSense_SelfTest.c **** 
1792:Generated_Source\PSoC4/CapSense_SelfTest.c ****         #if (CapSense_ENABLE == CapSense_CSDV2)
1793:Generated_Source\PSoC4/CapSense_SelfTest.c ****             iDacVal <<= 2u;
1794:Generated_Source\PSoC4/CapSense_SelfTest.c ****         #else /* (CapSense_ENABLE == CapSense_CSDV2) */
1795:Generated_Source\PSoC4/CapSense_SelfTest.c ****             iDacVal = CapSense_BIST_MAX_IDAC_VALUE;
1796:Generated_Source\PSoC4/CapSense_SelfTest.c ****         #endif /* (CapSense_ENABLE == CapSense_CSDV2) */
1797:Generated_Source\PSoC4/CapSense_SelfTest.c **** 
1798:Generated_Source\PSoC4/CapSense_SelfTest.c ****         CapSense_GetExtCapCapacitanceExt(modClkDivider, iDacVal);
1799:Generated_Source\PSoC4/CapSense_SelfTest.c ****     }
1800:Generated_Source\PSoC4/CapSense_SelfTest.c ****     /* Disconnect ext capacitor */
1801:Generated_Source\PSoC4/CapSense_SelfTest.c ****     CapSense_BistDisconnectExtCapacitor(extCapId);
1802:Generated_Source\PSoC4/CapSense_SelfTest.c ****     /* Calculate result in 2 steps to prevent overflow */
1803:Generated_Source\PSoC4/CapSense_SelfTest.c ****     result = (iDacVal * modClkDivider * CapSense_bistRawcount) / CYDEV_BCLK__HFCLK__MHZ;
1804:Generated_Source\PSoC4/CapSense_SelfTest.c ****     result = (result * CapSense_TST_SNS_CAP_IDAC_GAIN) / CapSense_CSD_VREF_MV;
1805:Generated_Source\PSoC4/CapSense_SelfTest.c ****     CapSense_dsRam.selfTest.extCap[extCapId] = (uint16)result;
1806:Generated_Source\PSoC4/CapSense_SelfTest.c **** 
1807:Generated_Source\PSoC4/CapSense_SelfTest.c ****     return result;
1808:Generated_Source\PSoC4/CapSense_SelfTest.c **** }
1809:Generated_Source\PSoC4/CapSense_SelfTest.c **** 
1810:Generated_Source\PSoC4/CapSense_SelfTest.c **** /*******************************************************************************
ARM GAS  C:\Users\220036~1\AppData\Local\Temp\ccGySGhB.s 			page 37


1811:Generated_Source\PSoC4/CapSense_SelfTest.c **** * Function Name: CapSense_GetExtCapCapacitanceExt
1812:Generated_Source\PSoC4/CapSense_SelfTest.c **** ****************************************************************************//**
1813:Generated_Source\PSoC4/CapSense_SelfTest.c **** *
1814:Generated_Source\PSoC4/CapSense_SelfTest.c **** * \brief
1815:Generated_Source\PSoC4/CapSense_SelfTest.c **** *  The internal function that performs a scan for an external capacitor measuring.
1816:Generated_Source\PSoC4/CapSense_SelfTest.c **** *
1817:Generated_Source\PSoC4/CapSense_SelfTest.c **** * \details
1818:Generated_Source\PSoC4/CapSense_SelfTest.c **** *  The function sets the modclock and Idac to defined values and performs a scan
1819:Generated_Source\PSoC4/CapSense_SelfTest.c **** *  by using CSD mode for an external capacitor (Cmod, Csh, or CintA/CintB).
1820:Generated_Source\PSoC4/CapSense_SelfTest.c **** *
1821:Generated_Source\PSoC4/CapSense_SelfTest.c **** * \param modClkDivider
1822:Generated_Source\PSoC4/CapSense_SelfTest.c **** *  Specifies a divider for a modulation clock frequency.
1823:Generated_Source\PSoC4/CapSense_SelfTest.c **** *
1824:Generated_Source\PSoC4/CapSense_SelfTest.c **** * \param iDacVal
1825:Generated_Source\PSoC4/CapSense_SelfTest.c **** *  Specifies an Idac modulation code.
1826:Generated_Source\PSoC4/CapSense_SelfTest.c **** *
1827:Generated_Source\PSoC4/CapSense_SelfTest.c **** *******************************************************************************/
1828:Generated_Source\PSoC4/CapSense_SelfTest.c **** static void CapSense_GetExtCapCapacitanceExt(uint32 modClkDivider, uint32 iDacVal)
1829:Generated_Source\PSoC4/CapSense_SelfTest.c **** {
1830:Generated_Source\PSoC4/CapSense_SelfTest.c ****     #if ((CapSense_ENABLE != CapSense_CSDV2) &&\
1831:Generated_Source\PSoC4/CapSense_SelfTest.c ****          (CapSense_ENABLE == CapSense_IS_M0S8PERI_BLOCK))
1832:Generated_Source\PSoC4/CapSense_SelfTest.c ****         CapSense_BistConfigClock(CapSense_TST_EXT_CAP_RESOLUTION * modClkDivider);
1833:Generated_Source\PSoC4/CapSense_SelfTest.c ****     #endif /* ((CapSense_ENABLE != CapSense_CSDV2) &&\
1834:Generated_Source\PSoC4/CapSense_SelfTest.c ****                (CapSense_ENABLE == CapSense_IS_M0S8PERI_BLOCK)) */
1835:Generated_Source\PSoC4/CapSense_SelfTest.c **** 
1836:Generated_Source\PSoC4/CapSense_SelfTest.c ****     CapSense_SsSetModClkClockDivider(modClkDivider);
1837:Generated_Source\PSoC4/CapSense_SelfTest.c ****     CapSense_BistSetIdac(iDacVal);
1838:Generated_Source\PSoC4/CapSense_SelfTest.c ****     /* Start the scan */
1839:Generated_Source\PSoC4/CapSense_SelfTest.c ****     CapSense_dsRam.status |= CapSense_SW_STS_BUSY;
1840:Generated_Source\PSoC4/CapSense_SelfTest.c ****     CapSense_BistStartSample();
1841:Generated_Source\PSoC4/CapSense_SelfTest.c ****     /* Initialize Watchdog Counter with time interval which is enough to charge 100 nF capacitor */
1842:Generated_Source\PSoC4/CapSense_SelfTest.c ****     CapSense_WaitEndOfScan(CapSense_BIST_MEASURE_WATCHDOG_CYCLES_NUM);
1843:Generated_Source\PSoC4/CapSense_SelfTest.c **** }
1844:Generated_Source\PSoC4/CapSense_SelfTest.c **** 
1845:Generated_Source\PSoC4/CapSense_SelfTest.c **** /*******************************************************************************
1846:Generated_Source\PSoC4/CapSense_SelfTest.c **** * Function Name: CapSense_BistConnectExtCapacitor
1847:Generated_Source\PSoC4/CapSense_SelfTest.c **** ****************************************************************************//**
1848:Generated_Source\PSoC4/CapSense_SelfTest.c **** *
1849:Generated_Source\PSoC4/CapSense_SelfTest.c **** * \brief
1850:Generated_Source\PSoC4/CapSense_SelfTest.c **** *  The internal function that connects an external capacitor to the
1851:Generated_Source\PSoC4/CapSense_SelfTest.c **** *  CapSense block.
1852:Generated_Source\PSoC4/CapSense_SelfTest.c **** *
1853:Generated_Source\PSoC4/CapSense_SelfTest.c **** * \details
1854:Generated_Source\PSoC4/CapSense_SelfTest.c **** *  The function that that connects an external capacitor to the CapSense
1855:Generated_Source\PSoC4/CapSense_SelfTest.c **** *  block by using HSIOM in CSD mode.
1856:Generated_Source\PSoC4/CapSense_SelfTest.c **** *
1857:Generated_Source\PSoC4/CapSense_SelfTest.c **** * \param extCapId
1858:Generated_Source\PSoC4/CapSense_SelfTest.c **** *  An index of the external cap to connect.
1859:Generated_Source\PSoC4/CapSense_SelfTest.c **** *
1860:Generated_Source\PSoC4/CapSense_SelfTest.c **** *******************************************************************************/
1861:Generated_Source\PSoC4/CapSense_SelfTest.c **** static void CapSense_BistConnectExtCapacitor(uint32 extCapId)
1862:Generated_Source\PSoC4/CapSense_SelfTest.c **** {
1863:Generated_Source\PSoC4/CapSense_SelfTest.c ****     uint32 newRegValue;
1864:Generated_Source\PSoC4/CapSense_SelfTest.c ****     uint8  interruptState;
1865:Generated_Source\PSoC4/CapSense_SelfTest.c **** 
1866:Generated_Source\PSoC4/CapSense_SelfTest.c ****     #if (CapSense_ENABLE == CapSense_CSDV2)
1867:Generated_Source\PSoC4/CapSense_SelfTest.c ****         /* Connect AMUXBUS-A to CSDCOMP(sense path) */
ARM GAS  C:\Users\220036~1\AppData\Local\Temp\ccGySGhB.s 			page 38


1868:Generated_Source\PSoC4/CapSense_SelfTest.c ****     CY_SET_REG32(CapSense_SW_CMP_P_SEL_PTR, CapSense_SW_CMP_P_SEL_SW_SFMA_STATIC_CLOSE);
1869:Generated_Source\PSoC4/CapSense_SelfTest.c ****     #endif /* (CapSense_ENABLE == CapSense_CSDV2) */
1870:Generated_Source\PSoC4/CapSense_SelfTest.c **** 
1871:Generated_Source\PSoC4/CapSense_SelfTest.c ****     switch(CapSense_extCapMap[extCapId])
1872:Generated_Source\PSoC4/CapSense_SelfTest.c ****     {
1873:Generated_Source\PSoC4/CapSense_SelfTest.c ****         #if (CapSense_ENABLE == CapSense_CSD_EN)
1874:Generated_Source\PSoC4/CapSense_SelfTest.c ****             case CapSense_TST_CMOD_MAP:
1875:Generated_Source\PSoC4/CapSense_SelfTest.c ****             {
1876:Generated_Source\PSoC4/CapSense_SelfTest.c ****                 /* Connect Cmod pin using HSIOM registers */
1877:Generated_Source\PSoC4/CapSense_SelfTest.c ****                 interruptState = CyEnterCriticalSection();
1878:Generated_Source\PSoC4/CapSense_SelfTest.c ****                 newRegValue = CY_GET_REG32(CapSense_CMOD_HSIOM_PTR);
1879:Generated_Source\PSoC4/CapSense_SelfTest.c ****                 newRegValue &= (uint32)(~(uint32)CapSense_CMOD_HSIOM_MASK);
1880:Generated_Source\PSoC4/CapSense_SelfTest.c ****                 newRegValue |= (CapSense_HSIOM_SEL_CSD_SENSE << CapSense_CMOD_HSIOM_SHIFT);
1881:Generated_Source\PSoC4/CapSense_SelfTest.c ****                 CY_SET_REG32(CapSense_CMOD_HSIOM_PTR, newRegValue);
1882:Generated_Source\PSoC4/CapSense_SelfTest.c ****                 CyExitCriticalSection(interruptState);
1883:Generated_Source\PSoC4/CapSense_SelfTest.c ****                 break;
1884:Generated_Source\PSoC4/CapSense_SelfTest.c ****             }
1885:Generated_Source\PSoC4/CapSense_SelfTest.c ****                 #if ((CapSense_ENABLE == CapSense_CSD_SHIELD_EN) && \
1886:Generated_Source\PSoC4/CapSense_SelfTest.c ****                      (CapSense_ENABLE == CapSense_CSD_SHIELD_TANK_EN))
1887:Generated_Source\PSoC4/CapSense_SelfTest.c ****                     case CapSense_TST_CSH_MAP:
1888:Generated_Source\PSoC4/CapSense_SelfTest.c ****                     {
1889:Generated_Source\PSoC4/CapSense_SelfTest.c ****                         /* Connect CTANK to AMUXBUS-A */
1890:Generated_Source\PSoC4/CapSense_SelfTest.c ****                         interruptState = CyEnterCriticalSection();
1891:Generated_Source\PSoC4/CapSense_SelfTest.c ****                         newRegValue = CY_GET_REG32(CapSense_CSH_HSIOM_PTR);
1892:Generated_Source\PSoC4/CapSense_SelfTest.c ****                         newRegValue &= (uint32)(~(uint32)CapSense_CSH_HSIOM_MASK);
1893:Generated_Source\PSoC4/CapSense_SelfTest.c ****                         newRegValue |= (CapSense_HSIOM_SEL_CSD_SENSE << CapSense_CSH_HSIOM_SHIFT);
1894:Generated_Source\PSoC4/CapSense_SelfTest.c ****                         CY_SET_REG32(CapSense_CSH_HSIOM_PTR, newRegValue);
1895:Generated_Source\PSoC4/CapSense_SelfTest.c ****                         CyExitCriticalSection(interruptState);
1896:Generated_Source\PSoC4/CapSense_SelfTest.c ****                         break;
1897:Generated_Source\PSoC4/CapSense_SelfTest.c ****                     }
1898:Generated_Source\PSoC4/CapSense_SelfTest.c ****                 #endif /* ((CapSense_ENABLE == CapSense_CSD_SHIELD_EN) && \
1899:Generated_Source\PSoC4/CapSense_SelfTest.c ****                       (CapSense_ENABLE == CapSense_CSD_SHIELD_TANK_EN)) */
1900:Generated_Source\PSoC4/CapSense_SelfTest.c **** 
1901:Generated_Source\PSoC4/CapSense_SelfTest.c ****         #endif /* (CapSense_ENABLE == CapSense_CSD_EN) */
1902:Generated_Source\PSoC4/CapSense_SelfTest.c **** 
1903:Generated_Source\PSoC4/CapSense_SelfTest.c ****         #if (CapSense_ENABLE == CapSense_CSX_EN)
1904:Generated_Source\PSoC4/CapSense_SelfTest.c ****             case CapSense_TST_CINTA_MAP:
1905:Generated_Source\PSoC4/CapSense_SelfTest.c ****             {
1906:Generated_Source\PSoC4/CapSense_SelfTest.c ****                 /* Connect the CintA pin using HSIOM registers */
1907:Generated_Source\PSoC4/CapSense_SelfTest.c ****                 interruptState = CyEnterCriticalSection();
1908:Generated_Source\PSoC4/CapSense_SelfTest.c ****                 newRegValue = CY_GET_REG32(CapSense_CintA_HSIOM_PTR);
1909:Generated_Source\PSoC4/CapSense_SelfTest.c ****                 newRegValue &= ~CapSense_CintA_HSIOM_MASK;
1910:Generated_Source\PSoC4/CapSense_SelfTest.c ****                 newRegValue |= (CapSense_HSIOM_SEL_CSD_SENSE << CapSense_CintA_HSIOM_SHIFT);
1911:Generated_Source\PSoC4/CapSense_SelfTest.c ****                 CY_SET_REG32(CapSense_CintA_HSIOM_PTR, newRegValue);
1912:Generated_Source\PSoC4/CapSense_SelfTest.c ****                 CyExitCriticalSection(interruptState);
1913:Generated_Source\PSoC4/CapSense_SelfTest.c ****                 break;
1914:Generated_Source\PSoC4/CapSense_SelfTest.c ****             }
1915:Generated_Source\PSoC4/CapSense_SelfTest.c ****             case CapSense_TST_CINTB_MAP:
1916:Generated_Source\PSoC4/CapSense_SelfTest.c ****             {
1917:Generated_Source\PSoC4/CapSense_SelfTest.c ****                 /* Connect CintB to AMUXBUS-A using HSIOM registers */
1918:Generated_Source\PSoC4/CapSense_SelfTest.c ****                 interruptState = CyEnterCriticalSection();
1919:Generated_Source\PSoC4/CapSense_SelfTest.c ****                 newRegValue = CY_GET_REG32(CapSense_CintB_HSIOM_PTR);
1920:Generated_Source\PSoC4/CapSense_SelfTest.c ****                 newRegValue &= ~CapSense_CintB_HSIOM_MASK;
1921:Generated_Source\PSoC4/CapSense_SelfTest.c ****                 newRegValue |= (CapSense_HSIOM_SEL_CSD_SENSE << CapSense_CintB_HSIOM_SHIFT);
1922:Generated_Source\PSoC4/CapSense_SelfTest.c ****                 CY_SET_REG32(CapSense_CintB_HSIOM_PTR, newRegValue);
1923:Generated_Source\PSoC4/CapSense_SelfTest.c ****                 CyExitCriticalSection(interruptState);
1924:Generated_Source\PSoC4/CapSense_SelfTest.c ****                 break;
ARM GAS  C:\Users\220036~1\AppData\Local\Temp\ccGySGhB.s 			page 39


1925:Generated_Source\PSoC4/CapSense_SelfTest.c ****             }
1926:Generated_Source\PSoC4/CapSense_SelfTest.c ****         #endif /* (CapSense_ENABLE == CapSense_CSX_EN) */
1927:Generated_Source\PSoC4/CapSense_SelfTest.c **** 
1928:Generated_Source\PSoC4/CapSense_SelfTest.c ****         default:
1929:Generated_Source\PSoC4/CapSense_SelfTest.c ****         {
1930:Generated_Source\PSoC4/CapSense_SelfTest.c ****             break;
1931:Generated_Source\PSoC4/CapSense_SelfTest.c ****         }
1932:Generated_Source\PSoC4/CapSense_SelfTest.c ****     }
1933:Generated_Source\PSoC4/CapSense_SelfTest.c **** }
1934:Generated_Source\PSoC4/CapSense_SelfTest.c **** 
1935:Generated_Source\PSoC4/CapSense_SelfTest.c **** /*******************************************************************************
1936:Generated_Source\PSoC4/CapSense_SelfTest.c **** * Function Name: CapSense_BistDisconnectExtCapacitor
1937:Generated_Source\PSoC4/CapSense_SelfTest.c **** ****************************************************************************//**
1938:Generated_Source\PSoC4/CapSense_SelfTest.c **** *
1939:Generated_Source\PSoC4/CapSense_SelfTest.c **** * \brief
1940:Generated_Source\PSoC4/CapSense_SelfTest.c **** *  The internal function that disconnects an external capacitor from the
1941:Generated_Source\PSoC4/CapSense_SelfTest.c **** *  CapSense block.
1942:Generated_Source\PSoC4/CapSense_SelfTest.c **** *
1943:Generated_Source\PSoC4/CapSense_SelfTest.c **** * \details
1944:Generated_Source\PSoC4/CapSense_SelfTest.c **** *  The function that that disconnects an external capacitor from the
1945:Generated_Source\PSoC4/CapSense_SelfTest.c **** *  CapSense block.
1946:Generated_Source\PSoC4/CapSense_SelfTest.c **** *  After that the function dicharges the specified capacitor to GND to provide
1947:Generated_Source\PSoC4/CapSense_SelfTest.c **** *  next regular scans.
1948:Generated_Source\PSoC4/CapSense_SelfTest.c **** *
1949:Generated_Source\PSoC4/CapSense_SelfTest.c **** * \param extCapId
1950:Generated_Source\PSoC4/CapSense_SelfTest.c **** *  An index of the external cap to disconnect.
1951:Generated_Source\PSoC4/CapSense_SelfTest.c **** *
1952:Generated_Source\PSoC4/CapSense_SelfTest.c **** *******************************************************************************/
1953:Generated_Source\PSoC4/CapSense_SelfTest.c **** static void CapSense_BistDisconnectExtCapacitor(uint32 extCapId)
1954:Generated_Source\PSoC4/CapSense_SelfTest.c **** {
1955:Generated_Source\PSoC4/CapSense_SelfTest.c ****     uint32 newRegValue;
1956:Generated_Source\PSoC4/CapSense_SelfTest.c ****     uint8  interruptState;
1957:Generated_Source\PSoC4/CapSense_SelfTest.c **** 
1958:Generated_Source\PSoC4/CapSense_SelfTest.c ****     #if (CapSense_ENABLE == CapSense_CSDV2)
1959:Generated_Source\PSoC4/CapSense_SelfTest.c ****         /* Disconnect AMUXBUS-A from CSDCOMP(sense path) */
1960:Generated_Source\PSoC4/CapSense_SelfTest.c ****         CY_SET_REG32(CapSense_SW_CMP_P_SEL_PTR, CapSense_SW_CMP_P_SEL_SW_SFMA_STATIC_OPEN);
1961:Generated_Source\PSoC4/CapSense_SelfTest.c ****     #endif /* (CapSense_ENABLE == CapSense_CSDV2) */
1962:Generated_Source\PSoC4/CapSense_SelfTest.c **** 
1963:Generated_Source\PSoC4/CapSense_SelfTest.c ****     switch(CapSense_extCapMap[extCapId])
1964:Generated_Source\PSoC4/CapSense_SelfTest.c ****     {
1965:Generated_Source\PSoC4/CapSense_SelfTest.c ****         #if (CapSense_ENABLE == CapSense_CSD_EN)
1966:Generated_Source\PSoC4/CapSense_SelfTest.c ****             case CapSense_TST_CMOD_MAP:
1967:Generated_Source\PSoC4/CapSense_SelfTest.c ****             {
1968:Generated_Source\PSoC4/CapSense_SelfTest.c ****                 /* Disconnect Cmod from AMUXBUS-A using HSIOM registers */
1969:Generated_Source\PSoC4/CapSense_SelfTest.c ****                 interruptState = CyEnterCriticalSection();
1970:Generated_Source\PSoC4/CapSense_SelfTest.c ****                 newRegValue = CY_GET_REG32(CapSense_CMOD_HSIOM_PTR);
1971:Generated_Source\PSoC4/CapSense_SelfTest.c ****                 newRegValue &= (uint32)(~(uint32)CapSense_CMOD_HSIOM_MASK);
1972:Generated_Source\PSoC4/CapSense_SelfTest.c ****                 CY_SET_REG32(CapSense_CMOD_HSIOM_PTR, newRegValue);
1973:Generated_Source\PSoC4/CapSense_SelfTest.c ****                 CyExitCriticalSection(interruptState);
1974:Generated_Source\PSoC4/CapSense_SelfTest.c **** 
1975:Generated_Source\PSoC4/CapSense_SelfTest.c ****                 #if (CapSense_ENABLE == CapSense_CSDV2)
1976:Generated_Source\PSoC4/CapSense_SelfTest.c ****                     /* Disconnect CSDCMP from CSDBUS-A (parallel pass via SFCA switch) */
1977:Generated_Source\PSoC4/CapSense_SelfTest.c ****                     newRegValue = CY_GET_REG32(CapSense_SW_CMP_P_SEL_PTR);
1978:Generated_Source\PSoC4/CapSense_SelfTest.c ****                     newRegValue &= (uint32) (~CapSense_SW_CMP_P_SEL_SW_SFCA_MASK);
1979:Generated_Source\PSoC4/CapSense_SelfTest.c ****                     CY_SET_REG32(CapSense_SW_CMP_P_SEL_PTR, newRegValue);
1980:Generated_Source\PSoC4/CapSense_SelfTest.c ****                 #endif /* (CapSense_ENABLE == CapSense_CSDV2) */
1981:Generated_Source\PSoC4/CapSense_SelfTest.c **** 
ARM GAS  C:\Users\220036~1\AppData\Local\Temp\ccGySGhB.s 			page 40


1982:Generated_Source\PSoC4/CapSense_SelfTest.c ****                 /* Discharge CMOD by using GPIO mode */
1983:Generated_Source\PSoC4/CapSense_SelfTest.c ****                 interruptState = CyEnterCriticalSection();
1984:Generated_Source\PSoC4/CapSense_SelfTest.c ****                 newRegValue = CY_GET_REG32(CapSense_CMOD_HSIOM_PTR);
1985:Generated_Source\PSoC4/CapSense_SelfTest.c ****                 newRegValue &= (uint32)(~(uint32)CapSense_CMOD_HSIOM_MASK);
1986:Generated_Source\PSoC4/CapSense_SelfTest.c ****                 newRegValue |= (CapSense_HSIOM_SEL_GPIO << CapSense_CMOD_HSIOM_SHIFT);
1987:Generated_Source\PSoC4/CapSense_SelfTest.c ****                 CY_SET_REG32(CapSense_CMOD_HSIOM_PTR, newRegValue);
1988:Generated_Source\PSoC4/CapSense_SelfTest.c ****                 CyExitCriticalSection(interruptState);
1989:Generated_Source\PSoC4/CapSense_SelfTest.c **** 
1990:Generated_Source\PSoC4/CapSense_SelfTest.c ****                 /* Set output port register for Cmod to 0 to connect Cmod to GND */
1991:Generated_Source\PSoC4/CapSense_SelfTest.c ****                 interruptState = CyEnterCriticalSection();
1992:Generated_Source\PSoC4/CapSense_SelfTest.c ****                 newRegValue = CY_GET_REG32(CapSense_CMOD_DR_PTR);
1993:Generated_Source\PSoC4/CapSense_SelfTest.c ****                 newRegValue &= (uint32)(~(uint32) (1uL << CapSense_CMOD_DR_SHIFT));
1994:Generated_Source\PSoC4/CapSense_SelfTest.c ****                 CY_SET_REG32(CapSense_CMOD_DR_PTR, newRegValue);
1995:Generated_Source\PSoC4/CapSense_SelfTest.c ****                 CyExitCriticalSection(interruptState);
1996:Generated_Source\PSoC4/CapSense_SelfTest.c **** 
1997:Generated_Source\PSoC4/CapSense_SelfTest.c ****                 /* Set port configuration register (drive mode) for Cmod in STRONG mode */
1998:Generated_Source\PSoC4/CapSense_SelfTest.c ****                 interruptState = CyEnterCriticalSection();
1999:Generated_Source\PSoC4/CapSense_SelfTest.c ****                 newRegValue = CY_GET_REG32(CapSense_CMOD_PC_PTR);
2000:Generated_Source\PSoC4/CapSense_SelfTest.c ****                 newRegValue &= (uint32)(~((uint32)CapSense_GPIO_PC_MASK << CapSense_CMOD_PC_SHIFT))
2001:Generated_Source\PSoC4/CapSense_SelfTest.c ****                 newRegValue |= (CapSense_GPIO_STRGDRV << CapSense_CMOD_PC_SHIFT);
2002:Generated_Source\PSoC4/CapSense_SelfTest.c ****                 CY_SET_REG32(CapSense_CMOD_PC_PTR, newRegValue);
2003:Generated_Source\PSoC4/CapSense_SelfTest.c ****                 CyExitCriticalSection(interruptState);
2004:Generated_Source\PSoC4/CapSense_SelfTest.c **** 
2005:Generated_Source\PSoC4/CapSense_SelfTest.c ****                 /* Delay 10 uS to discharge Cmod */
2006:Generated_Source\PSoC4/CapSense_SelfTest.c ****                 CyDelayUs(10u);
2007:Generated_Source\PSoC4/CapSense_SelfTest.c **** 
2008:Generated_Source\PSoC4/CapSense_SelfTest.c ****                 /* Set port configuration register (drive mode) for Cmod in HIGHZ-A mode (PC=000) *
2009:Generated_Source\PSoC4/CapSense_SelfTest.c ****                 interruptState = CyEnterCriticalSection();
2010:Generated_Source\PSoC4/CapSense_SelfTest.c ****                 newRegValue = CY_GET_REG32(CapSense_CMOD_PC_PTR);
2011:Generated_Source\PSoC4/CapSense_SelfTest.c ****                 newRegValue &= (uint32)(~((uint32)CapSense_GPIO_PC_MASK << CapSense_CMOD_PC_SHIFT))
2012:Generated_Source\PSoC4/CapSense_SelfTest.c ****                 CY_SET_REG32(CapSense_CMOD_PC_PTR, newRegValue);
2013:Generated_Source\PSoC4/CapSense_SelfTest.c ****                 CyExitCriticalSection(interruptState);
2014:Generated_Source\PSoC4/CapSense_SelfTest.c **** 
2015:Generated_Source\PSoC4/CapSense_SelfTest.c ****                 break;
2016:Generated_Source\PSoC4/CapSense_SelfTest.c ****             }
2017:Generated_Source\PSoC4/CapSense_SelfTest.c **** 
2018:Generated_Source\PSoC4/CapSense_SelfTest.c ****             #if ((CapSense_ENABLE == CapSense_CSD_SHIELD_EN) && \
2019:Generated_Source\PSoC4/CapSense_SelfTest.c ****                  (CapSense_ENABLE == CapSense_CSD_SHIELD_TANK_EN))
2020:Generated_Source\PSoC4/CapSense_SelfTest.c ****                 case CapSense_TST_CSH_MAP:
2021:Generated_Source\PSoC4/CapSense_SelfTest.c ****                 {
2022:Generated_Source\PSoC4/CapSense_SelfTest.c ****                     /* Disconnect CTANK from AMUXBUS-A */
2023:Generated_Source\PSoC4/CapSense_SelfTest.c ****                     interruptState = CyEnterCriticalSection();
2024:Generated_Source\PSoC4/CapSense_SelfTest.c ****                     newRegValue = CY_GET_REG32(CapSense_CSH_HSIOM_PTR);
2025:Generated_Source\PSoC4/CapSense_SelfTest.c ****                     newRegValue &= (uint32)(~(uint32)CapSense_CSH_HSIOM_MASK);
2026:Generated_Source\PSoC4/CapSense_SelfTest.c ****                     CY_SET_REG32(CapSense_CSH_HSIOM_PTR, newRegValue);
2027:Generated_Source\PSoC4/CapSense_SelfTest.c ****                     CyExitCriticalSection(interruptState);
2028:Generated_Source\PSoC4/CapSense_SelfTest.c **** 
2029:Generated_Source\PSoC4/CapSense_SelfTest.c ****                     /* Discharge CTANK by using GPIO mode */
2030:Generated_Source\PSoC4/CapSense_SelfTest.c ****                     interruptState = CyEnterCriticalSection();
2031:Generated_Source\PSoC4/CapSense_SelfTest.c ****                     newRegValue = CY_GET_REG32(CapSense_CSH_HSIOM_PTR);
2032:Generated_Source\PSoC4/CapSense_SelfTest.c ****                     newRegValue &= (uint32)(~(uint32)CapSense_CSH_HSIOM_MASK);
2033:Generated_Source\PSoC4/CapSense_SelfTest.c ****                     newRegValue |= (CapSense_HSIOM_SEL_GPIO << CapSense_CSH_HSIOM_SHIFT);
2034:Generated_Source\PSoC4/CapSense_SelfTest.c ****                     CY_SET_REG32(CapSense_CSH_HSIOM_PTR, newRegValue);
2035:Generated_Source\PSoC4/CapSense_SelfTest.c ****                     CyExitCriticalSection(interruptState);
2036:Generated_Source\PSoC4/CapSense_SelfTest.c **** 
2037:Generated_Source\PSoC4/CapSense_SelfTest.c ****                     /* Set output port register for Cmod to 0 to connect Cmod to GND */
2038:Generated_Source\PSoC4/CapSense_SelfTest.c ****                     interruptState = CyEnterCriticalSection();
ARM GAS  C:\Users\220036~1\AppData\Local\Temp\ccGySGhB.s 			page 41


2039:Generated_Source\PSoC4/CapSense_SelfTest.c ****                     newRegValue = CY_GET_REG32(CapSense_CSH_DR_PTR);
2040:Generated_Source\PSoC4/CapSense_SelfTest.c ****                     newRegValue &= (uint32)(~(uint32) (1uL << CapSense_CSH_SHIFT));
2041:Generated_Source\PSoC4/CapSense_SelfTest.c ****                     CY_SET_REG32(CapSense_CSH_DR_PTR, newRegValue);
2042:Generated_Source\PSoC4/CapSense_SelfTest.c ****                     CyExitCriticalSection(interruptState);
2043:Generated_Source\PSoC4/CapSense_SelfTest.c **** 
2044:Generated_Source\PSoC4/CapSense_SelfTest.c ****                     /* Set port configuration register (drive mode) for CTANK in STRONG mode */
2045:Generated_Source\PSoC4/CapSense_SelfTest.c ****                     interruptState = CyEnterCriticalSection();
2046:Generated_Source\PSoC4/CapSense_SelfTest.c ****                     newRegValue = CY_GET_REG32(CapSense_CSH_PC_PTR);
2047:Generated_Source\PSoC4/CapSense_SelfTest.c ****                     newRegValue &= (uint32)(~((uint32)CapSense_GPIO_PC_MASK << CapSense_CSH_PC_SHIF
2048:Generated_Source\PSoC4/CapSense_SelfTest.c ****                     newRegValue |= (CapSense_GPIO_STRGDRV << CapSense_CSH_PC_SHIFT);
2049:Generated_Source\PSoC4/CapSense_SelfTest.c ****                     CY_SET_REG32(CapSense_CSH_PC_PTR, newRegValue);
2050:Generated_Source\PSoC4/CapSense_SelfTest.c ****                     CyExitCriticalSection(interruptState);
2051:Generated_Source\PSoC4/CapSense_SelfTest.c **** 
2052:Generated_Source\PSoC4/CapSense_SelfTest.c ****                     /* Delay 10 uS to discharge CTANK */
2053:Generated_Source\PSoC4/CapSense_SelfTest.c ****                     CyDelayUs(10u);
2054:Generated_Source\PSoC4/CapSense_SelfTest.c **** 
2055:Generated_Source\PSoC4/CapSense_SelfTest.c ****                     /* Set port configuration register (drive mode) for CTANK in HIGHZ-A mode */
2056:Generated_Source\PSoC4/CapSense_SelfTest.c ****                     interruptState = CyEnterCriticalSection();
2057:Generated_Source\PSoC4/CapSense_SelfTest.c ****                     newRegValue = CY_GET_REG32(CapSense_CSH_PC_PTR);
2058:Generated_Source\PSoC4/CapSense_SelfTest.c ****                     newRegValue &= (uint32)(~((uint32)CapSense_GPIO_PC_MASK << CapSense_CSH_PC_SHIF
2059:Generated_Source\PSoC4/CapSense_SelfTest.c ****                     CY_SET_REG32(CapSense_CSH_PC_PTR, newRegValue);
2060:Generated_Source\PSoC4/CapSense_SelfTest.c ****                     CyExitCriticalSection(interruptState);
2061:Generated_Source\PSoC4/CapSense_SelfTest.c **** 
2062:Generated_Source\PSoC4/CapSense_SelfTest.c ****                     break;
2063:Generated_Source\PSoC4/CapSense_SelfTest.c ****                 }
2064:Generated_Source\PSoC4/CapSense_SelfTest.c ****             #endif /* ((CapSense_ENABLE == CapSense_CSD_SHIELD_EN) && \
2065:Generated_Source\PSoC4/CapSense_SelfTest.c ****                        (CapSense_ENABLE == CapSense_CSD_SHIELD_TANK_EN)) */
2066:Generated_Source\PSoC4/CapSense_SelfTest.c **** 
2067:Generated_Source\PSoC4/CapSense_SelfTest.c ****         #endif /* (CapSense_ENABLE == CapSense_CSD_EN) */
2068:Generated_Source\PSoC4/CapSense_SelfTest.c **** 
2069:Generated_Source\PSoC4/CapSense_SelfTest.c ****         #if (CapSense_ENABLE == CapSense_CSX_EN)
2070:Generated_Source\PSoC4/CapSense_SelfTest.c ****             case CapSense_TST_CINTA_MAP:
2071:Generated_Source\PSoC4/CapSense_SelfTest.c ****             {
2072:Generated_Source\PSoC4/CapSense_SelfTest.c ****                 /* Disconnect CintA from AMUXBUS-A using HSIOM registers. */
2073:Generated_Source\PSoC4/CapSense_SelfTest.c ****                 interruptState = CyEnterCriticalSection();
2074:Generated_Source\PSoC4/CapSense_SelfTest.c ****                 newRegValue = CY_GET_REG32(CapSense_CintA_HSIOM_PTR);
2075:Generated_Source\PSoC4/CapSense_SelfTest.c ****                 newRegValue &= (uint32)(~(uint32)CapSense_CintA_HSIOM_MASK);
2076:Generated_Source\PSoC4/CapSense_SelfTest.c ****                 CY_SET_REG32(CapSense_CintA_HSIOM_PTR, newRegValue);
2077:Generated_Source\PSoC4/CapSense_SelfTest.c ****                 CyExitCriticalSection(interruptState);
2078:Generated_Source\PSoC4/CapSense_SelfTest.c **** 
2079:Generated_Source\PSoC4/CapSense_SelfTest.c ****                 /* Discharge CintA by using GPIO mode */
2080:Generated_Source\PSoC4/CapSense_SelfTest.c ****                 interruptState = CyEnterCriticalSection();
2081:Generated_Source\PSoC4/CapSense_SelfTest.c ****                 newRegValue = CY_GET_REG32(CapSense_CintA_HSIOM_PTR);
2082:Generated_Source\PSoC4/CapSense_SelfTest.c ****                 newRegValue &= (uint32)(~(uint32)CapSense_CintA_HSIOM_MASK);
2083:Generated_Source\PSoC4/CapSense_SelfTest.c ****                 newRegValue |= (CapSense_HSIOM_SEL_GPIO << CapSense_CintA_HSIOM_SHIFT);
2084:Generated_Source\PSoC4/CapSense_SelfTest.c ****                 CY_SET_REG32(CapSense_CintA_HSIOM_PTR, newRegValue);
2085:Generated_Source\PSoC4/CapSense_SelfTest.c ****                 CyExitCriticalSection(interruptState);
2086:Generated_Source\PSoC4/CapSense_SelfTest.c **** 
2087:Generated_Source\PSoC4/CapSense_SelfTest.c ****                 /* Set output port register for CintA to 0 to connect CintA to GND */
2088:Generated_Source\PSoC4/CapSense_SelfTest.c ****                 interruptState = CyEnterCriticalSection();
2089:Generated_Source\PSoC4/CapSense_SelfTest.c ****                 newRegValue = CY_GET_REG32(CapSense_CintA_DR_PTR);
2090:Generated_Source\PSoC4/CapSense_SelfTest.c ****                 newRegValue &= (uint32)(~(uint32) (1uL << CapSense_CintA_SHIFT));
2091:Generated_Source\PSoC4/CapSense_SelfTest.c ****                 CY_SET_REG32(CapSense_CintA_DR_PTR, newRegValue);
2092:Generated_Source\PSoC4/CapSense_SelfTest.c ****                 CyExitCriticalSection(interruptState);
2093:Generated_Source\PSoC4/CapSense_SelfTest.c **** 
2094:Generated_Source\PSoC4/CapSense_SelfTest.c ****                 /* Set port configuration register (drive mode) for CintA in STRONG mode */
2095:Generated_Source\PSoC4/CapSense_SelfTest.c ****                 interruptState = CyEnterCriticalSection();
ARM GAS  C:\Users\220036~1\AppData\Local\Temp\ccGySGhB.s 			page 42


2096:Generated_Source\PSoC4/CapSense_SelfTest.c ****                 newRegValue = CY_GET_REG32(CapSense_CintA_PC_PTR);
2097:Generated_Source\PSoC4/CapSense_SelfTest.c ****                 newRegValue &= (uint32)(~((uint32)CapSense_GPIO_PC_MASK << (CapSense_CintA_SHIFT * 
2098:Generated_Source\PSoC4/CapSense_SelfTest.c ****                 newRegValue |= (CapSense_GPIO_STRGDRV << (CapSense_CintA_SHIFT * 3uL));
2099:Generated_Source\PSoC4/CapSense_SelfTest.c ****                 CY_SET_REG32(CapSense_CintA_PC_PTR, newRegValue);
2100:Generated_Source\PSoC4/CapSense_SelfTest.c ****                 CyExitCriticalSection(interruptState);
2101:Generated_Source\PSoC4/CapSense_SelfTest.c **** 
2102:Generated_Source\PSoC4/CapSense_SelfTest.c ****                 /* Delay 10 uS to discharge CintA */
2103:Generated_Source\PSoC4/CapSense_SelfTest.c ****                 CyDelayUs(10u);
2104:Generated_Source\PSoC4/CapSense_SelfTest.c **** 
2105:Generated_Source\PSoC4/CapSense_SelfTest.c ****                 /* Set port configuration register (drive mode) for CintA in HIGHZ-A mode (PC=000) 
2106:Generated_Source\PSoC4/CapSense_SelfTest.c ****                 interruptState = CyEnterCriticalSection();
2107:Generated_Source\PSoC4/CapSense_SelfTest.c ****                 newRegValue = CY_GET_REG32(CapSense_CintA_PC_PTR);
2108:Generated_Source\PSoC4/CapSense_SelfTest.c ****                 newRegValue &= (uint32)(~((uint32)CapSense_GPIO_PC_MASK << (CapSense_CintA_SHIFT * 
2109:Generated_Source\PSoC4/CapSense_SelfTest.c ****                 CY_SET_REG32(CapSense_CintA_PC_PTR, newRegValue);
2110:Generated_Source\PSoC4/CapSense_SelfTest.c ****                 CyExitCriticalSection(interruptState);
2111:Generated_Source\PSoC4/CapSense_SelfTest.c **** 
2112:Generated_Source\PSoC4/CapSense_SelfTest.c ****                 break;
2113:Generated_Source\PSoC4/CapSense_SelfTest.c ****             }
2114:Generated_Source\PSoC4/CapSense_SelfTest.c ****             case CapSense_TST_CINTB_MAP:
2115:Generated_Source\PSoC4/CapSense_SelfTest.c ****             {
2116:Generated_Source\PSoC4/CapSense_SelfTest.c ****                 /* Discharge CintB by using GPIO mode */
2117:Generated_Source\PSoC4/CapSense_SelfTest.c ****                 interruptState = CyEnterCriticalSection();
2118:Generated_Source\PSoC4/CapSense_SelfTest.c ****                 newRegValue = CY_GET_REG32(CapSense_CintB_HSIOM_PTR);
2119:Generated_Source\PSoC4/CapSense_SelfTest.c ****                 newRegValue &= (uint32)(~(uint32)CapSense_CintB_HSIOM_MASK);
2120:Generated_Source\PSoC4/CapSense_SelfTest.c ****                 CY_SET_REG32(CapSense_CintB_HSIOM_PTR, newRegValue);
2121:Generated_Source\PSoC4/CapSense_SelfTest.c ****                 CyExitCriticalSection(interruptState);
2122:Generated_Source\PSoC4/CapSense_SelfTest.c **** 
2123:Generated_Source\PSoC4/CapSense_SelfTest.c ****                 /* Set a CintB HSIOM register to the GPIO mode */
2124:Generated_Source\PSoC4/CapSense_SelfTest.c ****                 interruptState = CyEnterCriticalSection();
2125:Generated_Source\PSoC4/CapSense_SelfTest.c ****                 newRegValue = CY_GET_REG32(CapSense_CintB_HSIOM_PTR);
2126:Generated_Source\PSoC4/CapSense_SelfTest.c ****                 newRegValue &= (uint32)(~(uint32)CapSense_CintB_HSIOM_MASK);
2127:Generated_Source\PSoC4/CapSense_SelfTest.c ****                 newRegValue |= (CapSense_HSIOM_SEL_GPIO << CapSense_CintB_HSIOM_SHIFT);
2128:Generated_Source\PSoC4/CapSense_SelfTest.c ****                 CY_SET_REG32(CapSense_CintB_HSIOM_PTR, newRegValue);
2129:Generated_Source\PSoC4/CapSense_SelfTest.c ****                 CyExitCriticalSection(interruptState);
2130:Generated_Source\PSoC4/CapSense_SelfTest.c **** 
2131:Generated_Source\PSoC4/CapSense_SelfTest.c ****                 /* Set output port register for CintB to 0 to connect CintB to GND */
2132:Generated_Source\PSoC4/CapSense_SelfTest.c ****                 interruptState = CyEnterCriticalSection();
2133:Generated_Source\PSoC4/CapSense_SelfTest.c ****                 newRegValue = CY_GET_REG32(CapSense_CintB_DR_PTR);
2134:Generated_Source\PSoC4/CapSense_SelfTest.c ****                 newRegValue &= (uint32)(~(uint32) (1uL << CapSense_CintB_SHIFT));
2135:Generated_Source\PSoC4/CapSense_SelfTest.c ****                 CY_SET_REG32(CapSense_CintB_DR_PTR, newRegValue);
2136:Generated_Source\PSoC4/CapSense_SelfTest.c ****                 CyExitCriticalSection(interruptState);
2137:Generated_Source\PSoC4/CapSense_SelfTest.c **** 
2138:Generated_Source\PSoC4/CapSense_SelfTest.c ****                 /* Set port configuration register (drive mode) for CintB in STRONG mode */
2139:Generated_Source\PSoC4/CapSense_SelfTest.c ****                 interruptState = CyEnterCriticalSection();
2140:Generated_Source\PSoC4/CapSense_SelfTest.c ****                 newRegValue = CY_GET_REG32(CapSense_CintB_PC_PTR);
2141:Generated_Source\PSoC4/CapSense_SelfTest.c ****                 newRegValue &= (uint32)(~((uint32)CapSense_GPIO_PC_MASK << (CapSense_CintB_SHIFT * 
2142:Generated_Source\PSoC4/CapSense_SelfTest.c ****                 newRegValue |= (CapSense_GPIO_STRGDRV << (CapSense_CintB_SHIFT * 3uL));
2143:Generated_Source\PSoC4/CapSense_SelfTest.c ****                 CY_SET_REG32(CapSense_CintB_PC_PTR, newRegValue);
2144:Generated_Source\PSoC4/CapSense_SelfTest.c ****                 CyExitCriticalSection(interruptState);
2145:Generated_Source\PSoC4/CapSense_SelfTest.c **** 
2146:Generated_Source\PSoC4/CapSense_SelfTest.c ****                 /* Delay 10 uS to discharge CintB */
2147:Generated_Source\PSoC4/CapSense_SelfTest.c ****                 CyDelayUs(10u);
2148:Generated_Source\PSoC4/CapSense_SelfTest.c **** 
2149:Generated_Source\PSoC4/CapSense_SelfTest.c ****                 /* Set port configuration register (drive mode) for CintB in HIGHZ-A mode */
2150:Generated_Source\PSoC4/CapSense_SelfTest.c ****                 interruptState = CyEnterCriticalSection();
2151:Generated_Source\PSoC4/CapSense_SelfTest.c ****                 newRegValue = CY_GET_REG32(CapSense_CintB_PC_PTR);
2152:Generated_Source\PSoC4/CapSense_SelfTest.c ****                 newRegValue &= (uint32)(~((uint32)CapSense_GPIO_PC_MASK << (CapSense_CintB_SHIFT * 
ARM GAS  C:\Users\220036~1\AppData\Local\Temp\ccGySGhB.s 			page 43


2153:Generated_Source\PSoC4/CapSense_SelfTest.c ****                 CY_SET_REG32(CapSense_CintB_PC_PTR, newRegValue);
2154:Generated_Source\PSoC4/CapSense_SelfTest.c ****                 CyExitCriticalSection(interruptState);
2155:Generated_Source\PSoC4/CapSense_SelfTest.c **** 
2156:Generated_Source\PSoC4/CapSense_SelfTest.c ****                 break;
2157:Generated_Source\PSoC4/CapSense_SelfTest.c ****             }
2158:Generated_Source\PSoC4/CapSense_SelfTest.c ****         #endif /* (CapSense_ENABLE == CapSense_CSX_EN) */
2159:Generated_Source\PSoC4/CapSense_SelfTest.c **** 
2160:Generated_Source\PSoC4/CapSense_SelfTest.c ****         default:
2161:Generated_Source\PSoC4/CapSense_SelfTest.c ****         {
2162:Generated_Source\PSoC4/CapSense_SelfTest.c ****             break;
2163:Generated_Source\PSoC4/CapSense_SelfTest.c ****         }
2164:Generated_Source\PSoC4/CapSense_SelfTest.c ****     }
2165:Generated_Source\PSoC4/CapSense_SelfTest.c **** }
2166:Generated_Source\PSoC4/CapSense_SelfTest.c **** 
2167:Generated_Source\PSoC4/CapSense_SelfTest.c **** /*******************************************************************************
2168:Generated_Source\PSoC4/CapSense_SelfTest.c **** * Function Name: CapSense_MeasureAllExtCapCapacitance
2169:Generated_Source\PSoC4/CapSense_SelfTest.c **** ****************************************************************************//**
2170:Generated_Source\PSoC4/CapSense_SelfTest.c **** *
2171:Generated_Source\PSoC4/CapSense_SelfTest.c **** * \brief
2172:Generated_Source\PSoC4/CapSense_SelfTest.c **** *  The internal function that measures a capacitance of all external
2173:Generated_Source\PSoC4/CapSense_SelfTest.c **** *  capacitors.
2174:Generated_Source\PSoC4/CapSense_SelfTest.c **** *
2175:Generated_Source\PSoC4/CapSense_SelfTest.c **** * \details
2176:Generated_Source\PSoC4/CapSense_SelfTest.c **** *  The function measures capacitances of all external  capacitor (Cmod,
2177:Generated_Source\PSoC4/CapSense_SelfTest.c **** *  Csh, CintA, CintB).
2178:Generated_Source\PSoC4/CapSense_SelfTest.c **** *  The function stores cap values in corresponding registers.
2179:Generated_Source\PSoC4/CapSense_SelfTest.c **** *  The function does not affect on another Component parameters or
2180:Generated_Source\PSoC4/CapSense_SelfTest.c **** *  functionalities.
2181:Generated_Source\PSoC4/CapSense_SelfTest.c **** *
2182:Generated_Source\PSoC4/CapSense_SelfTest.c **** * \return
2183:Generated_Source\PSoC4/CapSense_SelfTest.c **** *  Returns the status of the measuring process:
2184:Generated_Source\PSoC4/CapSense_SelfTest.c **** *  - CYRET_SUCCESS if all measurings is successfull;
2185:Generated_Source\PSoC4/CapSense_SelfTest.c **** *  - CapSense_TST_EXTERNAL_CAP if any measuring is failed.
2186:Generated_Source\PSoC4/CapSense_SelfTest.c **** *
2187:Generated_Source\PSoC4/CapSense_SelfTest.c **** *******************************************************************************/
2188:Generated_Source\PSoC4/CapSense_SelfTest.c **** static uint32 CapSense_MeasureAllExtCapCapacitance(void)
2189:Generated_Source\PSoC4/CapSense_SelfTest.c **** {
2190:Generated_Source\PSoC4/CapSense_SelfTest.c ****     uint32 extCapIndex;
2191:Generated_Source\PSoC4/CapSense_SelfTest.c **** 
2192:Generated_Source\PSoC4/CapSense_SelfTest.c ****     CapSense_SsSwitchSensingMode(CapSense_SENSE_METHOD_BIST_E);
2193:Generated_Source\PSoC4/CapSense_SelfTest.c ****     CapSense_BistSwitchHwConfig(CapSense_BIST_HW_EXT_CAP_E);
2194:Generated_Source\PSoC4/CapSense_SelfTest.c ****     CapSense_BistConfigClock(CapSense_TST_EXT_CAP_RESOLUTION);
2195:Generated_Source\PSoC4/CapSense_SelfTest.c ****     /* Set resolution to fixed value) */
2196:Generated_Source\PSoC4/CapSense_SelfTest.c ****     CapSense_BistSetScanDuration();
2197:Generated_Source\PSoC4/CapSense_SelfTest.c **** 
2198:Generated_Source\PSoC4/CapSense_SelfTest.c ****     for (extCapIndex = 0u; extCapIndex < CapSense_TST_EXT_CAPS_NUM; extCapIndex++)
2199:Generated_Source\PSoC4/CapSense_SelfTest.c ****     {
2200:Generated_Source\PSoC4/CapSense_SelfTest.c ****         (void)CapSense_MeasureExtCapCapacitance(extCapIndex);
2201:Generated_Source\PSoC4/CapSense_SelfTest.c ****     }
2202:Generated_Source\PSoC4/CapSense_SelfTest.c **** 
2203:Generated_Source\PSoC4/CapSense_SelfTest.c ****     return (CYRET_SUCCESS);
2204:Generated_Source\PSoC4/CapSense_SelfTest.c **** }
2205:Generated_Source\PSoC4/CapSense_SelfTest.c **** #endif /*(CapSense_ENABLE == CapSense_TST_EXTERNAL_CAP_EN) */
2206:Generated_Source\PSoC4/CapSense_SelfTest.c **** 
2207:Generated_Source\PSoC4/CapSense_SelfTest.c **** /*******************************************************************************
2208:Generated_Source\PSoC4/CapSense_SelfTest.c **** * Function Name: CapSense_BistDisableMode
2209:Generated_Source\PSoC4/CapSense_SelfTest.c **** ****************************************************************************//**
ARM GAS  C:\Users\220036~1\AppData\Local\Temp\ccGySGhB.s 			page 44


2210:Generated_Source\PSoC4/CapSense_SelfTest.c **** *
2211:Generated_Source\PSoC4/CapSense_SelfTest.c **** * \brief
2212:Generated_Source\PSoC4/CapSense_SelfTest.c **** *  Releases captured HW resources.
2213:Generated_Source\PSoC4/CapSense_SelfTest.c **** *
2214:Generated_Source\PSoC4/CapSense_SelfTest.c **** * \details
2215:Generated_Source\PSoC4/CapSense_SelfTest.c **** *  Releases captured HW resources to be used by other modes.
2216:Generated_Source\PSoC4/CapSense_SelfTest.c **** *
2217:Generated_Source\PSoC4/CapSense_SelfTest.c **** *******************************************************************************/
2218:Generated_Source\PSoC4/CapSense_SelfTest.c **** void CapSense_BistDisableMode(void)
2219:Generated_Source\PSoC4/CapSense_SelfTest.c **** {
2220:Generated_Source\PSoC4/CapSense_SelfTest.c ****     #if (CapSense_ENABLE == CapSense_TST_HW_GROUP_EN)
2221:Generated_Source\PSoC4/CapSense_SelfTest.c ****         CapSense_BistSwitchHwConfig(CapSense_BIST_HW_UNDEFINED_E);
2222:Generated_Source\PSoC4/CapSense_SelfTest.c ****         CapSense_bistIoConfig = CapSense_BIST_IO_UNDEFINED_E;
2223:Generated_Source\PSoC4/CapSense_SelfTest.c ****     #endif /* (CapSense_ENABLE == CapSense_TST_HW_GROUP_EN) */
2224:Generated_Source\PSoC4/CapSense_SelfTest.c **** }
2225:Generated_Source\PSoC4/CapSense_SelfTest.c **** 
2226:Generated_Source\PSoC4/CapSense_SelfTest.c **** /*******************************************************************************
2227:Generated_Source\PSoC4/CapSense_SelfTest.c **** * Function Name: CapSense_BistInitialize
2228:Generated_Source\PSoC4/CapSense_SelfTest.c **** ****************************************************************************//**
2229:Generated_Source\PSoC4/CapSense_SelfTest.c **** *
2230:Generated_Source\PSoC4/CapSense_SelfTest.c **** * \brief
2231:Generated_Source\PSoC4/CapSense_SelfTest.c **** *  Initialize the HW resources to Built-in Self-test mode.
2232:Generated_Source\PSoC4/CapSense_SelfTest.c **** *
2233:Generated_Source\PSoC4/CapSense_SelfTest.c **** * \details
2234:Generated_Source\PSoC4/CapSense_SelfTest.c **** *  Preserved the function to be consistent with other modes (CSX or CSD).
2235:Generated_Source\PSoC4/CapSense_SelfTest.c **** *  In practice resource capturing and initialization are performed later when
2236:Generated_Source\PSoC4/CapSense_SelfTest.c **** *  defined which test type should be executed. Depends on the test type HW
2237:Generated_Source\PSoC4/CapSense_SelfTest.c **** *  resources initialized differently. Only disconnection of all IO from AMUX
2238:Generated_Source\PSoC4/CapSense_SelfTest.c **** *  is common for all the test types.
2239:Generated_Source\PSoC4/CapSense_SelfTest.c **** *
2240:Generated_Source\PSoC4/CapSense_SelfTest.c **** *******************************************************************************/
2241:Generated_Source\PSoC4/CapSense_SelfTest.c **** void CapSense_BistInitialize(void)
2242:Generated_Source\PSoC4/CapSense_SelfTest.c **** {
2243:Generated_Source\PSoC4/CapSense_SelfTest.c ****     #if (CapSense_ENABLE == CapSense_TST_HW_GROUP_EN)
2244:Generated_Source\PSoC4/CapSense_SelfTest.c ****         #if ((CapSense_ENABLE == CapSense_CSD_SHIELD_EN) && \
2245:Generated_Source\PSoC4/CapSense_SelfTest.c ****             (CapSense_SNS_CONNECTION_SHIELD == CapSense_CSD_INACTIVE_SNS_CONNECTION))
2246:Generated_Source\PSoC4/CapSense_SelfTest.c ****             /* Disconnect all the IOs from analog mux busses */
2247:Generated_Source\PSoC4/CapSense_SelfTest.c ****             CapSense_SetAllIOHsiomState(CapSense_TST_HSIOM_GPIO);
2248:Generated_Source\PSoC4/CapSense_SelfTest.c ****         #endif
2249:Generated_Source\PSoC4/CapSense_SelfTest.c ****         /* Set data register to GND that is applicable for all the tests */
2250:Generated_Source\PSoC4/CapSense_SelfTest.c ****         CapSense_SetAllIODrState(CapSense_TST_DR_PIN2GND);
2251:Generated_Source\PSoC4/CapSense_SelfTest.c ****     #endif /* (CapSense_ENABLE == CapSense_TST_HW_GROUP_EN) */
2252:Generated_Source\PSoC4/CapSense_SelfTest.c **** }
2253:Generated_Source\PSoC4/CapSense_SelfTest.c **** 
2254:Generated_Source\PSoC4/CapSense_SelfTest.c **** #if ((CapSense_ENABLE == CapSense_TST_SH_CAP_EN) && \
2255:Generated_Source\PSoC4/CapSense_SelfTest.c ****      (0u != CapSense_CSD_TOTAL_SHIELD_COUNT))
2256:Generated_Source\PSoC4/CapSense_SelfTest.c **** 
2257:Generated_Source\PSoC4/CapSense_SelfTest.c **** /*******************************************************************************
2258:Generated_Source\PSoC4/CapSense_SelfTest.c **** * Function Name: CapSense_BistConnectShieldAsSensor
2259:Generated_Source\PSoC4/CapSense_SelfTest.c **** ****************************************************************************//**
2260:Generated_Source\PSoC4/CapSense_SelfTest.c **** *
2261:Generated_Source\PSoC4/CapSense_SelfTest.c **** * \brief
2262:Generated_Source\PSoC4/CapSense_SelfTest.c **** *  Connects (a) shield electrode(s) to the HW block via the AMUX bus.
2263:Generated_Source\PSoC4/CapSense_SelfTest.c **** *
2264:Generated_Source\PSoC4/CapSense_SelfTest.c **** * \details
2265:Generated_Source\PSoC4/CapSense_SelfTest.c **** *   The function gets the IO configuration registers addresses, their shifts and
2266:Generated_Source\PSoC4/CapSense_SelfTest.c **** *   masks from the SHIELD_IO_STRUCT object. Basing on this data, it updates
ARM GAS  C:\Users\220036~1\AppData\Local\Temp\ccGySGhB.s 			page 45


2267:Generated_Source\PSoC4/CapSense_SelfTest.c **** *   the HSIOM and PC registers.
2268:Generated_Source\PSoC4/CapSense_SelfTest.c **** *
2269:Generated_Source\PSoC4/CapSense_SelfTest.c **** *******************************************************************************/
2270:Generated_Source\PSoC4/CapSense_SelfTest.c **** static void CapSense_BistConnectShieldAsSensor(void)
2271:Generated_Source\PSoC4/CapSense_SelfTest.c **** {
2272:Generated_Source\PSoC4/CapSense_SelfTest.c ****     uint8 interruptState;
2273:Generated_Source\PSoC4/CapSense_SelfTest.c ****     uint32 regValue;
2274:Generated_Source\PSoC4/CapSense_SelfTest.c ****     uint32 eltdIndex;
2275:Generated_Source\PSoC4/CapSense_SelfTest.c ****     CapSense_SHIELD_IO_STRUCT const *ioPtr;
2276:Generated_Source\PSoC4/CapSense_SelfTest.c **** 
2277:Generated_Source\PSoC4/CapSense_SelfTest.c ****     /* Loop through all electrodes of Shield */
2278:Generated_Source\PSoC4/CapSense_SelfTest.c ****     for (eltdIndex = 0u; eltdIndex < CapSense_CSD_TOTAL_SHIELD_COUNT; eltdIndex++)
2279:Generated_Source\PSoC4/CapSense_SelfTest.c ****     {
2280:Generated_Source\PSoC4/CapSense_SelfTest.c ****         ioPtr = &CapSense_shieldIoList[eltdIndex];
2281:Generated_Source\PSoC4/CapSense_SelfTest.c **** 
2282:Generated_Source\PSoC4/CapSense_SelfTest.c ****         /* Set electrode to High-Z Analog */
2283:Generated_Source\PSoC4/CapSense_SelfTest.c ****         interruptState = CyEnterCriticalSection();
2284:Generated_Source\PSoC4/CapSense_SelfTest.c ****         regValue = CY_GET_REG32(ioPtr->pcPtr);
2285:Generated_Source\PSoC4/CapSense_SelfTest.c ****         regValue &= ~(CapSense_GPIO_PC_MASK << ioPtr->shift);
2286:Generated_Source\PSoC4/CapSense_SelfTest.c ****         CY_SET_REG32(ioPtr->pcPtr, regValue);
2287:Generated_Source\PSoC4/CapSense_SelfTest.c ****         CyExitCriticalSection(interruptState);
2288:Generated_Source\PSoC4/CapSense_SelfTest.c **** 
2289:Generated_Source\PSoC4/CapSense_SelfTest.c ****         /* Update HSIOM port select register */
2290:Generated_Source\PSoC4/CapSense_SelfTest.c ****         interruptState = CyEnterCriticalSection();
2291:Generated_Source\PSoC4/CapSense_SelfTest.c ****         regValue = CY_GET_REG32(ioPtr->hsiomPtr);
2292:Generated_Source\PSoC4/CapSense_SelfTest.c ****         regValue &= ~(ioPtr->hsiomMask);
2293:Generated_Source\PSoC4/CapSense_SelfTest.c ****         regValue |= (CapSense_TST_HSIOM_CSD_SENSE << ioPtr->hsiomShift);
2294:Generated_Source\PSoC4/CapSense_SelfTest.c ****         CY_SET_REG32(ioPtr->hsiomPtr, regValue);
2295:Generated_Source\PSoC4/CapSense_SelfTest.c ****         CyExitCriticalSection(interruptState);
2296:Generated_Source\PSoC4/CapSense_SelfTest.c ****     }
2297:Generated_Source\PSoC4/CapSense_SelfTest.c **** }
2298:Generated_Source\PSoC4/CapSense_SelfTest.c **** #endif /* ((CapSense_ENABLE == CapSense_TST_SH_CAP_EN) && \
2299:Generated_Source\PSoC4/CapSense_SelfTest.c ****            (0u != CapSense_CSD_TOTAL_SHIELD_COUNT)) */
2300:Generated_Source\PSoC4/CapSense_SelfTest.c **** 
2301:Generated_Source\PSoC4/CapSense_SelfTest.c **** #if ((CapSense_ENABLE == CapSense_TST_SNS_CAP_EN) && \
2302:Generated_Source\PSoC4/CapSense_SelfTest.c ****      (CapSense_ENABLE == CapSense_CSD_SHIELD_EN) && \
2303:Generated_Source\PSoC4/CapSense_SelfTest.c ****      (0u != CapSense_CSD_TOTAL_SHIELD_COUNT))
2304:Generated_Source\PSoC4/CapSense_SelfTest.c **** 
2305:Generated_Source\PSoC4/CapSense_SelfTest.c **** /*******************************************************************************
2306:Generated_Source\PSoC4/CapSense_SelfTest.c **** * Function Name: CapSense_BistEnableShieldElectrodes
2307:Generated_Source\PSoC4/CapSense_SelfTest.c **** ****************************************************************************//**
2308:Generated_Source\PSoC4/CapSense_SelfTest.c **** *
2309:Generated_Source\PSoC4/CapSense_SelfTest.c **** * \brief
2310:Generated_Source\PSoC4/CapSense_SelfTest.c **** *  This internal function initializes Shield Electrodes.
2311:Generated_Source\PSoC4/CapSense_SelfTest.c **** *
2312:Generated_Source\PSoC4/CapSense_SelfTest.c **** * \details
2313:Generated_Source\PSoC4/CapSense_SelfTest.c **** *  The function sets the bit in the HSIOM register which enables the shield electrode
2314:Generated_Source\PSoC4/CapSense_SelfTest.c **** *  functionality on the pin. The port and pin configurations are stored in
2315:Generated_Source\PSoC4/CapSense_SelfTest.c **** *  the CapSense_shieldIoList structure.
2316:Generated_Source\PSoC4/CapSense_SelfTest.c **** *
2317:Generated_Source\PSoC4/CapSense_SelfTest.c **** *******************************************************************************/
2318:Generated_Source\PSoC4/CapSense_SelfTest.c **** static void CapSense_BistEnableShieldElectrodes(void)
2319:Generated_Source\PSoC4/CapSense_SelfTest.c **** {
 239              		.loc 1 2319 0
 240              		.cfi_startproc
 241              		@ args = 0, pretend = 0, frame = 0
 242              		@ frame_needed = 0, uses_anonymous_args = 0
ARM GAS  C:\Users\220036~1\AppData\Local\Temp\ccGySGhB.s 			page 46


 243 0000 F0B5     		push	{r4, r5, r6, r7, lr}
 244              		.cfi_def_cfa_offset 20
 245              		.cfi_offset 4, -20
 246              		.cfi_offset 5, -16
 247              		.cfi_offset 6, -12
 248              		.cfi_offset 7, -8
 249              		.cfi_offset 14, -4
 250              	.LVL22:
2320:Generated_Source\PSoC4/CapSense_SelfTest.c ****     uint32 newRegValue;
2321:Generated_Source\PSoC4/CapSense_SelfTest.c ****     uint32 shieldIndex;
2322:Generated_Source\PSoC4/CapSense_SelfTest.c **** 
2323:Generated_Source\PSoC4/CapSense_SelfTest.c ****     for (shieldIndex = 0u; shieldIndex < CapSense_CSD_TOTAL_SHIELD_COUNT; shieldIndex++)
 251              		.loc 1 2323 0
 252 0002 0023     		movs	r3, #0
 253 0004 18E0     		b	.L15
 254              	.LVL23:
 255              	.L16:
2324:Generated_Source\PSoC4/CapSense_SelfTest.c ****     {
2325:Generated_Source\PSoC4/CapSense_SelfTest.c ****         /* Set drive mode to Analog */
2326:Generated_Source\PSoC4/CapSense_SelfTest.c ****         CY_SET_REG32(CapSense_shieldIoList[shieldIndex].pcPtr, CY_GET_REG32(CapSense_shieldIoList[s
 256              		.loc 1 2326 0 discriminator 3
 257 0006 0E4E     		ldr	r6, .L17
 258 0008 5900     		lsls	r1, r3, #1
 259 000a C818     		adds	r0, r1, r3
 260 000c C200     		lsls	r2, r0, #3
 261 000e B218     		adds	r2, r6, r2
 262 0010 5568     		ldr	r5, [r2, #4]
 263 0012 2868     		ldr	r0, [r5]
 264 0014 977D     		ldrb	r7, [r2, #22]
 265 0016 0724     		movs	r4, #7
 266 0018 BC40     		lsls	r4, r4, r7
 267 001a A043     		bics	r0, r4
 268 001c 2860     		str	r0, [r5]
2327:Generated_Source\PSoC4/CapSense_SelfTest.c ****                    ~(CapSense_GPIO_PC_MASK <<(CapSense_shieldIoList[shieldIndex].shift)));
2328:Generated_Source\PSoC4/CapSense_SelfTest.c **** 
2329:Generated_Source\PSoC4/CapSense_SelfTest.c ****         /* Set HSIOM register mode to CSD_SHIELD or AMUXBUS B connection */
2330:Generated_Source\PSoC4/CapSense_SelfTest.c ****         newRegValue = CY_GET_REG32(CapSense_shieldIoList[shieldIndex].hsiomPtr);
 269              		.loc 1 2330 0 discriminator 3
 270 001e C918     		adds	r1, r1, r3
 271 0020 C800     		lsls	r0, r1, #3
 272 0022 8059     		ldr	r0, [r0, r6]
 273 0024 0168     		ldr	r1, [r0]
 274              	.LVL24:
2331:Generated_Source\PSoC4/CapSense_SelfTest.c ****         newRegValue &= ~(CapSense_HSIOM_SEL_MASK << (CapSense_shieldIoList[shieldIndex].hsiomShift)
 275              		.loc 1 2331 0 discriminator 3
 276 0026 147D     		ldrb	r4, [r2, #20]
 277 0028 0F22     		movs	r2, #15
 278 002a A240     		lsls	r2, r2, r4
 279 002c 9143     		bics	r1, r2
 280              	.LVL25:
2332:Generated_Source\PSoC4/CapSense_SelfTest.c **** 
2333:Generated_Source\PSoC4/CapSense_SelfTest.c ****         /* Set HSIOM register mode to CSD_SHIELD */
2334:Generated_Source\PSoC4/CapSense_SelfTest.c ****         newRegValue |= (CapSense_HSIOM_SEL_CSD_SHIELD << (CapSense_shieldIoList[shieldIndex].hsiomS
 281              		.loc 1 2334 0 discriminator 3
 282 002e 0522     		movs	r2, #5
 283 0030 A240     		lsls	r2, r2, r4
 284 0032 0A43     		orrs	r2, r1
ARM GAS  C:\Users\220036~1\AppData\Local\Temp\ccGySGhB.s 			page 47


 285              	.LVL26:
2335:Generated_Source\PSoC4/CapSense_SelfTest.c **** 
2336:Generated_Source\PSoC4/CapSense_SelfTest.c ****         CY_SET_REG32(CapSense_shieldIoList[shieldIndex].hsiomPtr, newRegValue);
 286              		.loc 1 2336 0 discriminator 3
 287 0034 0260     		str	r2, [r0]
2323:Generated_Source\PSoC4/CapSense_SelfTest.c ****     {
 288              		.loc 1 2323 0 discriminator 3
 289 0036 0133     		adds	r3, r3, #1
 290              	.LVL27:
 291              	.L15:
2323:Generated_Source\PSoC4/CapSense_SelfTest.c ****     {
 292              		.loc 1 2323 0 is_stmt 0 discriminator 1
 293 0038 002B     		cmp	r3, #0
 294 003a E4D0     		beq	.L16
2337:Generated_Source\PSoC4/CapSense_SelfTest.c ****     }
2338:Generated_Source\PSoC4/CapSense_SelfTest.c **** }
 295              		.loc 1 2338 0 is_stmt 1
 296              		@ sp needed
 297 003c F0BD     		pop	{r4, r5, r6, r7, pc}
 298              	.L18:
 299 003e C046     		.align	2
 300              	.L17:
 301 0040 00000000 		.word	CapSense_shieldIoList
 302              		.cfi_endproc
 303              	.LFE32:
 304              		.size	CapSense_BistEnableShieldElectrodes, .-CapSense_BistEnableShieldElectrodes
 305              		.section	.text.CapSense_BistEnableShieldTank,"ax",%progbits
 306              		.align	2
 307              		.code	16
 308              		.thumb_func
 309              		.type	CapSense_BistEnableShieldTank, %function
 310              	CapSense_BistEnableShieldTank:
 311              	.LFB33:
2339:Generated_Source\PSoC4/CapSense_SelfTest.c **** #endif /* ((CapSense_ENABLE == CapSense_TST_SNS_CAP_EN) && \
2340:Generated_Source\PSoC4/CapSense_SelfTest.c ****            (CapSense_ENABLE == CapSense_CSD_SHIELD_EN) && \
2341:Generated_Source\PSoC4/CapSense_SelfTest.c ****            (0u != CapSense_CSD_TOTAL_SHIELD_COUNT)) */
2342:Generated_Source\PSoC4/CapSense_SelfTest.c **** 
2343:Generated_Source\PSoC4/CapSense_SelfTest.c **** #if ((CapSense_ENABLE == CapSense_CSD_SHIELD_EN) && \
2344:Generated_Source\PSoC4/CapSense_SelfTest.c ****      (CapSense_ENABLE == CapSense_TST_SNS_CAP_EN) && \
2345:Generated_Source\PSoC4/CapSense_SelfTest.c ****      (CapSense_ENABLE == CapSense_CSD_SHIELD_TANK_EN))
2346:Generated_Source\PSoC4/CapSense_SelfTest.c **** 
2347:Generated_Source\PSoC4/CapSense_SelfTest.c **** /*******************************************************************************
2348:Generated_Source\PSoC4/CapSense_SelfTest.c **** * Function Name: CapSense_BistEnableShieldTank
2349:Generated_Source\PSoC4/CapSense_SelfTest.c **** ****************************************************************************//**
2350:Generated_Source\PSoC4/CapSense_SelfTest.c **** *
2351:Generated_Source\PSoC4/CapSense_SelfTest.c **** * \brief
2352:Generated_Source\PSoC4/CapSense_SelfTest.c **** *   This function configures Csh pin
2353:Generated_Source\PSoC4/CapSense_SelfTest.c **** *
2354:Generated_Source\PSoC4/CapSense_SelfTest.c **** * \details
2355:Generated_Source\PSoC4/CapSense_SelfTest.c **** *   The function updates the CSH_HSIOM register to connect Csh to AMUXBUS-B.
2356:Generated_Source\PSoC4/CapSense_SelfTest.c **** *   For Third-generation HW block it additionally sets Strong drive mode for Csh
2357:Generated_Source\PSoC4/CapSense_SelfTest.c **** *   and applies High level to Csh pin when precharge is set to IO buffer.
2358:Generated_Source\PSoC4/CapSense_SelfTest.c **** *
2359:Generated_Source\PSoC4/CapSense_SelfTest.c **** *******************************************************************************/
2360:Generated_Source\PSoC4/CapSense_SelfTest.c **** static void CapSense_BistEnableShieldTank(void)
2361:Generated_Source\PSoC4/CapSense_SelfTest.c **** {
 312              		.loc 1 2361 0
ARM GAS  C:\Users\220036~1\AppData\Local\Temp\ccGySGhB.s 			page 48


 313              		.cfi_startproc
 314              		@ args = 0, pretend = 0, frame = 0
 315              		@ frame_needed = 0, uses_anonymous_args = 0
 316              		@ link register save eliminated.
2362:Generated_Source\PSoC4/CapSense_SelfTest.c ****     uint32 newRegValue;
2363:Generated_Source\PSoC4/CapSense_SelfTest.c **** 
2364:Generated_Source\PSoC4/CapSense_SelfTest.c ****     /* Update the CSH_HSIOM register to connect Csh to AMUXBUS-B */
2365:Generated_Source\PSoC4/CapSense_SelfTest.c ****     newRegValue = CY_GET_REG32(CapSense_CSH_HSIOM_PTR);
 317              		.loc 1 2365 0
 318 0000 044A     		ldr	r2, .L20
 319 0002 1168     		ldr	r1, [r2]
 320              	.LVL28:
2366:Generated_Source\PSoC4/CapSense_SelfTest.c ****     newRegValue &= (uint32)(~(uint32)CapSense_CSH_HSIOM_MASK);
 321              		.loc 1 2366 0
 322 0004 044B     		ldr	r3, .L20+4
 323 0006 0B40     		ands	r3, r1
 324              	.LVL29:
2367:Generated_Source\PSoC4/CapSense_SelfTest.c ****     newRegValue |= (CapSense_CSH_TO_AMUXBUS_B_MASK << CapSense_CSH_HSIOM_SHIFT);
 325              		.loc 1 2367 0
 326 0008 E021     		movs	r1, #224
 327 000a C900     		lsls	r1, r1, #3
 328 000c 0B43     		orrs	r3, r1
 329              	.LVL30:
2368:Generated_Source\PSoC4/CapSense_SelfTest.c ****     CY_SET_REG32(CapSense_CSH_HSIOM_PTR, newRegValue);
 330              		.loc 1 2368 0
 331 000e 1360     		str	r3, [r2]
2369:Generated_Source\PSoC4/CapSense_SelfTest.c **** 
2370:Generated_Source\PSoC4/CapSense_SelfTest.c ****     #if ((CapSense_CSH_PRECHARGE_IO_BUF == CapSense_CSD_CSH_PRECHARGE_SRC) &&\
2371:Generated_Source\PSoC4/CapSense_SelfTest.c ****          (CapSense_DISABLE == CapSense_CSDV2))
2372:Generated_Source\PSoC4/CapSense_SelfTest.c ****         /* Set the Strong drive mode for Csh */
2373:Generated_Source\PSoC4/CapSense_SelfTest.c ****         newRegValue = CY_GET_REG32(CapSense_CSH_PC_PTR);
2374:Generated_Source\PSoC4/CapSense_SelfTest.c ****         newRegValue &= (uint32)(~(CapSense_CSH_PC_MASK << CapSense_CSH_PC_SHIFT));
2375:Generated_Source\PSoC4/CapSense_SelfTest.c ****         newRegValue |= (CapSense_CSH_PC_STRONG_MODE << CapSense_CSH_PC_SHIFT);
2376:Generated_Source\PSoC4/CapSense_SelfTest.c ****         CY_SET_REG32(CapSense_CSH_PC_PTR, newRegValue);
2377:Generated_Source\PSoC4/CapSense_SelfTest.c **** 
2378:Generated_Source\PSoC4/CapSense_SelfTest.c ****         /* Apply High level to the Csh pin for Csh */
2379:Generated_Source\PSoC4/CapSense_SelfTest.c ****         newRegValue = CY_GET_REG32(CapSense_CSH_DR_PTR);
2380:Generated_Source\PSoC4/CapSense_SelfTest.c ****         newRegValue &= (uint32)(~(CapSense_DR_MASK << CapSense_CSH_SHIFT));
2381:Generated_Source\PSoC4/CapSense_SelfTest.c ****         newRegValue |= (uint32)CapSense_CSH_DR_CONFIG;
2382:Generated_Source\PSoC4/CapSense_SelfTest.c ****         CY_SET_REG32(CapSense_CSH_DR_PTR, newRegValue);
2383:Generated_Source\PSoC4/CapSense_SelfTest.c ****     #endif /* ((CapSense_CSH_PRECHARGE_IO_BUF == CapSense_CSD_CSH_PRECHARGE_SRC) &&\
2384:Generated_Source\PSoC4/CapSense_SelfTest.c ****                (CapSense_DISABLE == CapSense_CSDV2)) */
2385:Generated_Source\PSoC4/CapSense_SelfTest.c **** }
 332              		.loc 1 2385 0
 333              		@ sp needed
 334 0010 7047     		bx	lr
 335              	.L21:
 336 0012 C046     		.align	2
 337              	.L20:
 338 0014 00040240 		.word	1073873920
 339 0018 FFF0FFFF 		.word	-3841
 340              		.cfi_endproc
 341              	.LFE33:
 342              		.size	CapSense_BistEnableShieldTank, .-CapSense_BistEnableShieldTank
 343              		.section	.text.CapSense_BistDisableShieldElectrodes,"ax",%progbits
 344              		.align	2
 345              		.code	16
ARM GAS  C:\Users\220036~1\AppData\Local\Temp\ccGySGhB.s 			page 49


 346              		.thumb_func
 347              		.type	CapSense_BistDisableShieldElectrodes, %function
 348              	CapSense_BistDisableShieldElectrodes:
 349              	.LFB43:
2386:Generated_Source\PSoC4/CapSense_SelfTest.c **** #endif /* ((CapSense_ENABLE == CapSense_CSD_SHIELD_EN) && \
2387:Generated_Source\PSoC4/CapSense_SelfTest.c ****            (CapSense_ENABLE == CapSense_TST_SNS_CAP_EN) && \
2388:Generated_Source\PSoC4/CapSense_SelfTest.c ****            (CapSense_ENABLE == CapSense_CSD_SHIELD_TANK_EN)) */
2389:Generated_Source\PSoC4/CapSense_SelfTest.c **** 
2390:Generated_Source\PSoC4/CapSense_SelfTest.c **** /** \cond SECTION_C_LOW_LEVEL */
2391:Generated_Source\PSoC4/CapSense_SelfTest.c **** #if (CapSense_ENABLE == CapSense_TST_SNS_CAP_EN)
2392:Generated_Source\PSoC4/CapSense_SelfTest.c **** 
2393:Generated_Source\PSoC4/CapSense_SelfTest.c **** /*******************************************************************************
2394:Generated_Source\PSoC4/CapSense_SelfTest.c **** * Function Name: CapSense_GetSensorCapacitance
2395:Generated_Source\PSoC4/CapSense_SelfTest.c **** ****************************************************************************//**
2396:Generated_Source\PSoC4/CapSense_SelfTest.c **** *
2397:Generated_Source\PSoC4/CapSense_SelfTest.c **** * \brief
2398:Generated_Source\PSoC4/CapSense_SelfTest.c **** *  Measures the specified widget/sensor capacitance.
2399:Generated_Source\PSoC4/CapSense_SelfTest.c **** *
2400:Generated_Source\PSoC4/CapSense_SelfTest.c **** * \details
2401:Generated_Source\PSoC4/CapSense_SelfTest.c **** *  The function measures capacitance of the specified sensor and returns the
2402:Generated_Source\PSoC4/CapSense_SelfTest.c **** *  result, alternatively the result is stored in the Component data structure.
2403:Generated_Source\PSoC4/CapSense_SelfTest.c **** *
