ARM GAS  C:\Users\220036~1\AppData\Local\Temp\cc4u03Fk.s 			page 1


   1              		.syntax unified
   2              		.cpu cortex-m0plus
   3              		.fpu softvfp
   4              		.eabi_attribute 20, 1
   5              		.eabi_attribute 21, 1
   6              		.eabi_attribute 23, 3
   7              		.eabi_attribute 24, 1
   8              		.eabi_attribute 25, 1
   9              		.eabi_attribute 26, 1
  10              		.eabi_attribute 30, 1
  11              		.eabi_attribute 34, 0
  12              		.eabi_attribute 18, 4
  13              		.thumb
  14              		.syntax unified
  15              		.file	"main.c"
  16              		.text
  17              	.Ltext0:
  18              		.cfi_sections	.debug_frame
  19              		.section	.text.main,"ax",%progbits
  20              		.align	2
  21              		.global	main
  22              		.code	16
  23              		.thumb_func
  24              		.type	main, %function
  25              	main:
  26              	.LFB34:
  27              		.file 1 "main.c"
   1:main.c        **** /* ========================================
   2:main.c        ****  *
   3:main.c        ****  * Copyright YOUR COMPANY, THE YEAR
   4:main.c        ****  * All Rights Reserved
   5:main.c        ****  * UNPUBLISHED, LICENSED SOFTWARE.
   6:main.c        ****  *
   7:main.c        ****  * CONFIDENTIAL AND PROPRIETARY INFORMATION
   8:main.c        ****  * WHICH IS THE PROPERTY OF your company.
   9:main.c        ****  *
  10:main.c        ****  * ========================================
  11:main.c        **** */
  12:main.c        **** #include "project.h"
  13:main.c        **** #include "stdio.h"
  14:main.c        **** 
  15:main.c        **** /* uncomment following statement to enable CapSense tuner */
  16:main.c        **** #define TUNER_ENABLED               (1u)
  17:main.c        **** 
  18:main.c        **** #define CMOD (1u)
  19:main.c        **** #define SHIELD_ENABLED (1u)
  20:main.c        **** #define SHIELD_TANK_CAPACITOR (1u)
  21:main.c        **** 
  22:main.c        **** #define SLAVE_BUFFER_FIXED ((CMOD + SHIELD_ENABLED + SHIELD_TANK_CAPACITOR) * 2)
  23:main.c        **** 
  24:main.c        **** #define LED_OFF 0u
  25:main.c        **** #define LED_ON 1u
  26:main.c        **** 
  27:main.c        **** #define LOW 0u
  28:main.c        **** #define HI 1u
  29:main.c        **** 
  30:main.c        **** #define FALSE 0u
ARM GAS  C:\Users\220036~1\AppData\Local\Temp\cc4u03Fk.s 			page 2


  31:main.c        **** #define TRUE 1u
  32:main.c        **** 
  33:main.c        **** #define NO_KEY_PRESSED 0xff
  34:main.c        **** 
  35:main.c        **** enum
  36:main.c        **** {
  37:main.c        **** 	KEY00,
  38:main.c        **** 	KEY01,
  39:main.c        **** };
  40:main.c        **** 
  41:main.c        **** 
  42:main.c        **** int main(void)
  43:main.c        **** {
  28              		.loc 1 43 0
  29              		.cfi_startproc
  30              		@ args = 0, pretend = 0, frame = 8
  31              		@ frame_needed = 0, uses_anonymous_args = 0
  32 0000 F0B5     		push	{r4, r5, r6, r7, lr}
  33              		.cfi_def_cfa_offset 20
  34              		.cfi_offset 4, -20
  35              		.cfi_offset 5, -16
  36              		.cfi_offset 6, -12
  37              		.cfi_offset 7, -8
  38              		.cfi_offset 14, -4
  39 0002 4746     		mov	r7, r8
  40 0004 80B4     		push	{r7}
  41              		.cfi_def_cfa_offset 24
  42              		.cfi_offset 8, -24
  43 0006 82B0     		sub	sp, sp, #8
  44              		.cfi_def_cfa_offset 32
  45              	.LVL0:
  44:main.c        ****     uint16 i;
  45:main.c        **** 	uint8 activeKey = NO_KEY_PRESSED;	/* number of the most recent key pressed */
  46:main.c        **** 	uint8 previousKey = NO_KEY_PRESSED;	/* keep track of last key pressed ... to be used in "new event
  47:main.c        **** 	uint8 multipleKeyFlag = FALSE;
  48:main.c        **** 	uint8 numActiveSensors;	/* number of active sensors in a given scan cycle */
  49:main.c        **** 	char printBuf[60]; /* buffer used for sprintf */
  50:main.c        **** 	
  51:main.c        **** 	CyGlobalIntEnable; /* Enable global interrupts. */
  46              		.loc 1 51 0
  47              		.syntax divided
  48              	@ 51 "main.c" 1
  49 0008 62B6     		CPSIE   i
  50              	@ 0 "" 2
  52:main.c        **** 
  53:main.c        ****     /* Place your initialization/startup code here (e.g. MyInst_Start()) */
  54:main.c        **** 	
  55:main.c        **** 	HB_LED_Write(LED_ON);
  51              		.loc 1 55 0
  52              		.thumb
  53              		.syntax unified
  54 000a 0120     		movs	r0, #1
  55 000c FFF7FEFF 		bl	HB_LED_Write
  56              	.LVL1:
  56:main.c        **** 	CyDelay(500);
  57              		.loc 1 56 0
  58 0010 FA24     		movs	r4, #250
ARM GAS  C:\Users\220036~1\AppData\Local\Temp\cc4u03Fk.s 			page 3


  59 0012 6400     		lsls	r4, r4, #1
  60 0014 2000     		movs	r0, r4
  61 0016 FFF7FEFF 		bl	CyDelay
  62              	.LVL2:
  57:main.c        **** 	HB_LED_Write(LED_OFF);
  63              		.loc 1 57 0
  64 001a 0020     		movs	r0, #0
  65 001c FFF7FEFF 		bl	HB_LED_Write
  66              	.LVL3:
  58:main.c        **** 	CyDelay(500);	
  67              		.loc 1 58 0
  68 0020 2000     		movs	r0, r4
  69 0022 FFF7FEFF 		bl	CyDelay
  70              	.LVL4:
  59:main.c        **** 	
  60:main.c        **** 	#if TUNER_ENABLED || CapSense_SELF_TEST_EN
  61:main.c        **** 		#ifdef CY_SCB_EZI2C_EZI2C_H
  62:main.c        **** 			/* Start EZI2C block */
  63:main.c        **** 		    EZI2C_Start();
  71              		.loc 1 63 0
  72 0026 FFF7FEFF 		bl	EZI2C_Start
  73              	.LVL5:
  64:main.c        **** 		#endif
  65:main.c        **** 	#endif
  66:main.c        ****     
  67:main.c        ****     #if TUNER_ENABLED
  68:main.c        **** 		#ifdef CY_SCB_EZI2C_EZI2C_H
  69:main.c        **** 			/* Set up I2C communication data buffer with CapSense data structure 
  70:main.c        **** 	        to be exposed to I2C master on a primary slave address request
  71:main.c        **** 	        */
  72:main.c        **** 	        EZI2C_EzI2CSetBuffer1(sizeof(CapSense_dsRam), sizeof(CapSense_dsRam),(uint8 *)&CapSense_ds
  74              		.loc 1 72 0
  75 002a 484A     		ldr	r2, .L19
  76 002c 7C21     		movs	r1, #124
  77 002e 7C20     		movs	r0, #124
  78 0030 FFF7FEFF 		bl	EZI2C_EzI2CSetBuffer1
  79              	.LVL6:
  73:main.c        **** 		#endif
  74:main.c        ****     #endif
  75:main.c        **** 	
  76:main.c        **** 	#ifdef CY_SCB_UART_H
  77:main.c        **** 		UART_Start();
  78:main.c        **** 		UART_UartPutString("\nSlave UART started\r\n");
  79:main.c        **** 	#endif
  80:main.c        **** 	
  81:main.c        **** 	CapSense_Start(); /* Initialize component */
  80              		.loc 1 81 0
  81 0034 FFF7FEFF 		bl	CapSense_Start
  82              	.LVL7:
  82:main.c        **** 	
  83:main.c        **** 	#if CapSense_SELF_TEST_EN
  84:main.c        **** 		uint16 wdgtNumber, snsNumber, totalNumSensors = 0;
  85:main.c        **** 		uint32 capacitanceValue;
  86:main.c        **** 		uint8 slaveBuffer[SLAVE_BUFFER_FIXED + CapSense_TOTAL_CSD_SENSORS];
  87:main.c        **** 		CapSense_FLASH_WD_STRUCT const *ptrFlashWidget;
  88:main.c        **** 		CapSense_RAM_SNS_STRUCT *ptrSns;
  89:main.c        **** 		
ARM GAS  C:\Users\220036~1\AppData\Local\Temp\cc4u03Fk.s 			page 4


  90:main.c        **** 		#if EZI2C_EZI2C_NUMBER_OF_ADDRESSES
  91:main.c        **** 			EZI2C_EzI2CSetBuffer2(sizeof(slaveBuffer), 0, (uint8 *)&slaveBuffer);
  83              		.loc 1 91 0
  84 0038 6A46     		mov	r2, sp
  85 003a 0021     		movs	r1, #0
  86 003c 0820     		movs	r0, #8
  87 003e FFF7FEFF 		bl	EZI2C_EzI2CSetBuffer2
  88              	.LVL8:
  92:main.c        **** 		#endif
  93:main.c        **** 		
  94:main.c        **** 		capacitanceValue = CapSense_GetExtCapCapacitance(CapSense_TST_CMOD_ID);
  89              		.loc 1 94 0
  90 0042 0020     		movs	r0, #0
  91 0044 FFF7FEFF 		bl	CapSense_GetExtCapCapacitance
  92              	.LVL9:
  95:main.c        **** 		slaveBuffer[0] = (uint8) (capacitanceValue >> 8);
  93              		.loc 1 95 0
  94 0048 030A     		lsrs	r3, r0, #8
  95 004a 6A46     		mov	r2, sp
  96 004c 1370     		strb	r3, [r2]
  96:main.c        **** 		slaveBuffer[1] = (uint8) (capacitanceValue >> 0);
  97              		.loc 1 96 0
  98 004e 5070     		strb	r0, [r2, #1]
  97:main.c        **** 		#ifdef CY_SCB_UART_H
  98:main.c        **** 			sprintf(printBuf, "Cmod value = %lu pF\r\n", capacitanceValue);
  99:main.c        **** 			UART_UartPutString(printBuf);
 100:main.c        **** 		#endif
 101:main.c        **** 		
 102:main.c        **** 		capacitanceValue = CapSense_GetExtCapCapacitance(CapSense_TST_CSH_ID);
  99              		.loc 1 102 0
 100 0050 0120     		movs	r0, #1
 101              	.LVL10:
 102 0052 FFF7FEFF 		bl	CapSense_GetExtCapCapacitance
 103              	.LVL11:
 103:main.c        **** 		slaveBuffer[2] = (uint8) (capacitanceValue >> 8);
 104              		.loc 1 103 0
 105 0056 030A     		lsrs	r3, r0, #8
 106 0058 6A46     		mov	r2, sp
 107 005a 9370     		strb	r3, [r2, #2]
 104:main.c        **** 		slaveBuffer[3] = (uint8) (capacitanceValue >> 0);
 108              		.loc 1 104 0
 109 005c D070     		strb	r0, [r2, #3]
 105:main.c        **** 		#ifdef CY_SCB_UART_H
 106:main.c        **** 			sprintf(printBuf, "Csh_tank value = %lu pF\r\n", capacitanceValue);
 107:main.c        **** 			UART_UartPutString(printBuf);
 108:main.c        **** 		#endif
 109:main.c        **** 		
 110:main.c        **** 		capacitanceValue = CapSense_GetShieldCapacitance();
 110              		.loc 1 110 0
 111 005e FFF7FEFF 		bl	CapSense_GetShieldCapacitance
 112              	.LVL12:
 111:main.c        **** 		slaveBuffer[4] = (uint8) (capacitanceValue >> 8);
 113              		.loc 1 111 0
 114 0062 030A     		lsrs	r3, r0, #8
 115 0064 6A46     		mov	r2, sp
 116 0066 1371     		strb	r3, [r2, #4]
 112:main.c        **** 		slaveBuffer[5] = (uint8) (capacitanceValue >> 0);
ARM GAS  C:\Users\220036~1\AppData\Local\Temp\cc4u03Fk.s 			page 5


 117              		.loc 1 112 0
 118 0068 5071     		strb	r0, [r2, #5]
 119              	.LVL13:
  84:main.c        **** 		uint32 capacitanceValue;
 120              		.loc 1 84 0
 121 006a 0026     		movs	r6, #0
 113:main.c        **** 		#ifdef CY_SCB_UART_H
 114:main.c        **** 			sprintf(printBuf, "Shield capacitance = %lu pF\r\n\n", capacitanceValue);
 115:main.c        **** 			UART_UartPutString(printBuf);
 116:main.c        **** 		#endif
 117:main.c        **** 					
 118:main.c        **** 		for(wdgtNumber = 0; wdgtNumber < CapSense_TOTAL_CSD_WIDGETS; wdgtNumber++)
 122              		.loc 1 118 0
 123 006c 0024     		movs	r4, #0
 124 006e 15E0     		b	.L2
 125              	.LVL14:
 126              	.L5:
 119:main.c        **** 		{
 120:main.c        **** 			ptrFlashWidget = &CapSense_dsFlash.wdgtArray[wdgtNumber];
 127              		.loc 1 120 0
 128 0070 2700     		movs	r7, r4
 129              	.LVL15:
 121:main.c        **** 			for(snsNumber = 0; snsNumber < ptrFlashWidget->totalNumSns; snsNumber++)
 130              		.loc 1 121 0
 131 0072 0025     		movs	r5, #0
 132 0074 0AE0     		b	.L3
 133              	.LVL16:
 134              	.L4:
 122:main.c        **** 			{
 123:main.c        **** 				capacitanceValue = CapSense_GetSensorCapacitance(wdgtNumber, snsNumber);
 135              		.loc 1 123 0 discriminator 3
 136 0076 2900     		movs	r1, r5
 137 0078 2000     		movs	r0, r4
 138              	.LVL17:
 139 007a FFF7FEFF 		bl	CapSense_GetSensorCapacitance
 140              	.LVL18:
 124:main.c        **** 				slaveBuffer[SLAVE_BUFFER_FIXED + totalNumSensors] = (uint8) capacitanceValue;
 141              		.loc 1 124 0 discriminator 3
 142 007e B31D     		adds	r3, r6, #6
 143 0080 6A46     		mov	r2, sp
 144 0082 D054     		strb	r0, [r2, r3]
 125:main.c        **** 				#ifdef CY_SCB_UART_H
 126:main.c        **** 					sprintf(printBuf, "Sensor %2d Cp = %2lu pF\r\n", totalNumSensors, capacitanceValue);
 127:main.c        **** 					UART_UartPutString(printBuf);
 128:main.c        **** 				#endif
 129:main.c        **** 				totalNumSensors++;
 145              		.loc 1 129 0 discriminator 3
 146 0084 0136     		adds	r6, r6, #1
 147              	.LVL19:
 148 0086 B6B2     		uxth	r6, r6
 149              	.LVL20:
 121:main.c        **** 			{
 150              		.loc 1 121 0 discriminator 3
 151 0088 0135     		adds	r5, r5, #1
 152              	.LVL21:
 153 008a ADB2     		uxth	r5, r5
 154              	.LVL22:
ARM GAS  C:\Users\220036~1\AppData\Local\Temp\cc4u03Fk.s 			page 6


 155              	.L3:
 121:main.c        **** 			{
 156              		.loc 1 121 0 is_stmt 0 discriminator 1
 157 008c 7B01     		lsls	r3, r7, #5
 158 008e 304A     		ldr	r2, .L19+4
 159 0090 D318     		adds	r3, r2, r3
 160 0092 1B8B     		ldrh	r3, [r3, #24]
 161 0094 9D42     		cmp	r5, r3
 162 0096 EED3     		bcc	.L4
 118:main.c        **** 		{
 163              		.loc 1 118 0 is_stmt 1 discriminator 2
 164 0098 0134     		adds	r4, r4, #1
 165              	.LVL23:
 166 009a A4B2     		uxth	r4, r4
 167              	.LVL24:
 168              	.L2:
 118:main.c        **** 		{
 169              		.loc 1 118 0 is_stmt 0 discriminator 1
 170 009c 012C     		cmp	r4, #1
 171 009e E7D9     		bls	.L5
 130:main.c        **** 			}
 131:main.c        **** 		}
 132:main.c        **** 		
 133:main.c        **** 		#ifdef CY_SCB_UART_H
 134:main.c        **** 			UART_UartPutString("\r\n\n");
 135:main.c        **** 		#endif
 136:main.c        **** 				
 137:main.c        **** 	#endif // CapSense_SELF_TEST_EN
 138:main.c        **** 	
 139:main.c        **** 	CapSense_ScanAllWidgets(); /* Scan all widgets */
 172              		.loc 1 139 0 is_stmt 1
 173 00a0 FFF7FEFF 		bl	CapSense_ScanAllWidgets
 174              	.LVL25:
 175              	.L6:
 140:main.c        **** 	
 141:main.c        **** 	while(CapSense_IsBusy()); /* wait for scan to complete */
 176              		.loc 1 141 0 discriminator 1
 177 00a4 FFF7FEFF 		bl	CapSense_IsBusy
 178              	.LVL26:
 179 00a8 0028     		cmp	r0, #0
 180 00aa FBD1     		bne	.L6
 142:main.c        **** 	
 143:main.c        **** 	CyDelay(500);
 181              		.loc 1 143 0
 182 00ac F530     		adds	r0, r0, #245
 183 00ae FF30     		adds	r0, r0, #255
 184 00b0 FFF7FEFF 		bl	CyDelay
 185              	.LVL27:
 144:main.c        **** 	
 145:main.c        **** 	CapSense_InitializeAllBaselines(); /* re-initialize baselines before starting forever loop */
 186              		.loc 1 145 0
 187 00b4 FFF7FEFF 		bl	CapSense_InitializeAllBaselines
 188              	.LVL28:
  47:main.c        **** 	uint8 numActiveSensors;	/* number of active sensors in a given scan cycle */
 189              		.loc 1 47 0
 190 00b8 0023     		movs	r3, #0
 191 00ba 9846     		mov	r8, r3
ARM GAS  C:\Users\220036~1\AppData\Local\Temp\cc4u03Fk.s 			page 7


  46:main.c        **** 	uint8 multipleKeyFlag = FALSE;
 192              		.loc 1 46 0
 193 00bc FF26     		movs	r6, #255
 194              	.LVL29:
  45:main.c        **** 	uint8 previousKey = NO_KEY_PRESSED;	/* keep track of last key pressed ... to be used in "new event
 195              		.loc 1 45 0
 196 00be FF27     		movs	r7, #255
 197 00c0 06E0     		b	.L7
 198              	.LVL30:
 199              	.L18:
 146:main.c        **** 
 147:main.c        ****     for(;;)
 148:main.c        ****     {
 149:main.c        ****         /* Place your application code here. */
 150:main.c        **** 		
 151:main.c        **** 		/* Scan all widgets. */
 152:main.c        **** 	    CapSense_ScanAllWidgets(); 
 153:main.c        **** 		
 154:main.c        **** 		/* Wait for scan to complete. */
 155:main.c        ****         while(!(CapSense_NOT_BUSY == CapSense_IsBusy()))
 156:main.c        **** 			;
 157:main.c        **** 
 158:main.c        ****         /* Process all widgets. */
 159:main.c        ****         CapSense_ProcessAllWidgets();
 160:main.c        **** 		
 161:main.c        **** 		#ifdef TUNER_ENABLED
 162:main.c        **** 			CapSense_RunTuner(); /* To sync with Tuner application */
 163:main.c        **** 		#endif
 164:main.c        **** 		
 165:main.c        **** 		/* Check if any widget is active. */
 166:main.c        **** 		if(CapSense_IsAnyWidgetActive())
 167:main.c        **** 		{
 168:main.c        **** 			HB_LED_Write(LED_ON);
 169:main.c        **** 			
 170:main.c        **** 			numActiveSensors = 0;	/* clear sensor count */
 171:main.c        **** 			
 172:main.c        **** 			/* update active key and count */
 173:main.c        **** 			for(i = CapSense_START_WDGT_ID; i < CapSense_TOTAL_CSD_WIDGETS; i++)
 174:main.c        **** 			{
 175:main.c        **** 				if(CapSense_IsWidgetActive(i))
 176:main.c        **** 				{
 177:main.c        **** 					numActiveSensors++;	/* will be used to test whether one key or multiple keys are active */
 178:main.c        **** 					activeKey = i - CapSense_START_WDGT_ID;	/* stores the active key from this scan */
 179:main.c        **** 				}
 180:main.c        **** 			}
 181:main.c        **** 			
 182:main.c        **** 			/* process keys from this scan */
 183:main.c        **** 			if(numActiveSensors == 1)	/* only one key ... CapSense key # is reported to console via UART */
 184:main.c        **** 			{
 185:main.c        **** 				if(activeKey != previousKey)	/* new event if true */
 186:main.c        **** 				{
 187:main.c        **** 					multipleKeyFlag = FALSE;
 188:main.c        **** 					previousKey = activeKey;	/* remember new key */
 200              		.loc 1 188 0
 201 00c2 3E00     		movs	r6, r7
 187:main.c        **** 					previousKey = activeKey;	/* remember new key */
 202              		.loc 1 187 0
ARM GAS  C:\Users\220036~1\AppData\Local\Temp\cc4u03Fk.s 			page 8


 203 00c4 0023     		movs	r3, #0
 204 00c6 9846     		mov	r8, r3
 205 00c8 02E0     		b	.L7
 206              	.LVL31:
 207              	.L17:
 189:main.c        **** 					
 190:main.c        **** 					#ifdef CY_SCB_UART_H
 191:main.c        **** 						sprintf(printBuf, "Key pressed ........ SW%d\r\n", (activeKey + 100));
 192:main.c        **** 						UART_UartPutString(printBuf);
 193:main.c        **** 					#endif
 194:main.c        **** 					
 195:main.c        **** 					/* Add key press actions here. */					
 196:main.c        **** 					switch(activeKey)
 197:main.c        **** 					{
 198:main.c        **** 						case KEY00: // SW100
 199:main.c        **** 							Start_Button_Write(HI);
 200:main.c        **** 							break;
 201:main.c        **** 						case KEY01: // SW101
 202:main.c        **** 							
 203:main.c        **** 							break;
 204:main.c        **** 						
 205:main.c        **** 						default:
 206:main.c        **** 							break;
 207:main.c        **** 					}
 208:main.c        **** 				}
 209:main.c        **** 			}
 210:main.c        **** 			else if(numActiveSensors > 1)	/* multiple keys are active */
 211:main.c        **** 			{
 212:main.c        **** 				if(FALSE == multipleKeyFlag)
 213:main.c        **** 				{
 214:main.c        **** 					#ifdef CY_SCB_UART_H
 215:main.c        **** 						UART_UartPutString("Multiple sensors detected\r\n");
 216:main.c        **** 					#endif
 217:main.c        **** 					multipleKeyFlag = TRUE;
 208              		.loc 1 217 0
 209 00ca 0123     		movs	r3, #1
 210 00cc 9846     		mov	r8, r3
 211              	.LVL32:
 218:main.c        **** 					previousKey = NO_KEY_PRESSED;
 212              		.loc 1 218 0
 213 00ce FF26     		movs	r6, #255
 214              	.LVL33:
 215              	.L7:
 152:main.c        **** 		
 216              		.loc 1 152 0
 217 00d0 FFF7FEFF 		bl	CapSense_ScanAllWidgets
 218              	.LVL34:
 219              	.L9:
 155:main.c        **** 			;
 220              		.loc 1 155 0 discriminator 1
 221 00d4 FFF7FEFF 		bl	CapSense_IsBusy
 222              	.LVL35:
 223 00d8 0028     		cmp	r0, #0
 224 00da FBD1     		bne	.L9
 159:main.c        **** 		
 225              		.loc 1 159 0
 226 00dc FFF7FEFF 		bl	CapSense_ProcessAllWidgets
ARM GAS  C:\Users\220036~1\AppData\Local\Temp\cc4u03Fk.s 			page 9


 227              	.LVL36:
 162:main.c        **** 		#endif
 228              		.loc 1 162 0
 229 00e0 FFF7FEFF 		bl	CapSense_RunTuner
 230              	.LVL37:
 166:main.c        **** 		{
 231              		.loc 1 166 0
 232 00e4 FFF7FEFF 		bl	CapSense_IsAnyWidgetActive
 233              	.LVL38:
 234 00e8 0028     		cmp	r0, #0
 235 00ea 24D0     		beq	.L10
 168:main.c        **** 			
 236              		.loc 1 168 0
 237 00ec 0120     		movs	r0, #1
 238 00ee FFF7FEFF 		bl	HB_LED_Write
 239              	.LVL39:
 170:main.c        **** 			
 240              		.loc 1 170 0
 241 00f2 0025     		movs	r5, #0
 173:main.c        **** 			{
 242              		.loc 1 173 0
 243 00f4 0024     		movs	r4, #0
 244 00f6 09E0     		b	.L11
 245              	.LVL40:
 246              	.L13:
 175:main.c        **** 				{
 247              		.loc 1 175 0
 248 00f8 2000     		movs	r0, r4
 249 00fa FFF7FEFF 		bl	CapSense_IsWidgetActive
 250              	.LVL41:
 251 00fe 0028     		cmp	r0, #0
 252 0100 02D0     		beq	.L12
 177:main.c        **** 					activeKey = i - CapSense_START_WDGT_ID;	/* stores the active key from this scan */
 253              		.loc 1 177 0
 254 0102 0135     		adds	r5, r5, #1
 255              	.LVL42:
 256 0104 EDB2     		uxtb	r5, r5
 257              	.LVL43:
 178:main.c        **** 				}
 258              		.loc 1 178 0
 259 0106 E7B2     		uxtb	r7, r4
 260              	.LVL44:
 261              	.L12:
 173:main.c        **** 			{
 262              		.loc 1 173 0 discriminator 2
 263 0108 0134     		adds	r4, r4, #1
 264              	.LVL45:
 265 010a A4B2     		uxth	r4, r4
 266              	.LVL46:
 267              	.L11:
 173:main.c        **** 			{
 268              		.loc 1 173 0 is_stmt 0 discriminator 1
 269 010c 012C     		cmp	r4, #1
 270 010e F3D9     		bls	.L13
 183:main.c        **** 			{
 271              		.loc 1 183 0 is_stmt 1
 272 0110 012D     		cmp	r5, #1
ARM GAS  C:\Users\220036~1\AppData\Local\Temp\cc4u03Fk.s 			page 10


 273 0112 0AD1     		bne	.L14
 185:main.c        **** 				{
 274              		.loc 1 185 0
 275 0114 B742     		cmp	r7, r6
 276 0116 DBD0     		beq	.L7
 277              	.LVL47:
 196:main.c        **** 					{
 278              		.loc 1 196 0
 279 0118 002F     		cmp	r7, #0
 280 011a D2D1     		bne	.L18
 199:main.c        **** 							break;
 281              		.loc 1 199 0
 282 011c 0120     		movs	r0, #1
 283 011e FFF7FEFF 		bl	Start_Button_Write
 284              	.LVL48:
 188:main.c        **** 					
 285              		.loc 1 188 0
 286 0122 3E00     		movs	r6, r7
 187:main.c        **** 					previousKey = activeKey;	/* remember new key */
 287              		.loc 1 187 0
 288 0124 0023     		movs	r3, #0
 289 0126 9846     		mov	r8, r3
 200:main.c        **** 						case KEY01: // SW101
 290              		.loc 1 200 0
 291 0128 D2E7     		b	.L7
 292              	.LVL49:
 293              	.L14:
 210:main.c        **** 			{
 294              		.loc 1 210 0
 295 012a 012D     		cmp	r5, #1
 296 012c D0D9     		bls	.L7
 212:main.c        **** 				{
 297              		.loc 1 212 0
 298 012e 4346     		mov	r3, r8
 299 0130 002B     		cmp	r3, #0
 300 0132 CAD0     		beq	.L17
 301 0134 CCE7     		b	.L7
 302              	.LVL50:
 303              	.L10:
 219:main.c        **** 				}
 220:main.c        **** 			}			
 221:main.c        **** 			else
 222:main.c        **** 			{
 223:main.c        **** 				/* nothing for now */
 224:main.c        **** 			}
 225:main.c        **** 				
 226:main.c        **** 		}
 227:main.c        **** 		else /* no keys active */
 228:main.c        **** 		{
 229:main.c        **** 			if(previousKey != NO_KEY_PRESSED)	/* if true, this is a "key released" event */
 304              		.loc 1 229 0
 305 0136 FF2E     		cmp	r6, #255
 306 0138 CAD0     		beq	.L7
 230:main.c        **** 			{
 231:main.c        **** 				HB_LED_Write(LED_OFF);
 307              		.loc 1 231 0
 308 013a 0020     		movs	r0, #0
ARM GAS  C:\Users\220036~1\AppData\Local\Temp\cc4u03Fk.s 			page 11


 309 013c FFF7FEFF 		bl	HB_LED_Write
 310              	.LVL51:
 232:main.c        **** 				Start_Button_Write(LOW);
 311              		.loc 1 232 0
 312 0140 0020     		movs	r0, #0
 313 0142 FFF7FEFF 		bl	Start_Button_Write
 314              	.LVL52:
 233:main.c        **** 				
 234:main.c        **** 				previousKey = NO_KEY_PRESSED; /* update previousKey to show that no keys are presently active *
 315              		.loc 1 234 0
 316 0146 FF26     		movs	r6, #255
 317 0148 C2E7     		b	.L7
 318              	.L20:
 319 014a C046     		.align	2
 320              	.L19:
 321 014c 00000000 		.word	CapSense_dsRam
 322 0150 00000000 		.word	CapSense_dsFlash
 323              		.cfi_endproc
 324              	.LFE34:
 325              		.size	main, .-main
 326              		.text
 327              	.Letext0:
 328              		.file 2 "Generated_Source\\PSoC4/cytypes.h"
 329              		.file 3 "Generated_Source\\PSoC4/CapSense_Configuration.h"
 330              		.file 4 "Generated_Source\\PSoC4/CapSense_Structure.h"
 331              		.file 5 "Generated_Source\\PSoC4/HB_LED.h"
 332              		.file 6 "Generated_Source\\PSoC4/CyLib.h"
 333              		.file 7 "Generated_Source\\PSoC4/EZI2C.h"
 334              		.file 8 "Generated_Source\\PSoC4/EZI2C_EZI2C.h"
 335              		.file 9 "Generated_Source\\PSoC4/CapSense_Control.h"
 336              		.file 10 "Generated_Source\\PSoC4/CapSense_SelfTest.h"
 337              		.file 11 "Generated_Source\\PSoC4/CapSense_Sensing.h"
 338              		.file 12 "Generated_Source\\PSoC4/CapSense_Filter.h"
 339              		.file 13 "Generated_Source\\PSoC4/CapSense_Tuner.h"
 340              		.file 14 "Generated_Source\\PSoC4/Start_Button.h"